

  Address         Publics by Value

 0001:80004050       __start
 0001:80004210       __init_registers
 0001:800042A0       __init_data
 0001:80004360       __init_hardware
 0001:80004744       aMetrowerksTarg
 0002:80006EA0       nullsub_27
 0002:80006F00       mult__Q29JGeometry38TMatrix34_Q29JGeometry13SMatrix34C_f__CFRCQ29JGeometry8TVec3_f_RQ29JGeometry8TVec3_f_
 0002:80006F90       set_f___Q29JGeometry8TVec3_f_Ffff_v
 0002:80007380       concat__Q29JGeometry38TMatrix34_Q29JGeometry13SMatrix34C_f__FRCQ29JGeometry13SMatrix34C_f_RCQ29JGeometry13SMatrix34C_f_
 0002:80007B60       sqrt__Q29JGeometry8TUtil_f_Ff
 0002:80007BA0       set_f___Q29JGeometry8TVec4_f_Fffff_v
 0002:80008390       MR::startLevelSound((LiveActor const *,char const *,long,long,long))
 0002:80008810       MR::startBck((LiveActor const *,char const *,char const *))
 0002:800098F0       MR::isBrkStopped((LiveActor const *))
 0002:8000A010       MR::startBrk((LiveActor const *,char const *))
 0002:8000A5F0       MR::setBrkRate((LiveActor const *,float))
 0002:8000C000       getValue_f___12JMapInfoIterCFPCcPf_b
 0002:8000C080       getValue_l___12JMapInfoIterCFPCcPl_b
 0002:8000C150       __ct__Q29JGeometry8TVec3_f_FRCQ29JGeometry8TVec3_f_
 0002:8000CE80       MR::initDefaultPos((LiveActor *,JMapInfoIter const &))
 0002:8000CFB0       JMapInfoIter::isValid(const(void))
 0002:8000D750       dot__Q29JGeometry8TVec3_f_CFRCQ29JGeometry8TVec3_f_
 0002:8000DB80       JMathInlineVEC::PSVECSubtract((Vec const *,Vec const *,Vec *))
 0002:8000DBB0       zero__Q29JGeometry8TVec3_f_Fv
 0002:8000E080       MR::isNearPlayerAnyTime((LiveActor const *,float))
 0002:8000E740       __as__Q29JGeometry8TVec3_f_FRCQ29JGeometry8TVec3_f_
 0002:8000E9C0       set_f___Q29JGeometry8TVec3_f_FRCQ29JGeometry8TVec3_f__v
 0002:8000F020       __ct_f___Q29JGeometry8TVec3_f_Ffff_Pv
 0002:8000F540       MR::makeMtxTR((float *[4],LiveActor const *))
 0002:8000F560       MR::makeMtxTRS((float *[4],LiveActor const *))
 0002:8000F5B0       MR::makeMtxTransRotateY((float *[4],LiveActor const *))
 0002:80010690       MR::resetPosition((LiveActor *))
 0002:80012850       MR::sendMsgPushAndKillVelocityToTarget((LiveActor *,HitSensor *,HitSensor *))
 0002:80013990       __ct_i___Q29JGeometry8TVec3_f_Fiii_Pv
 0002:80013DF0       std::atan2((float,float))
 0002:80015390       MR::tryUpdateHitSensorsAll((LiveActor *))
 0002:800153D0       MR::updateHitSensorsAll((LiveActor *))
 0002:800153E0       HitSensor::isType(const(ulong))
 0002:80015490       MR::getTaken((LiveActor const *))
 0002:80015670       MR::validateHitSensors((LiveActor *))
 0002:80015690       MR::invalidateHitSensors((LiveActor *))
 0002:80015810       MR::clearHitSensors((LiveActor *))
 0002:80015820       nullsub_120
 0002:80015880       MR::getSensorHost((HitSensor const *))
 0002:80015890       MR::isSensor((HitSensor const *,char const *))
 0002:800158D0       MR::isSensorPlayer((HitSensor const *))
 0002:800158E0       MR::isSensorBinder((HitSensor const *))
 0002:80015910       MR::isSensorRide((HitSensor const *))
 0002:80015940       MR::isSensorPlayerOrRide((HitSensor const *))
 0002:80015A40       MR::isSensorEnemy((HitSensor const *))
 0002:80015A80       MR::isSensorNpc((HitSensor const *))
 0002:80015AA0       MR::isSensorMapObj((HitSensor const *))
 0002:80015E30       MR::sendMsgPush((HitSensor *,HitSensor *))
 0002:800161B0       MR::sendMsgEnemyAttackExplosion((HitSensor *,HitSensor *))
 0002:800175F0       getValue_PCc___12JMapInfoIterCFPCcPPCc_b
 0002:80017980       getValue_b___12JMapInfoIterCFPCcPb_b
 0002:80017A10       ActorShadow::setUpShadowControlIsSyncShowFromCSV((ShadowController *,JMapInfoIter const &))
 0002:80018600       def_80018560
 0002:80018A70       MR::initShadowVolumeSphere((LiveActor *,float))
 0002:8001A540       MR::useStageSwitchReadA((LiveActor *,JMapInfoIter const &))
 0002:8001A620       MR::useStageSwitchWriteDead((LiveActor *,JMapInfoIter const &))
 0002:8001A800       MR::isValidSwitchDead((LiveActor const *))
 0002:8001A960       MR::onSwitchDead((LiveActor *))
 0002:8001B91C       def_8001B7B4
 0002:8001F650       MR::registerDemoSimpleCastAll((LiveActor *))
 0002:80021280       nullsub_23
 0002:80022BC0       MR::emitEffect((LiveActor *,char const *))
 0002:80022E80       MR::deleteEffect((LiveActor *,char const *))
 0002:80025520       MR::isFileExist((char const *,bool))
 0002:80025570       MR::isFileExist((char const *,bool))
 0002:80025950       MR::makeScenarioArchiveFileName((char *,ulong,char const *))
 0002:80025B50       MR::receiveFile((char const *))
 0002:800269E0       NameObj::unk2((void))
 0002:800269F0       NameObj::unk1((void))
 0002:80026C90       FurDrawManager::add((FurCtrl *,uchar))
 0002:800272C0       FurCtrl::calcLayerForm((void))
 0002:80027480       FurCtrl::drawFur((void))
 0002:80027740       FurCtrl::createFurMap((void))
 0002:800277C0       MR::initFurParamFromDvd((FurParam *,DynamicFurParam *,char *,ulong))
 0002:80027A90       MR::getFurDrawManager((void))
 0002:80027E10       FurDrawer::update((void))
 0002:80027E30       FurDrawer::CLayerParam::calcValue(const(long,long))
 0002:80027EC0       FurDrawer::setupMaterial(const(DynamicFurParam *))
 0002:80028590       FurDrawer::setupLayerMaterial(const(long))
 0002:800288B0       FurMulti::FurMulti((LiveActor *,ulong))
 0002:800289A0       FurMulti::setLayerDirect((ulong,ulong,ulong,ulong,FurParam *,ResTIMG *,ResTIMG *,ResTIMG *,ResTIMG *))
 0002:80028B90       FurMulti::addToManager((void))
 0002:80028C90       MR::initMultiFur((LiveActor *,long))
 0002:8002B3B0       calcGravityVector__2MRFPC7NameObjRCQ29JGeometry8TVec3_f_PQ29JGeometry8TVec3_f_P11GravityInfoUl
 0002:8002BD90       MR::isValidInfo((JMapInfoIter const &))
 0002:8002BDA0       MR::getObjectName((char const **,JMapInfoIter const &))
 0002:8002BE90       getJMapInfoArgNoInit(JMapInfoIter const &,char const *,long *)
 0002:8002BEF0       getJMapInfoArgNoInit(JMapInfoIter const &,char const *,float *)
 0002:8002BF60       getJMapInfoArgNoInit(JMapInfoIter const &,char const *,bool *)
 0002:8002C060       getJMapInfoTransLocal__2MRFRC12JMapInfoIterPQ29JGeometry8TVec3_f_
 0002:8002C0F0       getJMapInfoTrans__2MRFRC12JMapInfoIterPQ29JGeometry8TVec3_f_
 0002:8002C160       getJMapInfoRotateLocal__2MRFRC12JMapInfoIterPQ29JGeometry8TVec3_f_
 0002:8002C1F0       getJMapInfoRotate__2MRFRC12JMapInfoIterPQ29JGeometry8TVec3_f_
 0002:8002C360       getJMapInfoScale__2MRFRC12JMapInfoIterPQ29JGeometry8TVec3_f_
 0002:8002C740       MR::getJMapInfoArg0NoInit((JMapInfoIter const &,long *))
 0002:8002C750       MR::getJMapInfoArg0NoInit((JMapInfoIter const &,float *))
 0002:8002C770       MR::getJMapInfoArg1NoInit((JMapInfoIter const &,long *))
 0002:8002C7A0       MR::getJMapInfoArg2NoInit((JMapInfoIter const &,long *))
 0002:8002C7B0       MR::getJMapInfoArg2NoInit((JMapInfoIter const &,float *))
 0002:8002C7C0       MR::getJMapInfoArg2NoInit((JMapInfoIter const &,bool *))
 0002:8002C950       MR::getJMapInfoClippingGroupID((JMapInfoIter const &,long *))
 0002:8002C970       MR::getJMapInfoDemoGroupID((JMapInfoIter const &,long *))
 0002:8002C990       MR::getJMapInfoLinkID((JMapInfoIter const &,long *))
 0002:8002D160       MR::getRailId((JMapInfoIter const &,long *))
 0002:8002D180       MR::getNextLinkRailID((JMapInfoIter const &,long *))
 0002:8002D190       MR::isEqualRailUsage((JMapInfoIter const &,char const *))
 0002:8002D1E0       getRailPointPos0__2MRFRC12JMapInfoIterPQ29JGeometry8TVec3_f_
 0002:8002D270       getRailPointPos1__2MRFRC12JMapInfoIterPQ29JGeometry8TVec3_f_
 0002:8002D300       getRailPointPos2__2MRFRC12JMapInfoIterPQ29JGeometry8TVec3_f_
 0002:8002D410       MR::getJoint((J3DModel *,char const *))
 0002:8002D460       MR::getJoint((LiveActor const *,char const *))
 0002:8002D4A0       MR::getJoint((LiveActor const *,ushort))
 0002:8002DDF0       nw4r::lyt::Pane::GetRuntimeTypeInfo(const(void))
 0002:8002EDD0       MR::hidePane((LayoutActor *,char const *))
 0002:8002EFD0       copyPaneTrans__2MRFPQ29JGeometry8TVec2_f_PC11LayoutActorPCc
 0002:8002F330       MR::setLayoutScalePosAtPaneScaleTransIfExecCalcAnim((LayoutActor *,LayoutActor const *,char const *))
 0002:8002F3A0       LayoutHolder::getResOther(const(char const *))
 0002:8002F720       MR::startAnim((LayoutActor *,char const *,ulong))
 0002:80030E70       MR::loadLight((long))
 0002:80031970       MR::setGroupClipping((LiveActor *,JMapInfoIter const &,int))
 0002:800319C0       MR::validateClipping((LiveActor *))
 0002:80031A10       MR::invalidateClipping((LiveActor *))
 0002:80031AE0       MR::isClipped((LiveActor const *))
 0002:80031B00       MR::setBaseTRMtx((LiveActor *,float *[4]))
 0002:80031B40       setBaseTRMtx__2MRFP9LiveActorRCQ29JGeometry64TPosition3_Q29JGeometry38TMatrix34_Q29JGeometry13SMatrix34C_f___
 0002:80031CD0       MR::getResourceHolder((LiveActor const *))
 0002:80031CF0       MR::getModelResourceHolder((LiveActor const *))
 0002:80031D10       MR::getTexFromModel((char const *,LiveActor const *))
 0002:80031D80       MR::getTexFromArc((char const *,LiveActor const *))
 0002:80031DF0       MR::isExistTexture((LiveActor const *,char const *))
 0002:80032360       MR::initJointTransform((LiveActor const *))
 0002:80032370       MR::getJointTransform((LiveActor const *,char const *))
 0002:800329E0       MR::initLightCtrl((LiveActor *))
 0002:80032A70       MR::updateLightCtrl((LiveActor *))
 0002:80032A90       MR::loadActorLight((LiveActor const *))
 0002:80032AD0       MR::getLightCtrl((LiveActor const *))
 0002:80032B20       MR::isFirstStep((LiveActor const *))
 0002:800338E0       MR::isOnGroundCos((LiveActor const *,float))
 0002:800340B0       MR::validateExCollisionParts((LiveActor *))
 0002:800342A0       MR::isDead((LiveActor const *))
 0002:800342B0       MR::isHiddenModel((LiveActor const *))
 0002:800342C0       MR::showModel((LiveActor *))
 0002:80034510       MR::isNoEntryDrawBuffer((LiveActor const *))
 0002:80034530       MR::onBind((LiveActor *))
 0002:80034550       MR::isCalcGravity((LiveActor const *))
 0002:80034560       MR::onCalcGravity((LiveActor *))
 0002:800345A0       MR::offCalcGravity((LiveActor *))
 0002:80034DA0       MR::calcGravity((LiveActor *))
 0002:80034E60       MR::calcGravityOrZero((LiveActor *))
 0002:80035120       MR::createCollisionPartsFromLiveActor((LiveActor *,char const *,HitSensor *,MR::CollisionScaleType))
 0002:80035190       MR::createCollisionPartsFromLiveActor((LiveActor *,char const *,HitSensor *,float *[4],MR::CollisionScaleType))
 0002:80035200       createCollisionPartsFromResourceHolder__2MRFP14ResourceHolderPCcP9HitSensorRCQ29JGeometry64TPosition3_Q29JGeometry38TMatrix34_Q29JGeometry13SMatrix34C_f___Q22MR18CollisionScaleType
 0002:80035450       MR::validateCollisionParts((LiveActor *))
 0002:80035520       MR::invalidateCollisionParts((LiveActor *))
 0002:80035530       MR::invalidateCollisionParts((CollisionParts *))
 0002:800357D0       MR::setCollisionMtx((LiveActor *))
 0002:80037E30       getFirstPolyOnLineToMap__2MRFPQ29JGeometry8TVec3_f_P8TriangleRCQ29JGeometry8TVec3_f_RCQ29JGeometry8TVec3_f_
 0002:8003B250       MR::initAcosTable((void))
 0002:8003E5D0       normalizeOrZero__2MRFPQ29JGeometry8TVec3_f_
 0002:8003EC20       turnVecToVecRadian__2MRFPQ29JGeometry8TVec3_f_RCQ29JGeometry8TVec3_f_RCQ29JGeometry8TVec3_f_fRCQ29JGeometry8TVec3_f_
 0002:8003F1A0       isNearZero__2MRFRCQ29JGeometry8TVec3_f_f
 0002:80040830       vecKillElement__2MRFRCQ29JGeometry8TVec3_f_RCQ29JGeometry8TVec3_f_PQ29JGeometry8TVec3_f_
 0002:80040C60       MR::CurrentHeapRestorer::CurrentHeapRestorer((JKRHeap *))
 0002:80040CC0       MR::CurrentHeapRestorer::~CurrentHeapRestorer((void))
 0002:80040D30       MR::NewDeleteAllocator::alloc((MEMAllocator *,ulong))
 0002:80040D40       MR::NewDeleteAllocator::free((MEMAllocator *,void *))
 0002:80040D70       MR::getCurrentHeap((void))
 0002:80040D80       MR::getStationedHeapNapa((void))
 0002:80040D90       MR::getStationedHeapGDDR3((void))
 0002:80040DB0       MR::getSceneHeapGDDR3((void))
 0002:80040E10       MR::becomeCurrentHeap((JKRHeap *))
 0002:80040E70       MR::isEqualCurrentHeap((JKRHeap *))
 0002:80040E90       MR::adjustHeapSize((JKRExpHeap *,char const *))
 0002:800411D0       MR::zeroMemory((void *,ulong))
 0002:80042C70       MR::getJ3DModel((LiveActor const *))
 0002:80042C90       MR::calcJ3DModel((LiveActor *))
 0002:80042CF0       MR::getJ3DModelData((LiveActor const *))
 0002:80043A40       MR::getResTIMG((LiveActor const *,int))
 0002:80043A80       MR::getResTIMG((J3DModelData const *,int))
 0002:80043AA0       MR::getTexture((ResourceHolder *,char const *))
 0002:80047A50       MR::isStep((NerveExecutor const *,long))
 0002:80047A90       MR::isFirstStep((NerveExecutor const *))
 0002:80047AA0       MR::isLessStep((NerveExecutor const *,long))
 0002:80047AE0       MR::isLessEqualStep((NerveExecutor const *,long))
 0002:8004A148       def_8004A068
 0002:8004AC30       MR::registerNameObjToExecuteHolder((NameObj *,int,int,int,int))
 0002:8004ADA0       MR::connectToSceneEnemy((LiveActor *))
 0002:8004B7F0       NameObjFunction::requestMovementOn((NameObj *))
 0002:8004B850       NameObjFunction::requestMovementOn((NameObj *))
 0002:8004B860       NameObjFunction::requestMovementOff((NameObj *))
 0002:8004B8C0       NameObjFunction::requestMovementOff((NameObj *))
 0002:8004DCF0       LiveActor::~LiveActor((void))
 0002:8004E990       LiveActor::updateHitSensor((HitSensor *))
 0002:800508DC       def_8005086C
 0002:80053CF8       def_80053CB4
 0002:80054860       nullsub_20
 0002:80054A50       nullsub_59
 0002:80054CC0       nullsub_60
 0002:80054CD0       nullsub_61
 0002:80056470       getRailInfoFromRailId__23_unnamed_SceneUtil_cpp_FP12JMapInfoIterPPC8JMapInfoPC15StageDataHolderi
 0002:80057D80       MR::getRailInfo((JMapInfoIter *,JMapInfo const **,JMapInfoIter const &))
 0002:80057DF0       MR::getNextLinkRailInfo((JMapInfoIter *,JMapInfo const **,JMapInfoIter const &))
 0002:80057E70       MR::getCurrentStartCameraId((void))
 0002:80057EA0       MR::getStartCameraIdInfoFromStartDataIndex((JMapIdInfo *,int))
 0002:80057F50       MR::getCameraRailInfo((JMapInfoIter *,JMapInfo const **,long,long))
 0002:80057FB0       MR::getCameraRailInfoFromRailDataIndex((JMapInfoIter *,JMapInfo const **,int,long))
 0002:80058190       MR::isPlacementLocalStage((void))
 0002:80058200       MR::getZonePlacementMtx((JMapInfoIter const &))
 0002:800583F0       MR::ProhibitSchedulerAndInterrupts::ProhibitSchedulerAndInterrupts((bool))
 0002:80058430       MR::ProhibitSchedulerAndInterrupts::~ProhibitSchedulerAndInterrupts((void))
 0002:80058560       MR::getScreenWidth((void))
 0002:8005A640       MR::actorSoundMovement((LiveActor *))
 0002:8005B8B0       nullsub_26
 0002:8005C0D0       initStarPointerTarget__2MRFP9LiveActorfRCQ29JGeometry8TVec3_f_
 0002:8005D7C0       set_f___Q29JGeometry8TVec2_f_FRCQ29JGeometry8TVec2_f__v
 0002:8005F400       j_strncpy
 0002:8005F530       MR::extractString((char *,char const *,ulong,ulong))
 0002:8005F5D0       MR::isEqualString((char const *,char const *))
 0002:8005F920       MR::scan32((char const *,char const *,long *))
 0002:8005F980       MR::scanf32((char const *,char const *,float *))
 0002:8005F9E0       MR::scanu8x4((char const *,char const *,uchar *))
 0002:8005FA70       MR::scanf32x4((char const *,char const *,float *))
 0002:80060170       MR::getFontOnCurrentLanguage((void))
 0002:80060180       MR::getPictureFontNW4R((void))
 0002:80060190       MR::getMenuFontNW4R((void))
 0002:800601A0       MR::getNumberFontNW4R((void))
 0002:800601B0       MR::getCinemaFontNW4R((void))
 0002:80060490       MR::startFunctionAsyncExecute((MR::FunctorBase const &,int,char const *))
 0002:80060530       MR::waitForEndFunctionAsyncExecute((char const *))
 0002:80060570       MR::isEndFunctionAsyncExecute((char const *))
 0002:80060720       MR::isScreen16Per9((void))
 0002:80060810       MR::setLayoutDefaultAllocator((void))
 0002:80061780       def_8006173C
 0002:80061790       nullsub_35
 0002:80063510       MR::BothDirPtrLink::BothDirPtrLink((void *))
 0002:800636A0       MR::BothDirPtrList::append((MR::BothDirPtrLink *))
 0002:80063750       MR::BothDirPtrList::remove((MR::BothDirPtrLink *))
 0002:800676B0       JMapInfo::searchItemInfo(const(char const *))
 0002:80067790       JMapInfo::getValueFast(const(int,int,char const **))
 0002:80067BE0       JointController::JointController((void))
 0002:80067C00       calcJointMatrix__15JointControllerFPQ29JGeometry64TPosition3_Q29JGeometry38TMatrix34_Q29JGeometry13SMatrix34C_f___RC19JointControllerInfo
 0002:80067C10       calcJointMatrixAfterChild__15JointControllerFPQ29JGeometry64TPosition3_Q29JGeometry38TMatrix34_Q29JGeometry13SMatrix34C_f___RC19JointControllerInfo
 0002:80067C20       JointController::registerCallBack((void))
 0002:80067C40       JointController::calcJointMatrixAndSetSystem((J3DJoint *))
 0002:80067CE0       J3DModel::getAnmMtx((int))
 0002:80067D00       JointController::calcJointMatrixAfterChildAndSetSystem((J3DJoint *))
 0002:80067D90       JointController::staticCallBack((J3DJoint *,int))
 0002:80067E20       MR::setJointControllerParam((JointController *,LiveActor const *,char const *))
 0002:80067E80       MR::setJointControllerParam((JointController *,LiveActor const *,ushort))
 0002:80067EE0       JointRumbler::JointRumbler((LiveActor *,char const *,float,float,ulong,bool,long))
 0002:80068000       JointRumbler::update((void))
 0002:80068070       JointRumbler::start((void))
 0002:800680B0       JointRumbler::reset((void))
 0002:80068100       JointRumbler::isRumbling(const(void))
 0002:80068120       JointRumbler::updateModelScale((float))
 0002:80068190       updateScale__12JointRumblerFPQ29JGeometry8TVec3_f_f
 0002:80068B70       RumbleCalculator::start((ulong))
 0002:80068BA0       RumbleCalculator::calc((void))
 0002:80068CB0       RumbleCalculator::reset((void))
 0002:80068CC0       RumbleCalculatorCosMultLinear::RumbleCalculatorCosMultLinear((float,float,float,ulong))
 0002:80068F80       TriggerChecker::TriggerChecker((void))
 0002:80068F90       TriggerChecker::update((bool))
 0002:80068FA0       TriggerChecker::setInput((bool))
 0002:80068FB0       TriggerChecker::getLevel(const(void))
 0002:80068FC0       TriggerChecker::getOnTrigger(const(void))
 0002:80068FF0       TriggerChecker::getOffTrigger(const(void))
 0002:80069020       ValueControl::ValueControl((int))
 0002:80069040       ValueControl::setDirToOneResetFrame((void))
 0002:80069050       ValueControl::setDirToZero((void))
 0002:80069060       ValueControl::setDirToZeroResetFrame((void))
 0002:80069070       ValueControl::setMaxFrame((int))
 0002:800690F0       ValueControl::update((void))
 0002:80069210       ValueControl::resetFrame((void))
 0002:80069350       AnmPlayerBase::start((char const *))
 0002:800693F0       nullsub_114
 0002:80069440       nullsub_115
 0002:800738D0       LiveActor::control((void))
 0002:80073D10       nullsub_15
 0002:80084400       nullsub_21
 0002:8008AD40       LiveActorGroup::~LiveActorGroup((void))
 0002:8008E790       nullsub_116
 0002:8009A5A0       LiveActor::makeActorDead((void))
 0002:800B3580       NerveExecutor::updateNerve((void))
 0002:800B5B80       nullsub_65
 0002:800DC4DC       def_800DC49C
 0002:800F2EF0       LiveActor::makeActorAppeared((void))
 0002:800F2F00       LiveActor::makeActorDead((void))
 0002:800F6F90       nullsub_22
 0002:800F7160       MR::startBck((LiveActor const *,char const *,char const *))
 0002:8010A6A0       LiveActor::kill((void))
 0002:8010E220       nullsub_13
 0002:80124FE0       nullsub_25
 0002:80133BB0       nullsub_24
 0002:801344A8       def_80134368
 0002:80149BCC       def_80149B98
 0002:8014CD40       nullsub_72
 0002:8014CD50       nullsub_71
 0002:8014CD60       nullsub_70
 0002:8014CD70       nullsub_73
 0002:8014CD80       nullsub_74
 0002:8014CE00       nullsub_76
 0002:8014CE10       nullsub_75
 0002:8014FF60       WalkerStateBindStarPointer::tryStartPointBind(const(void))
 0002:80150670       NerveExecutor::updateNerve((void))
 0002:80150EE0       LiveActor::makeActorAppeared((void))
 0002:8015F980       LiveActor::makeActorDead((void))
 0002:8015FB50       LiveActor::startClipped((void))
 0002:8016BB10       BombHei::BombHei((char const *))
 0002:8016BBE0       BombHei::init((JMapInfoIter const &))
 0002:8016C040       BombHei::initAfterPlacement((void))
 0002:8016C050       BombHei::appear((void))
 0002:8016C0D0       BombHei::kill((void))
 0002:8016C150       BombHei::startCountdown((void))
 0002:8016C1A0       BombHei::endCountdown((void))
 0002:8016C200       BombHei::exeLaunch((void))
 0002:8016D350       BombHei::calcAndSetBaseMtx((void))
 0002:8016D3B0       calcJoint__7BombHeiFPQ29JGeometry64TPosition3_Q29JGeometry38TMatrix34_Q29JGeometry13SMatrix34C_f___RC19JointControllerInfo
 0002:8016D5B0       BombHei::control((void))
 0002:8016D7F0       BombHei::attackSensor((HitSensor *,HitSensor *))
 0002:8016E250       BombHei::~BombHei((void))
 0002:80182190       nullsub_77
 0002:8019EEE0       LiveActor::kill((void))
 0002:801A8600       LiveActor::makeActorDead((void))
 0002:801A9A80       LiveActor::makeActorDead((void))
 0002:801B8E70       LiveActor::makeActorDead((void))
 0002:801BCF30       LiveActor::makeActorAppeared((void))
 0002:801BF980       LiveActor::kill((void))
 0002:801C1C80       LiveActor::makeActorAppeared((void))
 0002:801C67D0       LiveActor::makeActorAppeared((void))
 0002:801CE460       MR::invalidateClipping((LiveActor *))
 0002:801CE470       MR::validateClipping((LiveActor *))
 0002:80223BE8       def_8022395C
 0002:80223F7C       def_80223D88
 0002:80225A90       nullsub_78
 0002:80225AA0       nullsub_79
 0002:8022AA90       ActorAnimKeeper::update((void))
 0002:8022AAB0       EffectKeeper::update((void))
 0002:8022C160       ActorLightCtrl::reset((void))
 0002:8022D030       ActorStateKeeper::startState((Nerve const *))
 0002:8022D0A0       ActorStateKeeper::endState((Nerve const *))
 0002:8022D950       MR::getAllLiveActorGroup((void))
 0002:8022D980       MR::startInitLiveActorSystemInfo((void))
 0002:8022DD40       Binder::Binder((float *[4],JGeometry::TVec3_f_ const *,JGeometry::TVec3_f_ const *,float,float,ulong))
 0002:8022DE60       Binder::clear((void))
 0002:8022FB30       ClippingActorHolder::registerActor((LiveActor *))
 0002:8022FBA0       ClippingActorHolder::binitSystemInfo((LiveActor *,JMapInfoIter const &))
 0002:8022FD30       ClippingActorHolder::invalidateClipping((LiveActor *))
 0002:8022FDF0       ClippingActorHolder::addToClippingTarget((LiveActor *))
 0002:80230700       ClippingDirector::registerActor((LiveActor *))
 0002:80230710       ClippingDirector::initActorSystemInfo((LiveActor *,JMapInfoIter const &))
 0002:80230720       ClippingDirector::joinToGroupClipping((LiveActor *,JMapInfoIter const &,int))
 0002:802307B0       MR::getClippingDirector((void))
 0002:802307E0       MR::addToClippingTarget((LiveActor *))
 0002:80230820       MR::removeFromClippingTarget((LiveActor *))
 0002:80231060       nullsub_14
 0002:80231BE0       DisplayListMaker::onCurFlagBtp((J3DAnmBase const *))
 0002:80231C60       DisplayListMaker::onCurFlagBrk((J3DAnmBase const *))
 0002:802332C0       EffectKeeper::EffectKeeper((char const *,ResourceHolder *,int,char const *))
 0002:80233370       EffectKeeper::init((LiveActor *))
 0002:80233530       EffectKeeper::setBinder((Binder const *))
 0002:80233C30       ActorPadAndCameraCtrl::update((void))
 0002:80233EE0       EffectKeeper::stopEmitterOnClipped((void))
 0002:80233F50       EffectKeeper::playEmitterOffClipped((void))
 0002:80233FC0       EffectKeeper::clear((void))
 0002:802342B0       EffectKeeper::enableSort((void))
 0002:802359A0       HitSensor::isType(const(ulong))
 0002:80235ED0       HitSensorKeeper::HitSensorKeeper((int))
 0002:80236210       HitSensorKeeper::doObjCol((void))
 0002:80236270       HitSensorKeeper::clear((void))
 0002:80236370       HitSensorKeeper::validateBySystem((void))
 0002:802363D0       HitSensorKeeper::invalidateBySystem((void))
 0002:80237320       LiveActor::LiveActor((char const *))
 0002:80237410       LiveActor::init((JMapInfoIter const &))
 0002:80237420       LiveActor::appear((void))
 0002:80237430       LiveActor::makeActorAppeared((void))
 0002:80237500       LiveActor::kill((void))
 0002:80237570       LiveActor::makeActorDead((void))
 0002:80237610       LiveActor::movement((void))
 0002:80237730       LiveActor::calcAnim((void))
 0002:80237780       LiveActor::calcAnmMtx((void))
 0002:802377E0       J3DModel::setBaseScale((Vec const &))
 0002:80237800       LiveActor::calcViewAndEntry((void))
 0002:80237830       LiveActor::receiveMessage((ulong,HitSensor *,HitSensor *))
 0002:802378C0       LiveActor::calcAndSetBaseMtx((void))
 0002:80237970       LiveActor::getTakingMtx(const(void))
 0002:80237980       LiveActor::setNerve((Nerve const *))
 0002:80237990       LiveActor::isNerve(const(Nerve const *))
 0002:802379D0       LiveActor::getNerveStep(const(void))
 0002:802379E0       LiveActor::getSensor(const(char const *))
 0002:80237A00       LiveActor::getBaseMtx(const(void))
 0002:80237A50       LiveActor::startClipped((void))
 0002:80237AD0       LiveActor::endClipped((void))
 0002:80237B50       LiveActor::initModelManagerWithAnm((char const *,char const *,bool))
 0002:80237C00       LiveActor::initNerve((Nerve const *))
 0002:80237C60       LiveActor::initHitSensor((int))
 0002:80237CB0       LiveActor::initBinder((float,float,ulong))
 0002:80237D70       LiveActor::initRailRider((JMapInfoIter const &))
 0002:80237DC0       LiveActor::initEffectKeeper((int,char const *,bool))
 0002:80237F60       LiveActor::initActorCollisionParts((char const *,HitSensor *,ResourceHolder *,float *[4],bool,bool))
 0002:80238080       LiveActor::initStageSwitch((JMapInfoIter const &))
 0002:80238190       LiveActor::attackSensor((HitSensor *,HitSensor *))
 0002:802381A0       LiveActor::updateBinder((void))
 0002:80238220       LiveActorFlag::LiveActorFlag((void))
 0002:80238290       LiveActorGroup::registerActor((LiveActor *))
 0002:802397F0       FogCtrl::FogCtrl((J3DModelData *,bool))
 0002:80239E80       nullsub_109
 0002:8023B520       ModelManager::update((void))
 0002:8023B5C0       ModelManager::calcAnim((void))
 0002:8023B660       ModelManager::calcView((void))
 0002:8023B920       ModelManager::startBrk((char const *))
 0002:8023B980       ModelManager::startBtp((char const *))
 0002:8023BA40       ModelManager::startBva((char const *))
 0002:8023BAE0       ModelManager::stopBrk((void))
 0002:8023BB30       ModelManager::stopBtp((void))
 0002:8023C0A0       ModelManager::getJ3DModel(const(void))
 0002:8023C0C0       ModelManager::getJ3DModelData(const(void))
 0002:8023C8F0       nullsub_67
 0002:8023C900       PartsModel::PartsModel((LiveActor *,char const *,char const *,float *[4],int,bool))
 0002:8023CE00       initFixedPosition__10PartsModelFPA4_fRCQ29JGeometry8TVec3_f_RCQ29JGeometry8TVec3_f_
 0002:8023CEF0       PartsModel::calcAndSetBaseMtx((void))
 0002:8023D280       RailRider::RailRider((JMapInfoIter const &))
 0002:8023D330       RailRider::RailRider((long,long))
 0002:8023D3E0       RailRider::move((void))
 0002:8023D7A0       RailRider::setCoord((float))
 0002:8023D7F0       RailRider::setSpeed((float))
 0002:8023D800       RailRider::getRailArgWithInit(const(char const *,long *))
 0002:8023D860       RailRider::getRailArgNoInit(const(char const *,long *))
 0002:8023D8D0       RailRider::getNextPointCoord(const(void))
 0002:8023D910       RailRider::getCurrentPointCoord(const(void))
 0002:8023D920       RailRider::getPointNum(const(void))
 0002:8023D990       RailRider::initBezierRail((JMapInfoIter const &,JMapInfo const *))
 0002:8023DA30       RailRider::syncPosDir((void))
 0002:8023DE60       RailRider::getNextPointNo(const(void))
 0002:8023F870       ShadowController::onVisibleSyncHost((void))
 0002:8023F880       ShadowController::offVisibleSyncHost((void))
 0002:8023F950       MR::requestCalcActorShadow((LiveActor *))
 0002:80243150       Spine::Spine((void *,Nerve const *,Nerve const *))
 0002:802431D0       Spine::update((void))
 0002:80243230       Spine::setNerve((Nerve const *))
 0002:802432A0       Spine::getCurrentNerve(const(void))
 0002:802432C0       Spine::changeNerve((void))
 0002:80243330       SpotMarkLight::SpotMarkLight((LiveActor *,float,float,float *[4]))
 0002:80243510       SpotMarkLight::calcAndSetBaseMtx((void))
 0002:802437D0       nullsub_29
 0002:80245E80       BezierRail::BezierRail((JMapInfoIter const &,JMapInfo const *))
 0002:802460A0       BezierRail::normalizePos(const(float,int))
 0002:80246160       BezierRail::getTotalLength(const(void))
 0002:80246180       BezierRail::getPartLength(const(int))
 0002:80246190       calcPos__10BezierRailCFPQ29JGeometry8TVec3_f_f
 0002:802461E0       calcDirection__10BezierRailCFPQ29JGeometry8TVec3_f_f
 0002:80246430       BezierRail::getRailPosCoord(const(int))
 0002:80246480       BezierRail::calcCurrentRailCtrlPointIter(const(JMapInfoIter *,float,bool))
 0002:802565B0       nullsub_86
 0002:8025C110       nullsub_110
 0002:80266720       RailPart::RailPart((void))
 0002:80266730       init__8RailPartFRCQ29JGeometry8TVec3_f_RCQ29JGeometry8TVec3_f_RCQ29JGeometry8TVec3_f_RCQ29JGeometry8TVec3_f_
 0002:80266960       RailPart::getTotalLength(const(void))
 0002:8026A430       StageSwitchCtrl::onSwitchDead((void))
 0002:8026A450       StageSwitchCtrl::isValidSwitchDead(const(void))
 0002:8026A7E0       MR::createStageSwitchCtrl((NameObj *,JMapInfoIter const &))
 0002:8026F7E0       nullsub_85
 0002:8026F7F0       nullsub_84
 0002:8026F800       nullsub_83
 0002:802B2FA0       nullsub_87
 0002:802CAAD0       nullsub_90
 0002:802CF650       nullsub_102
 0002:802D339C       def_802D31A0
 0002:802E89B0       nullsub_88
 0002:802E89E0       nullsub_89
 0002:802EC260       MR::validateCollisionParts((LiveActor *))
 0002:802EEDF0       nullsub_111
 0002:802FDE20       nullsub_91
 0002:802FE400       nullsub_93
 0002:802FE410       nullsub_92
 0002:802FE8D0       nullsub_94
 0002:802FE8E0       nullsub_95
 0002:80327150       nullsub_96
 0002:8032FF80       nullsub_97
 0002:80333400       nullsub_98
 0002:80333410       nullsub_99
 0002:80339610       NameObj::NameObj((char const *))
 0002:80339680       NameObj::~NameObj((void))
 0002:803396C0       NameObj::init((JMapInfoIter const &))
 0002:803396D0       NameObj::initAfterPlacement((void))
 0002:803396E0       NameObj::movement((void))
 0002:803396F0       NameObj::draw(const(void))
 0002:80339700       NameObj::calcAnim((void))
 0002:80339710       NameObj::calcViewAndEntry((void))
 0002:80339720       NameObj::initWithoutIter((void))
 0002:80339760       NameObj::setName((char const *))
 0002:80339780       NameObj::executeMovement((void))
 0002:803397A0       nullsub_118
 0002:803397B0       NameObj::requestSuspend((void))
 0002:803397E0       NameObj::requestResume((void))
 0002:80339810       NameObj::syncWithFlags((void))
 0002:80339860       NameObjFunction::requestMovementOn((NameObj *))
 0002:803398B0       NameObjFunction::requestMovementOff((NameObj *))
 0002:80339900       NameObjAdaptor::NameObjAdaptor((char const *))
 0002:80339950       NameObjAdaptor::~NameObjAdaptor((void))
 0002:803399E0       NameObjAdaptor::movement((void))
 0002:80339A00       NameObjAdaptor::calcAnim((void))
 0002:80339A20       NameObjAdaptor::calcViewAndEntry((void))
 0002:80339A40       NameObjAdaptor::draw(const(void))
 0002:80339A60       NameObjAdaptor::connectToMovement((MR::FunctorBase const &))
 0002:80339AB0       NameObjAdaptor::connectToCalcAnim((MR::FunctorBase const &))
 0002:80339B00       NameObjAdaptor::connectToDraw((MR::FunctorBase const &))
 0002:8033A120       __cl__Q233_unnamed_NameObjCategoryList_cpp_40NameObjRealDelegator_M7NameObjFPCvPCv_v_FP7NameObj
 0002:8033ADA0       MR::registerNameObjToExecuteHolder((NameObj *,int,int,int,int))
 0002:8033AE40       MR::connectToSceneTemporarily((NameObj *))
 0002:8033AE80       MR::disconnectToSceneTemporarily((NameObj *))
 0002:8033AEC0       MR::connectToDrawTemporarily((NameObj *))
 0002:8033AF00       MR::disconnectToDrawTemporarily((NameObj *))
 0002:8033B130       NameObjExecuteHolder::~NameObjExecuteHolder((void))
 0002:8033CBF0       createNameObj_7BombHei___28_unnamed_NameObjFactory_cpp_FPCc_P7NameObj
 0002:80343440       NameObjHolder::NameObjHolder((int))
 0002:80343E20       NameObjRegister::setCurrentHolder((NameObjHolder *))
 0002:80343E30       NameObjRegister::add((NameObj *))
 0002:80343E40       NameObjRegister::NameObjRegister((void))
 0002:8034B738       def_8034B6D4
 0002:8034CAEC       def_8034C914
 0002:80351700       nullsub_33
 0002:80353FCC       def_80353EBC
 0002:80354128       def_80354020
 0002:80357F40       def_80357DF8
 0002:80378980       nullsub_34
 0002:8037B134       def_8037B034
 0002:8037B388       def_8037B298
 0002:8037B720       def_8037B690
 0002:80381930       nullsub_100
 0002:80393764       def_803934B0
 0002:80393B00       def_80393ADC
 0002:8039D540       nullsub_16
 0002:803A06C0       def_803A0608
 0002:803B6FA0       def_803B6DE8
 0002:803BC40C       def_803BC344
 0002:803BD054       def_803BCFD8
 0002:803BDDE8       def_803BDCFC
 0002:803C3E34       def_803C3E10
 0002:803C40CC       def_803C4084
 0002:803C6FF0       def_803C6E74
 0002:803C7E0C       def_803C761C
 0002:803CB4EC       def_803CB324
 0002:803CBA78       def_803CB594
 0002:803D6904       def_803D68D4
 0002:803EE520       nullsub_32
 0002:803EF718       def_803EF6D4
 0002:803EF7B0       def_803EF79C
 0002:80416FC0       LiveActor::makeActorDead((void))
 0002:8043CDE0       MR::showModel((LiveActor *))
 0002:804530F0       NerveExecutor::updateNerve((void))
 0002:80453F70       ScenarioSelectScene::ScenarioSelectScene((void))
 0002:804551B0       MR::startBtp((LiveActor const *,char const *))
 0002:804551C0       MR::startBva((LiveActor const *,char const *))
 0002:804569F0       PlayTimerScene::PlayTimerScene((void))
 0002:80458A50       MR::createScene((char const *))
 0002:80459000       nullsub_36
 0002:80459820       MR::notifyRequestNameObjMovementOnOff((void))
 0002:80459A00       SceneObjHolder::getObj(const(int))
 0002:8045A918       def_80459A64
 0002:8045A970       MR::getSceneObjHolder((void))
 0002:8045B9C0       StageDataHolder::getCommonPathPointInfoFromRailDataIndex(const(JMapInfo const **,int))
 0002:8045BB90       StageDataHolder::getCurrentStartCameraId(const(void))
 0002:8045BBE0       StageDataHolder::getStartCameraIdInfoFromStartDataIndex(const(JMapIdInfo *,int))
 0002:8045BFB0       StageDataHolder::findPlacedStageDataHolder(const(JMapInfoIter const &))
 0002:8045C0B0       StageDataHolder::getStageDataHolderFromZoneId((int))
 0002:8045CC10       MR::getStageDataHolder((void))
 0002:8045EE90       BatteryInfo::exeLowHide((void))
 0002:80465360       NerveExecutor::updateNerve((void))
 0002:8046C2C0       LayoutActor::kill((void))
 0002:8046D130       LayoutActor::kill((void))
 0002:80474D70       HomeButtonLayout::HomeButtonLayout((void))
 0002:80479B90       def_80479B20
 0002:8047A210       nullsub_101
 0002:8047A220       LayoutActor::LayoutActor((char const *,bool))
 0002:8047A330       LayoutActor::calcAnim((void))
 0002:8047A3B0       LayoutActor::appear((void))
 0002:8047A3D0       LayoutActor::kill((void))
 0002:8047A420       LayoutActor::setNerve(const(Nerve const *))
 0002:8047A430       LayoutActor::isNerve(const(Nerve const *))
 0002:8047A470       LayoutActor::getNerveStep(const(void))
 0002:8047A480       LayoutActor::getTrans(const(void))
 0002:8047A560       LayoutActor::initLayoutManager((char const *,ulong))
 0002:8047A840       LayoutActorFlag::LayoutActorFlag((void))
 0002:8047B370       convertLayoutPosToScreenPos__2MRFPQ29JGeometry8TVec2_f_RCQ29JGeometry8TVec2_f_
 0002:8047D4A0       LayoutHolder::isExistResOther(const(char const *))
 0002:8047D4B0       LayoutHolder::getResOther(const(ulong))
 0002:8047D4C0       LayoutHolder::getResOtherNum(const(void))
 0002:80486550       nullsub_17
 0002:80486750       nullsub_103
 0002:804868C0       nullsub_104
 0002:8048CF20       SaveIcon::SaveIcon((LayoutActor const *))
 0002:8048CF90       SaveIcon::appear((void))
 0002:8048CFD0       SaveIcon::calcAnim((void))
 0002:8048D010       SaveIcon::~SaveIcon((void))
 0002:80491AE0       ScreenPreserver::captureIfAllow((void))
 0002:80491B10       nullsub_121
 0002:80491B40       nullsub_122
 0002:8049A0B0       StarPointerDirector::StarPointerDirector((void))
 0002:8049A400       StarPointerDirector::draw((void))
 0002:8049D050       def_8049CF30
 0002:8049D2E4       def_8049D1AC
 0002:8049D8AC       def_8049D7B0
 0002:8049E6B4       def_8049E644
 0002:804A2EC0       MR::createSysInfoWindowExecuteWithChildren((void))
 0002:804A2F20       MR::createSysInfoWindowMiniExecuteWithChildren((void))
 0002:804A3090       SystemWipeHolder::SystemWipeHolder((void))
 0002:804A30E0       SystemWipeHolder::init((JMapInfoIter const &))
 0002:804A3230       SystemWipeHolder::movement((void))
 0002:804A3370       SystemWipeHolder::calcAnim((void))
 0002:804A3410       SystemWipeHolder::draw(const(void))
 0002:804A36B0       MR::createSystemWipeHolder((void))
 0002:804A3700       SystemWipeHolder::~SystemWipeHolder((void))
 0002:804A6D60       WipeHolderBase::WipeHolderBase((ulong,char const *))
 0002:804A6DD0       WipeHolderBase::setCurrent((char const *))
 0002:804A6E70       WipeHolderBase::wipe((char const *,long))
 0002:804A6ED0       WipeHolderBase::forceClose((char const *))
 0002:804A6F20       WipeHolderBase::forceOpen((char const *))
 0002:804A6F70       WipeHolderBase::isOpen(const(void))
 0002:804A6F90       WipeHolderBase::isClose(const(void))
 0002:804A6FB0       WipeHolderBase::isWipeIn(const(void))
 0002:804A6FD0       WipeHolderBase::isWipeOut(const(void))
 0002:804A6FF0       WipeHolderBase::isCurrent(const(char const *))
 0002:804A7040       WipeHolderBase::addWipeLayout((WipeLayoutBase *))
 0002:804A70B0       WipeHolderBase::updateWipe((char const *))
 0002:804A7120       WipeHolderBase::findWipe(const(char const *))
 0002:804AC200       SpkSystem::connect((long))
 0002:804AC210       SpkSystem::disconnect((long))
 0002:804AC270       SpkSystem::extensionProcess((long,long))
 0002:804AE340       AudSystemWrapper::isLoadDoneWaveDataAtSystemInit(const(void))
 0002:804B0AA0       DrawSyncManager::start((ulong,long))
 0002:804B0B30       DrawSyncManager::resetIfAborted((void))
 0002:804B1F00       FileRipper::setup((ulong,JKRHeap *))
 0002:804B2640       FunctionAsyncExecInfo::FunctionAsyncExecInfo((MR::FunctorBase *,int,char const *))
 0002:804B26F0       FunctionAsyncExecInfo::execute((void))
 0002:804B2760       FunctionAsyncExecutorThread::FunctionAsyncExecutorThread((JKRHeap *))
 0002:804B27C0       FunctionAsyncExecutorThread::run((void))
 0002:804B2860       FunctionAsyncExecutorOnMainThread::FunctionAsyncExecutorOnMainThread((OSThread *))
 0002:804B2930       FunctionAsyncExecutor::FunctionAsyncExecutor((void))
 0002:804B2E50       FunctionAsyncExecutor::getSuspendThread((void))
 0002:804B2E90       FunctionAsyncExecutorThread::~FunctionAsyncExecutorThread((void))
 0002:804B2EF0       SaveDataHandleSequence::SaveDataHandleSequence((void))
 0002:804B63D0       main
 0002:804B64D0       GameSystem::GameSystem((void))
 0002:804B6550       GameSystem::init((void))
 0002:804B66F0       GameSystem::isExecuteLoadSystemArchive(const(void))
 0002:804B6700       GameSystem::isDoneLoadSystemArchive(const(void))
 0002:804B6710       GameSystem::startToLoadSystemArchive((void))
 0002:804B6770       GameSystem::exeInitializeAudio((void))
 0002:804B6860       GameSystem::exeInitializeLogoScene((void))
 0002:804B68D0       GameSystem::exeLoadStationedArchive((void))
 0002:804B6940       GameSystem::initGX((void))
 0002:804B6990       GameSystem::initAfterStationedResourceLoaded((void))
 0002:804B6A00       GameSystem::prepareReset((void))
 0002:804B6A70       GameSystem::frameLoop((void))
 0002:804B6AE0       GameSystem::draw((void))
 0002:804B6BA0       GameSystem::update((void))
 0002:804B6C70       GameSystem::updateSceneController((void))
 0002:804B6D50       GameSystem::calcAnim((void))
 0002:804B6DA0       GameSystem::~GameSystem((void))
 0002:804B7280       GameSystemDimmingWatcher::GameSystemDimmingWatcher((void))
 0002:804B7370       GameSystemErrorWatcher::GameSystemErrorWatcher((void))
 0002:804B7440       GameSystemErrorWatcher::initAfterResourceLoaded((void))
 0002:804B7C80       GameSystemException::init((void))
 0002:804B7E70       GameSystemFontHolder::GameSystemFontHolder((void))
 0002:804B7EA0       GameSystemFontHolder::createFontFromEmbeddedData((void))
 0002:804B7FA0       GameSystemFontHolder::createFontFromFile((void))
 0002:804B8290       GameSystemFontHolder::getMessageFont(const(void))
 0002:804B82B0       GameSystemFrameControl::GameSystemFrameControl((void))
 0002:804B82F0       GameSystemFrameControl::setMovement60fps((void))
 0002:804B8350       getLogoScene__32_unnamed_GameSystemFunction_cpp_Fv
 0002:804B8370       getAudSystemWrapper__32_unnamed_GameSystemFunction_cpp_Fv
 0002:804B86C0       GameSystemFunction::isResetProcessing((void))
 0002:804B8D90       GameSystemObjHolder::GameSystemObjHolder((void))
 0002:804B8E40       GameSystemObjHolder::init((void))
 0002:804B8EE0       nullsub_119
 0002:804B8FA0       GameSystemObjHolder::initAfterStationedResourceLoaded((void))
 0002:804B9060       GameSystemObjHolder::drawStarPointer((void))
 0002:804B9070       GameSystemObjHolder::drawBeforeEndRender((void))
 0002:804B9090       GameSystemObjHolder::captureIfAllowForScreenPreserver((void))
 0002:804B90A0       GameSystemObjHolder::getRenderModeObj(const(void))
 0002:804B9140       GameSystemObjHolder::initAudio((void))
 0002:804B91C0       GameSystemObjHolder::initRenderMode((void))
 0002:804B92A0       GameSystemObjHolder::initNameObj((void))
 0002:804B9320       GameSystemObjHolder::initMessageResource((void))
 0002:804B9400       GameSystemObjHolder::initResourceHolderManager((void))
 0002:804B9440       GameSystemObjHolder::initGameController((void))
 0002:804B94A0       GameSystemObjHolder::initDisplay((void))
 0002:804B9E10       GameSystemResetAndPowerProcess::GameSystemResetAndPowerProcess((void))
 0002:804BA120       GameSystemSceneController::GameSystemSceneController((void))
 0002:804BA780       GameSystemSceneController::drawScene((void))
 0002:804BB8E0       GameSystemStationedArchiveLoader::GameSystemStationedArchiveLoader((void))
 0002:804BB940       GameSystemStationedArchiveLoader::update((void))
 0002:804BB950       GameSystemStationedArchiveLoader::isDone(const(void))
 0002:804BBA10       GameSystemStationedArchiveLoader::prepareReset((void))
 0002:804BCC10       HeapMemoryWatcher::setCurrentHeapToStationedHeap((void))
 0002:804BCDA0       HeapMemoryWatcher::createRootHeap((void))
 0002:804BCE40       HeapMemoryWatcher::createHeaps((void))
 0002:804BCF90       HeapMemoryWatcher::HeapMemoryWatcher((void))
 0002:804BD010       HeapMemoryWatcher::memoryErrorCallback((void *,ulong,int))
 0002:804BD030       nullsub_42
 0002:804BD040       RSO::setupRsoHomeButtonMenu((void))
 0002:804BD160       RSO::HBMCreate((HBMDataInfo const *))
 0002:804BD1D0       HeapMemoryWatcher::checkRestMemory((void))
 0002:804BD1E0       MR::getDecidedLanguageFromIPL((void))
 0002:804BD230       MR::getLanguage((void))
 0002:804BD240       MR::getLanguageFromIPL((void))
 0002:804BD270       MR::getCurrentLanguagePrefix((void))
 0002:804BD2D0       MR::getCurrentRegionPrefix((void))
 0002:804BD390       MR::getLanguageNum((void))
 0002:804BD3A0       MR::getLanguagePrefixByIndex((ulong))
 0002:804BD3C0       LayoutHolder::LayoutHolder((JKRArchive &))
 0002:804BD430       LayoutHolder::~LayoutHolder((void))
 0002:804BD490       LayoutHolder::GetResource((ulong,char const *,ulong *))
 0002:804BD560       LayoutHolder::GetFont((char const *))
 0002:804BD650       LayoutHolder::isAnimationHashEqual(const(ulong,ulong))
 0002:804BD6A0       LayoutHolder::initializeArc((void))
 0002:804BD770       LayoutHolder::initEachResTable((ResTable *,char const *const *))
 0002:804BD8F0       LayoutHolder::mount((char *))
 0002:804BDAD0       LayoutHolder::getResOtherName(const(ulong))
 0002:804BDBF0       MainLoopFramework::~MainLoopFramework((void))
 0002:804BDD90       MainLoopFramework::prepareCopyDisp((void))
 0002:804BDE90       MainLoopFramework::drawendXfb_single((void))
 0002:804BE0B0       MainLoopFramework::copyXfb_triple((void))
 0002:804BE120       MainLoopFramework::preGX((void))
 0002:804BE280       MainLoopFramework::waitForRetrace((void))
 0002:804BE2C0       MainLoopFramework::beginRender((void))
 0002:804BE3F0       MainLoopFramework::endRender((void))
 0002:804BE460       MainLoopFramework::endFrame((void))
 0002:804BE550       MainLoopFramework::setTickRateFromFrame((ushort))
 0002:804BE5B0       MainLoopFramework::clearEfb((_GXColor))
 0002:804BE600       MainLoopFramework::clearEfb((int,int,int,int,_GXColor))
 0002:804BE970       MainLoopFramework::calcCombinationRatio((void))
 0002:804BEA00       MainLoopFramework::frameToTick((float))
 0002:804BEA60       MainLoopFramework::setForOSResetSystem((void))
 0002:804BEAE0       waitForTick__31_unnamed_MainLoopFramework_cpp_FUlUs
 0002:804BEC10       waitDrawDoneAndSetAlarm__31_unnamed_MainLoopFramework_cpp_Fv
 0002:804BED20       __dt__Q22MR37BothDirLink_22MainLoopFrameworkAlarm_Fv
 0002:804BED80       handleGXAbortAlarm__31_unnamed_MainLoopFramework_cpp_FP7OSAlarmP9OSContext
 0002:804C32A0       nullsub_129
 0002:804C3390       NANDErrorSequence::NANDErrorSequence((SaveDataHandleSequence *,SysInfoWindow *,SysInfoWindow *))
 0002:804C3590       NANDErrorSequence::tryLessBlockOrInode((ulong))
 0002:804C4710       NANDResultCode::getCode(const(void))
 0002:804C4720       NANDResultCode::isSuccess(const(void))
 0002:804C4730       NANDResultCode::isSaveDataCorrupted(const(void))
 0002:804C4750       NANDResultCode::isNANDCorrupted(const(void))
 0002:804C4770       NANDResultCode::isMaxBlocks(const(void))
 0002:804C4790       NANDResultCode::isMaxFiles(const(void))
 0002:804C47B0       NANDResultCode::isNoExistFile(const(void))
 0002:804C47D0       NANDResultCode::isBusyOrAllocFailed(const(void))
 0002:804C47F0       NANDResultCode::isUnknown(const(void))
 0002:804C4810       MR::addRequestToNANDManager((NANDRequestInfo *))
 0002:804C4820       NANDManagerThread::NANDManagerThread((int,int,JKRHeap *))
 0002:804C4BB0       NerveExecutor::NerveExecutor((char const *))
 0002:804C4BD0       NerveExecutor::~NerveExecutor((void))
 0002:804C4C40       NerveExecutor::initNerve((Nerve const *))
 0002:804C4CA0       NerveExecutor::updateNerve((void))
 0002:804C4CC0       NerveExecutor::setNerve((Nerve const *))
 0002:804C4CD0       NerveExecutor::isNerve(const(Nerve const *))
 0002:804C4D10       NerveExecutor::getNerveStep(const(void))
 0002:804C4D20       OSThreadWrapper::OSThreadWrapper((ulong,int,int,JKRHeap *))
 0002:804C4DA0       OSThreadWrapper::~OSThreadWrapper((void))
 0002:804C5140       JKRExpHeap::adjustSize((void))
 0002:804C52B0       JKRHeap::getMaxAllocatableSize((int))
 0002:804C54C0       PSMTXRotRad
 0002:804C5720       nullsub_43
 0002:804C9810       MR::getSuitableRenderMode((void))
 0002:804C9920       MR::isAspectRatioFlag16Per9((void))
 0002:804C9950       MR::getRequiredExternalFrameBufferSize((void))
 0002:804C9960       RenderModeObj::getViWidthMax((void))
 0002:804CADE0       __dt__Q235_unnamed_ResourceHolderManager_cpp_17GDCurrentRestorerFv
 0002:804CAE30       ResourceHolderManager::createLayoutHolder((char const *,CreateResourceHolderArgs *))
 0002:804CB190       ResTable::ResTable((void))
 0002:804CB1A0       ResTable::newFileInfoTable((ulong))
 0002:804CB200       ResTable::add((char const *,void *,bool))
 0002:804CB270       ResTable::getResName(const(ulong))
 0002:804CB2A0       ResTable::getRes(const(char const *))
 0002:804CB2B0       ResTable::findFileInfo(const(char const *))
 0002:804CB300       ResTable::getFileInfo(const(ulong))
 0002:804CB310       ResTable::isExistRes(const(char const *))
 0002:804CCB10       StarPointerOnOffController::decModeCounter((void *))
 0002:804CD7A0       StarPointerOnOffController::updateMode((void))
 0002:804CD978       def_804CD82C
 0002:804CDAD0       StarPointerOnOffController::decModeCounter((void *))
 0002:804CDB80       StarPointerOnOffController::~StarPointerOnOffController((void))
 0002:804CDBE0       StationedArchiveLoader::Condition::~Condition((void))
 0002:804CDC20       StationedArchiveLoader::Condition::getProperHeap(const(MR::StationedFileInfo const *))
 0002:804CDC30       StationedArchiveLoader::getProperHeap((MR::StationedFileInfo const *))
 0002:804CDC60       StationedArchiveLoader::loadResourcesFromTable((StationedArchiveLoader::Condition const &))
 0002:804CDD40       StationedArchiveLoader::loadScenarioData((JKRHeap *))
 0002:804CDF70       MR::getStationedFileInfoTable((void))
 0002:804CDF80       WPad::WPad((long))
 0002:804CE150       WPad::setReadInfo((WPadReadDataInfo *))
 0002:804CE160       WPad::update((void))
 0002:804CE240       WPad::getRumbleInstance(const(void))
 0002:804CE250       WPad::startLeaveWatcher((void))
 0002:804CE260       WPad::getBattery(const(void))
 0002:804CE270       WPad::connected((void))
 0002:804CE2C0       WPad::disconnected((void))
 0002:804CE310       WPad::connectCallback((long,long))
 0002:804CE370       WPad::extensionCallback((long,long))
 0002:804CE3F0       WPad::getInfoCallback((long,long))
 0002:804CE420       MR::isDeviceFreeStyle((KPADStatus const *))
 0002:804CE600       WPad::getKPadStatus(const(ulong))
 0002:804CE610       WPad::getValidStatusCount(const(void))
 0002:804CE620       WPad::getEnableAccelPastCount(const(ulong))
 0002:804CE640       getAcceleration__4WPadCFPQ29JGeometry8TVec3_f_Ul
 0002:804CE660       getPastAcceleration__4WPadCFPQ29JGeometry8TVec3_f_lUl
 0002:804CE680       WPadAcceleration::WPadAcceleration((WPad const *,ulong))
 0002:804CE750       getAcceleration__16WPadAccelerationCFPQ29JGeometry8TVec3_f_
 0002:804CE7B0       getPastAcceleration__16WPadAccelerationCFPQ29JGeometry8TVec3_f_l
 0002:804CE820       WPadAcceleration::isStationary(const(void))
 0002:804CE830       WPadAcceleration::isBalanced(const(void))
 0002:804CE850       WPadAcceleration::update((void))
 0002:804CEE40       WPadButton::WPadButton((WPad const *))
 0002:804CEEA0       WPadButton::update((void))
 0002:804CF0E0       WPadButton::isChangeAnyState(const(void))
 0002:804CF130       WPadHVSwing::WPadHVSwing((WPad const *,ulong))
 0002:804CF180       WPadHVSwing::updateSwing((void))
 0002:804CF290       WPadHVSwing::updateCentrifugal((void))
 0002:804CF430       WPadHVSwing::update((void))
 0002:804CF550       WPadReadDataInfo::getKPadStatus(const(ulong))
 0002:804CF590       WPadReadDataInfo::getValidStatusCount(const(void))
 0002:804CF720       WPadHolder::WPadHolder((void))
 0002:804CFB50       WPadHolder::getWPad((long))
 0002:804CFC40       getWPadHolder__24_unnamed_WPadHolder_cpp_Fv
 0002:804CFC50       MR::getWPad((long))
 0002:804CFDF0       WPadInfoChecker::WPadInfoChecker((WPad *))
 0002:804CFE10       WPadInfoChecker::getBattery(const(void))
 0002:804CFE20       WPadInfoChecker::successGetInfo((void))
 0002:804CFE30       WPadInfoChecker::startCheck((void))
 0002:804CFE80       WPadInfoChecker::reset((void))
 0002:804CFEA0       WPadInfoChecker::update((void))
 0002:804CFEE0       WPadLeaveWatcher::WPadLeaveWatcher((WPad *))
 0002:804CFF00       WPadLeaveWatcher::update((void))
 0002:804CFFF0       WPadLeaveWatcher::start((void))
 0002:804D0010       WPadPointer::WPadPointer((WPad const *))
 0002:804D00E0       WPadPointer::reset((void))
 0002:804D01C0       WPadPointer::update((void))
 0002:804D03A0       getPointingPos__11WPadPointerCFPQ29JGeometry8TVec2_f_
 0002:804D0450       WPadPointer::getEnablePastCount(const(void))
 0002:804D0460       getPointingPosBasedOnScreen__11WPadPointerCFPQ29JGeometry8TVec2_f_
 0002:804D0510       RumbleChannel::clear((void))
 0002:804D0530       RumbleChannel::update((void))
 0002:804D05A0       RumbleChannel::setPattern((void const *,RumblePattern const &,ulong,bool))
 0002:804D05C0       WPadRumble::WPadRumble((WPad *))
 0002:804D0740       WPadRumble::registInstance((void))
 0002:804D0780       WPadRumble::stop((void))
 0002:804D07F0       WPadRumble::update((void))
 0002:804D09B0       WPadRumble::getRumbleInstance(const(void))
 0002:804D0D20       nullsub_1
 0002:804D0D30       WPadStick::WPadStick((WPad const *))
 0002:804D0D70       WPadStick::update((void))
 0002:804D0F90       WPadStick::isChanged(const(void))
 0002:804D3920       nullsub_18
 0002:804D57F0       GameSequenceDirector::GameSequenceDirector((void))
 0002:804D5980       GameSequenceDirector::draw(const(void))
 0002:804D8560       MR::requestChangeScene((char const *))
 0002:804DB340       SaveDataHandler::SaveDataHandler((SysConfigFile const *,UserFile const *))
 0002:804DC310       nullsub_105
 0002:804DEF40       SysConfigFile::SysConfigFile((void))
 0002:804DEFE0       UserFile::UserFile((void))
 0002:804E0690       nullsub_44
 0002:804EF760       NerveExecutor::updateNerve((void))
 0002:804FE6E0       NWC24Messenger::NWC24Messenger((char const *))
 0002:804FE7C0       NWC24MessengerSub::SendTask::SendTask((void))
 0002:804FEC60       NWC24MessengerSub::SendState::SendState((NWC24Messenger *))
 0002:804FF4A4       def_804FF458
 0002:80500640       NWC24System::NWC24System((JKRHeap *,long))
 0002:805012E0       JKRHeap::becomeCurrentHeap((void))
 0002:80501310       JKRHeap::alloc((ulong,int,JKRHeap *))
 0002:80501360       JKRHeap::free((void *,JKRHeap *))
 0002:805017E0       JKRHeap::copyMemory((void *,void *,ulong))
 0002:80501810       JKRDefaultMemoryErrorRoutine(void *,ulong,int)
 0002:80501830       JKRHeap::setErrorHandler((void (*)(void *,ulong,int)))
 0002:80501850       __nw(ulong)
 0002:80501860       __nw(ulong,JKRHeap *,int)
 0002:80501870       __nwa(ulong)
 0002:80501880       __nwa(ulong,int)
 0002:80501890       __nwa(ulong,JKRHeap *,int)
 0002:805018A0       __dl(void *)
 0002:805018B0       __dla(void *)
 0002:805018C0       JKRHeap::state_register(const(JKRHeap::TState *,ulong))
 0002:805018D0       JKRHeap::state_compare(const(JKRHeap::TState const &,JKRHeap::TState const &))
 0002:805018F0       JKRHeap::state_dump(const(JKRHeap::TState const &))
 0002:80501900       JKRHeap::setAltAramStartAdr((ulong))
 0002:80501910       JKRHeap::getAltAramStartAdr((void))
 0002:80501A70       JKRExpHeap::create((ulong,JKRHeap *,bool))
 0002:80501C90       JKRExpHeap::JKRExpHeap((void *,ulong,JKRHeap *,bool))
 0002:80503F00       JKRUnitHeap::create((ulong,ulong,ulong,JKRHeap *,bool))
 0002:80505280       JKRAram::create((ulong,ulong,long,long,long))
 0002:805057D0       JKRAram::aramToMainRam((ulong,uchar *,ulong,JKRExpandSwitch,ulong,JKRHeap *,int,ulong *))
 0002:80507E60       JKRArchive::countResource(const(void))
 0002:805093F0       JKRAramArchive::fetchResource((JKRArchive::SDIFileEntry *,ulong *))
 0002:805094F0       JKRConvertAttrToCompressionType(int)
 0002:80509510       JKRAramArchive::fetchResource((void *,ulong,JKRArchive::SDIFileEntry *,ulong *))
 0002:80509600       JKRAramArchive::fetchResource_subroutine((ulong,ulong,uchar *,ulong,int))
 0002:805096C0       JKRAramArchive::fetchResource_subroutine((ulong,ulong,JKRHeap *,int,uchar **))
 0002:8050ABB0       JKRCompArchive::fetchResource((JKRArchive::SDIFileEntry *,ulong *))
 0002:8050F080       JUTNameTab::getIndex(const(char const *))
 0002:8050F120       JUTNameTab::getName(const(ushort))
 0002:8050F7D0       JUTException::panic_f((char const *,int,char const *,...))
 0002:80510810       JUTException::waitTime((long))
 0002:805113C0       nullsub_2
 0002:805116D0       JUTVideo::createManager((_GXRenderModeObj const *))
 0002:80511730       JUTVideo::destroyManager((void))
 0002:80511C50       nullsub_3
 0002:80518318       def_805181F8
 0002:805185D8       def_80518520
 0002:8051BC70       J3DShapePacket::prepareDraw(const(void))
 0002:8051C334       def_8051C150
 0002:8051C61C       def_8051C3EC
 0002:80525B98       def_80525AA0
 0002:80525D04       def_80525C70
 0002:80525E60       def_80525DD8
 0002:80525F8C       def_80525F28
 0002:80528434       def_805281D4
 0002:80528790       def_805284C4
 0002:80536180       nullsub_106
 0002:80536310       nullsub_107
 0002:8053A900       JMAVECScaleAdd(Vec const *,Vec const *,Vec *,float)
 0002:8053A930       JMAVECLerp(Vec const *,Vec const *,Vec *,float)
 0002:8053A960       JMAMTXApplyScale(float const *[4],float *[4],float,float,float)
 0002:8053A9B0       JMath::TRandom_fast_::TRandom_fast_((ulong))
 0002:8053A9C0       atan2___Q25JMath18TAtanTable_1024_f_CFff
 0002:8053AAD0       get___Q25JMath18TAtanTable_1024_f_CFff
 0002:8053AB20       __sinit__JMATrigonometric_cpp
 0002:8053AB60       __ct__Q25JMath18TSinCosTable_14_f_Fv
 0002:8053AC70       __ct__Q25JMath18TAtanTable_1024_f_Fv
 0002:8053AD30       __ct__Q25JMath22TAsinAcosTable_1024_f_Fv
 0002:8053C094       def_8053BFB4
 0002:8053C3F0       def_8053C310
 0002:8053D644       def_8053D5C0
 0002:8053EAD0       nullsub_45
 0002:8054198C       def_805417FC
 0002:805443C4       def_805441F8
 0002:80544C88       def_80544BD0
 0002:80548E50       def_80548928
 0002:8054FE20       nullsub_37
 0002:8054FE30       nullsub_38
 0002:8054FE40       nullsub_39
 0002:8054FE50       RSONotifyPreRSOLinkFar
 0002:8054FE60       RSONotifyPostRSOLinkFar
 0002:80550630       FindExportIndex
 0002:80550830       RSOFindExportSymbolAddr
 0002:80550CA0       RSOListInit
 0002:80550DF0       RSOLinkList
 0002:80550E00       cnvJumpCode
 0002:80550F10       RSOGetJumpCodeSize
 0002:80550F20       RSOMakeJumpCode
 0002:805510D0       RSOLinkJump
 0002:805511E0       RFLGetWorkSize
 0002:80551200       RFLInitResAsync
 0002:805515A0       RFLExit
 0002:80551730       bootloadDB2Res_
 0002:80551960       RFLAvailable
 0002:80551980       RFLiAlloc32
 0002:805519A0       RFLiFree
 0002:805519B0       RFLiGetDBManager
 0002:805519D0       RFLiGetHDBManager
 0002:805519F0       RFLiGetLoader
 0002:80551A10       RFLiGetWorking
 0002:80551A30       RFLiSetWorking
 0002:80551A40       RFLiGetManager
 0002:80551A50       RFLGetAsyncStatus
 0002:80551B60       RFLiGetUseDeluxTex
 0002:80551B80       RFLiGetLastReason
 0002:80551BA0       RFLiSetFileBroken
 0002:80551C10       RFLiInitLoader
 0002:80552BF0       RFLFreeCachedResource
 0002:80552C60       RFLIsResourceCached
 0002:80552CB0       RFLiInitAccessInfo
 0002:80552D30       RFLiExitAccessInfo
 0002:80552D80       RFLiIsWorking
 0002:80552D90       RFLiStartWorking
 0002:80553058       def_80552EB4
 0002:80554090       RFLiCloseAsync
 0002:80556400       RFLSetModelDrawDoneCallback
 0002:80559190       RFLSetIconDrawDoneCallback
 0002:805591C0       RFLiInitHiddenDatabase
 0002:80559200       RFLiInitDatabase
 0002:80559270       bootloadCheckCRCCb_
 0002:805592E0       bootloadDBcallback_
 0002:80559520       RFLiBootLoadDatabaseAsync
 0002:8055A0A0       alarmCheckCb_
 0002:8055A250       RFLiInitCtrlBuf
 0002:8055AF00       RFLiClearDBBuffer
 0002:8055AFBC       NETGetUniversalCalendar
 0002:8055B0A0       NETGetRexPPCVersionPrintable
 0002:8055B0A8       NETMemCpy
 0002:8055B468       NETMemSet
 0002:8055B56C       Mail_strcpy
 0002:8055B59C       Mail_strlen
 0002:8055B5C0       STD_strnlen
 0002:8055B5F0       Mail_memcpy
 0002:8055B5F4       Mail_memset
 0002:8055B5F8       Mail_strcat
 0002:8055B648       Mail_strncat
 0002:8055B6A8       convNum
 0002:8055BC10       Mail_sprintf
 0002:8055BC9C       Mail_vsprintf
 0002:8055C080       def_8055BE04
 0002:8055C15C       NWC24FOpen
 0002:8055C250       NWC24iFOpenNand
 0002:8055C2D0       def_8055C28C
 0002:8055C388       NWC24iFOpenVF
 0002:8055DF14       def_8055DF04
 0002:8055DF9C       NWC24IsMsgLibOpened
 0002:8055DFB0       NWC24IsMsgLibOpenedByTool
 0002:805639E4       NWC24iEpochSecondsToDate
 0002:80563BB4       NWC24iDateToOSCalendarTime
 0002:80564614       NWC24iGetUniversalTime
 0002:80564A10       NWC24iSynchronizeRtcCounter
 0002:8057DD20       nullsub_4
 0002:8057EBD0       def_8057EBC4
 0002:80580D20       nullsub_46
 0002:805833F0       nullsub_5
 0002:80587230       nullsub_47
 0002:80587350       nullsub_48
 0002:80588000       def_80587F58
 0002:80588700       def_80588598
 0002:80589720       def_80589634
 0002:8059D480       nw4r::ut::detail::LinkListImpl::~LinkListImpl((void))
 0002:8059D510       nw4r::ut::detail::LinkListImpl::Erase((nw4r::ut::detail::LinkListImpl::Iterator))
 0002:8059D560       nw4r::ut::detail::LinkListImpl::Insert((nw4r::ut::detail::LinkListImpl::Iterator,nw4r::ut::LinkListNode *))
 0002:8059D590       nw4r::ut::detail::LinkListImpl::Erase((nw4r::ut::LinkListNode *))
 0002:805A4BF0       nw4r::db::Console_Printf((nw4r::db::detail::ConsoleHead *,char const *,...))
 0002:805A4C60       nw4r::db::Console_GetTotalLines((nw4r::db::detail::ConsoleHead *))
 0002:805A67F0       nw4r::db::Assertion_Printf_((char const *,...))
 0002:805A6890       nw4r::db::ShowStack_((ulong))
 0002:805A6A00       nw4r::db::Panic((char const *,int,char const *,...))
 0002:805A6DE0       nw4r::lyt::LytInit((void))
 0002:805A6E40       nw4r::lyt::Pane::Pane((nw4r::lyt::res::Pane const *))
 0002:805A6F70       nw4r::lyt::Pane::~Pane((void))
 0002:805A70B0       nw4r::lyt::Pane::SetName((char const *))
 0002:805A70F0       nw4r::lyt::Pane::AppendChild((nw4r::lyt::Pane *))
 0002:805A7140       nw4r::lyt::Pane::RemoveChild((nw4r::lyt::Pane *))
 0002:805A7180       nw4r::lyt::Pane::GetVtxColor(const(ulong))
 0002:805A7190       nw4r::lyt::Pane::SetVtxColor((ulong,nw4r::ut::Color))
 0002:805A71A0       nw4r::lyt::Pane::GetColorElement(const(ulong))
 0002:805A71C0       nullsub_126
 0002:805A71D0       nw4r::lyt::Pane::SetColorElement((ulong,uchar))
 0002:805A71F0       nullsub_127
 0002:805A7200       nw4r::lyt::Pane::GetVtxColorElement(const(ulong))
 0002:805A7210       nw4r::lyt::Pane::SetVtxColorElement((ulong,uchar))
 0002:805A7220       nw4r::lyt::Pane::FindPaneByName((char const *,bool))
 0002:805A72D0       nw4r::lyt::Pane::FindMaterialByName((char const *,bool))
 0002:805A7390       nw4r::lyt::Pane::CalculateMtx((nw4r::lyt::DrawInfo const &))
 0002:805A7690       nw4r::lyt::Pane::Draw((nw4r::lyt::DrawInfo const &))
 0002:805A7720       nw4r::lyt::Pane::DrawSelf((nw4r::lyt::DrawInfo const &))
 0002:805A7730       nw4r::lyt::Pane::Animate((ulong))
 0002:805A77C0       nw4r::lyt::Pane::AnimateSelf((ulong))
 0002:805A7880       nw4r::lyt::Pane::BindAnimation((nw4r::lyt::AnimTransform *,bool))
 0002:805A78A0       nw4r::lyt::Pane::UnbindAnimation((nw4r::lyt::AnimTransform *,bool))
 0002:805A7930       nw4r::lyt::Pane::UnbindAllAnimation((bool))
 0002:805A7950       nw4r::lyt::Pane::UnbindAnimationSelf((nw4r::lyt::AnimTransform *))
 0002:805A79B0       nw4r::lyt::Pane::AddAnimationLink((nw4r::lyt::AnimationLink *))
 0002:805A79F0       nw4r::lyt::Pane::FindAnimationLinkSelf((nw4r::lyt::AnimTransform *))
 0002:805A7A10       nw4r::lyt::Pane::SetAnimationEnable((nw4r::lyt::AnimTransform *,bool,bool))
 0002:805A7F80       nw4r::lyt::Group::~Group((void))
 0002:805B1D50       FindAnimationLink__Q34nw4r3lyt6detailFPQ34nw4r2ut38LinkList_Q34nw4r3lyt13AnimationLink_0_PQ34nw4r3lyt13AnimTransform
 0002:805B1DD0       UnbindAnimationLink__Q34nw4r3lyt6detailFPQ34nw4r2ut38LinkList_Q34nw4r3lyt13AnimationLink_0_PQ34nw4r3lyt13AnimTransform
 0002:805B1E60       nw4r::lyt::ResourceAccessor::~ResourceAccessor((void))
 0002:805B1EA0       nw4r::lyt::ResourceAccessor::ResourceAccessor((void))
 0002:805B1EC0       nw4r::lyt::detail::EqualsResName((char const *,char const *))
 0002:805B1EF0       nw4r::lyt::detail::EqualsMaterialName((char const *,char const *))
 0002:805B2A90       PPCMfmsr
 0002:805B2AA0       PPCMtmsr
 0002:805B2AB0       PPCMfhid0
 0002:805B2AC0       PPCMthid0
 0002:805B2AD0       PPCMfl2cr
 0002:805B2AE0       PPCMtl2cr
 0002:805B2B00       PPCSync
 0002:805B2B10       PPCHalt
 0002:805B2B90       PPCMffpscr
 0002:805B2BB0       PPCMtfpscr
 0002:805B2BE0       PPCMfhid2
 0002:805B3770       OSInit
 0002:805B40D0       OSRegisterVersion
 0002:805B41F0       OSCreateAlarm
 0002:805B4450       OSSetAlarm
 0002:805B4550       OSCancelAlarm
 0002:805B49A0       OnReset
 0002:805B4A30       OSSetAlarmUserData
 0002:805B4A40       OSGetAlarmUserData
 0002:805B4A50       OSSetAlarmTag
 0002:805B4CC0       OSFreeToHeap
 0002:805B4D50       OSInitAlloc
 0002:805B4DC0       OSCreateHeap
 0002:805B4E50       OSGetArenaHi
 0002:805B4E60       OSGetMEM1ArenaLo
 0002:805B4E70       OSGetMEM2ArenaLo
 0002:805B4E80       OSGetArenaLo
 0002:805B4E90       OSSetMEM1ArenaHi
 0002:805B4EA0       OSSetMEM2ArenaHi
 0002:805B4EB0       OSSetArenaHi
 0002:805B4EC0       OSSetMEM1ArenaLo
 0002:805B4ED0       OSSetMEM2ArenaLo
 0002:805B4EE0       OSSetArenaLo
 0002:805B4EF0       OSAllocFromMEM1ArenaLo
 0002:805B4F30       __AIClockInit
 0002:805B5150       __OSInitAudioSystem
 0002:805B5320       __OSStopAudioSystem
 0002:805B53F0       DCEnable
 0002:805B5410       DCInvalidateRange
 0002:805B5440       DCFlushRange
 0002:805B5530       ICInvalidateRange
 0002:805B5570       ICFlashInvalidate
 0002:805B55D0       DMAErrorHandler
 0002:805B5720       __OSCacheInit
 0002:805B5A70       OSSaveFPUContext
 0002:805B5AE0       OSGetCurrentContext
 0002:805B5AF0       OSSaveContext
 0002:805B5B70       OSLoadContext
 0002:805B5C50       OSGetStackPointer
 0002:805B5C60       OSSwitchFiber
 0002:805B5C90       OSSwitchFiberEx
 0002:805B5CC0       OSClearContext
 0002:805B5CF0       OSInitContext
 0002:805B5DB0       OSDumpContext
 0002:805B6210       OSReport
 0002:805B6290       OSVReport
 0002:805B62A0       OSPanic
 0002:805B63D0       OSSetErrorHandler
 0002:805B6660       __OSUnhandledException
 0002:805B6E60       __OSGetExecParams
 0002:805B6E90       callback
 0002:805B6EA0       __OSLaunchNextFirmware
 0002:805B76A0       __OSLaunchMenu
 0002:805B99D0       OSDisableInterrupts
 0002:805B9A10       OSRestoreInterrupts
 0002:805B9A40       __OSSetInterruptHandler
 0002:805B9DA0       __OSMaskInterrupts
 0002:805B9E20       __OSUnmaskInterrupts
 0002:805BA220       OSSendMessage
 0002:805BA2F0       OSReceiveMessage
 0002:805BA510       MEMIntrruptHandler
 0002:805BA560       OSProtectRange
 0002:805BA630       ConfigMEM1_24MB
 0002:805BA6B0       ConfigMEM1_48MB
 0002:805BA790       ConfigMEM2_52MB
 0002:805BA870       ConfigMEM2_56MB
 0002:805BAD10       OSInitMutex
 0002:805BAD50       OSLockMutex
 0002:805BAE30       OSUnlockMutex
 0002:805BB0C0       OSRegisterShutdownFunction
 0002:805BB890       __OSReturnToMenuForError
 0002:805BC390       __OSClearRTCFlags
 0002:805BC520       nullsub_113
 0002:805BC7C0       OSInitThreadQueue
 0002:805BC7D0       OSGetCurrentThread
 0002:805BC830       OSDisableScheduler
 0002:805BC870       OSEnableScheduler
 0002:805BC8B0       UnsetRun
 0002:805BC920       __OSGetEffectivePriority
 0002:805BC960       SetEffectivePriority
 0002:805BCB10       __OSPromoteThread
 0002:805BCB60       SelectThread
 0002:805BCD90       __OSReschedule
 0002:805BD520       OSResumeThread
 0002:805BD7C0       OSSuspendThread
 0002:805BDC40       SleepAlarmHandler
 0002:805BDCC0       OSSleepTicks
 0002:805BDD70       OSGetTime
 0002:805BDD90       OSGetTick
 0002:805BDDA0       __OSGetSystemTime
 0002:805BDE10       __OSTimeToSystemTime
 0002:805BDE70       OSTicksToCalendarTime
 0002:805BE1A0       OSUTF8to32
 0002:805BE2C0       OSUTF16to32
 0002:805BE330       OSUTF32toANSI
 0002:805BE3B0       OSUTF32toSJIS
 0002:805BE3F0       __OSGetIPCBufferHi
 0002:805BE400       __OSGetIPCBufferLo
 0002:805BE410       __OSInitIPCBuffer
 0002:805BE430       OSSetPowerCallback
 0002:805BE520       OSGetResetButtonState
 0002:805BE5D0       __OSInitSTM
 0002:805BE6F0       __OSShutdownToSBY
 0002:805BE770       __OSHotReset
 0002:805BE7F0       __OSSetVIForceDimming
 0002:805BE8F0       __OSSetIdleLEDMode
 0002:805BE930       __OSUnRegisterStateEvent
 0002:805BE9B0       __OSVIDimReplyHandler
 0002:805BE9C0       __OSDefaultResetCallback
 0002:805BE9D0       __OSDefaultPowerCallback
 0002:805BE9E0       __OSStateEventHandler
 0002:805BEB40       PlayRecordAlarmCallback
 0002:805BEB50       PlayRecordCallback
 0002:805BED9C       def_805BEBBC
 0002:805BF260       __OSWriteStateFlags
 0002:805BF350       __OSReadStateFlags
 0002:805BF750       OSPlayTimeIsLimited
 0002:805BF930       __OSWriteExpiredFlag
 0002:805BFC00       __OSGetPlayTime
 0002:805C02F0       exit
 0002:805C33E0       __VIRetraceHandler
 0002:805C3744       def_805C372C
 0002:805C3BF0       VISetPreRetraceCallback
 0002:805C3C40       VISetPostRetraceCallback
 0002:805C3C90       getTiming
 0002:805C3DA0       def_805C3CAC
 0002:805C3DB0       __VIInit
 0002:805C3FB0       VIInit
 0002:805C4458       def_805C4440
 0002:805C4500       VIWaitForRetrace
 0002:805C54C0       VIFlush
 0002:805C5670       VISetBlack
 0002:805C5790       VIGetTvFormat
 0002:805C57D4       def_805C57C4
 0002:805C5BB0       def_805C5BA0
 0002:805C5C60       VIResetDimmingCount
 0002:805C7800       __VISetRGBModeImm
 0002:805C7850       __VISetRevolutionModeSimple
 0002:805C7D30       PSMTXCopy
 0002:805C7D70       PSMTXConcat
 0002:805C8230       PSMTXTransApply
 0002:805C8280       PSMTXScale
 0002:805C8910       C_MTXOrtho
 0002:805C8C10       PSVECDistance
 0002:805C9420       GXInit
 0002:805CA350       GXInitFifoBase
 0002:805CA4E0       GXSetCPUFifo
 0002:805CA6C0       GXSetGPFifo
 0002:805CACC0       __GXFifoInit
 0002:805CAEE0       GXSetVtxDesc
 0002:805CB0F4       def_805CAEFC
 0002:805CB330       GXClearVtxDesc
 0002:805CB370       GXSetVtxAttrFmt
 0002:805CB4E0       def_805CB39C
 0002:805CB698       def_805CB554
 0002:805CB7B0       GXSetTexCoordGen2
 0002:805CB858       def_805CB7D8
 0002:805CBA00       GXSetNumTexGens
 0002:805CBA30       GXSetMisc
 0002:805CBAB0       GXFlush
 0002:805CBFF0       GXDrawDone
 0002:805CC4B0       __GXSetDirtyState
 0002:805CC730       GXBegin
 0002:805CCA20       GXSetCullMode
 0002:805CCAC0       GXSetDispCopySrc
 0002:805CCB40       GXSetDispCopyDst
 0002:805CCCA0       GXSetCopyClamp
 0002:805CCCD0       GXGetNumXfbLines
 0002:805CCD60       GXGetYScaleFactor
 0002:805CCF90       GXSetDispCopyYScale
 0002:805CD060       GXSetCopyClear
 0002:805CD0E0       GXSetCopyFilter
 0002:805CD2D0       GXSetDispCopyGamma
 0002:805CDC20       GXSetNumChans
 0002:805CDC50       GXSetChanCtrl
 0002:805CDD44       def_805CDD1C
 0002:805CDE74       def_805CDE4C
 0002:805CE098       def_805CE030
 0002:805CE5F0       GXLoadTexObj
 0002:805CF380       nullsub_6
 0002:805CF490       GXSetTevColorIn
 0002:805CF4D0       GXSetTevAlphaIn
 0002:805CF510       GXSetTevColorOp
 0002:805CF570       GXSetTevAlphaOp
 0002:805CF860       GXSetAlphaCompare
 0002:805CF8A0       GXSetZTexture
 0002:805CF930       GXSetTevOrder
 0002:805CFA90       GXSetNumTevStages
 0002:805CFAC0       GXSetFog
 0002:805CFCF0       GXSetFogRangeAdj
 0002:805CFE00       GXSetBlendMode
 0002:805CFE80       GXSetAlphaUpdate
 0002:805CFEB0       GXSetZMode
 0002:805CFEF0       GXSetZCompLoc
 0002:805D0000       GXSetDstAlpha
 0002:805D04B0       GXSetProjection
 0002:805D0520       GXSetProjectionv
 0002:805D0570       GXGetProjectionv
 0002:805D05B0       GXLoadPosMtxImm
 0002:805D0600       GXLoadNrmMtxImm
 0002:805D0660       GXSetCurrentMtx
 0002:805D0820       GXSetViewport
 0002:805D0850       GXGetViewportv
 0002:805D08A0       GXSetScissor
 0002:805D0910       GXGetScissor
 0002:805D0960       GXSetScissorBoxOffset
 0002:805D09A0       GXSetClipMode
 0002:805D09D0       __GXSetMatrixIndex
 0002:805D0A60       GXSetGPMetric
 0002:805D0F7C       def_805D0B78
 0002:805D1270       def_805D0F9C
 0002:805D1340       __DVDFSInit
 0002:805D1370       DVDConvertPathToEntrynum
 0002:805D1680       DVDFastOpen
 0002:805D16F0       DVDOpen
 0002:805D1B90       DVDOpenDir
 0002:805D1CA0       DVDReadDir
 0002:805D1D30       DVDCloseDir
 0002:805D1E00       nullsub_117
 0002:805D1E10       DVDInit
 0002:805D4048       def_805D3FE4
 0002:805D4EDC       def_805D4E54
 0002:805D5390       def_805D4EFC
 0002:805D6304       def_805D6280
 0002:805D647C       def_805D618C
 0002:805D653C       def_805D6538
 0002:805D6884       def_805D6788
 0002:805D6B20       __DVDTestAlarm
 0002:805D6B50       nullsub_49
 0002:805D6B60       __DVDClearWaitingQueue
 0002:805D79C0       DVDSetAutoFatalMessaging
 0002:805D7EC0       DVDLowInit
 0002:805DA200       DVDLowUnmaskStatusInterrupts
 0002:805DA210       DVDLowMaskCoverInterrupt
 0002:805DC500       MEMCreateExpHeapEx
 0002:805DC5B0       MEMDestroyExpHeap
 0002:805DC5E0       MEMAllocFromExpHeapEx
 0002:805DC690       MEMFreeToExpHeap
 0002:805DC760       MEMGetAllocatableSizeForExpHeapEx
 0002:805DC8C0       MEMFreeToAllocator
 0002:805DD150       NANDPrivateCreate
 0002:805DD4D0       NANDReadAsync
 0002:805DD5C0       NANDWriteAsync
 0002:805DD6E0       NANDSeekAsync
 0002:805DE6E0       NANDPrivateOpen
 0002:805DE770       NANDOpenAsync
 0002:805DE960       NANDCloseAsync
 0002:805DEF0C       def_805DEC4C
 0002:805DF340       nandCloseCallback
 0002:805DF800       nandIsInitialized
 0002:805DF840       nandConvertErrorCode
 0002:805E0500       NANDLoggingAddMessageAsync
 0002:805E16B0       UnpackItem
 0002:805E1830       DeleteItemByID
 0002:805E19D0       CreateItemByID
 0002:805E1C50       SCFindByteArrayItem
 0002:805E1D30       SCReplaceByteArrayItem
 0002:805E1E60       SCFindU8Item
 0002:805E2760       def_805E247C
 0002:805E2780       SCGetAspectRatio
 0002:805E27E0       SCGetDisplayOffsetH
 0002:805E28C0       SCGetIdleMode
 0002:805E28D0       SCGetLanguage
 0002:805E2940       SCGetScreenSaverMode
 0002:805E2DA0       SCGetProductArea
 0002:805E38A0       ESP_InitLib
 0002:805E3900       ESP_CloseLib
 0002:805E3950       ESP_LaunchTitle
 0002:805E39F0       ESP_GetTicketViews
 0002:805E3B10       ESP_DiGetTicketView
 0002:805E3BC0       ESP_DiGetTmd
 0002:805E3CB0       ESP_GetTmdView
 0002:805E3D50       ESP_GetDataDir
 0002:805E3EC0       IPCInit
 0002:805E3F10       IPCReInit
 0002:805E4540       __ios_Ipc2
 0002:805E48D0       IOS_Open
 0002:805E4A00       IOS_CloseAsync
 0002:805E4AC0       IOS_Close
 0002:805E5160       IOS_IoctlAsync
 0002:805E52A0       IOS_Ioctl
 0002:805E5600       IOS_Ioctlv
 0002:805E56E0       IOS_IoctlvReboot
 0002:805E5D40       iosAllocAligned
 0002:805E6480       _isfsFuncCb
 0002:805E79C0       j_IOS_Close
 0002:805E79D0       ISFS_CloseAsync
 0002:805E8134       def_805E80F0
 0002:805E8DD4       def_805E84C0
 0002:805EB410       WPADProbe
 0002:805EB5C0       WPADSetExtensionCallback
 0002:805EB790       WPADGetInfoAsync
 0002:805EB9B0       WPADControlMotor
 0002:805F017C       def_805EF0C0
 0002:805F0778       def_805F0694
 0002:805F2488       def_805F1858
 0002:805F408C       def_805F3EFC
 0002:805F4148       def_805F3E18
 0002:805F7660       nullsub_108
 0002:805FE9E0       nullsub_53
 0002:805FE9F0       nullsub_54
 0002:80601E50       nullsub_7
 0002:80601E60       nullsub_8
 0002:80601E70       nullsub_9
 0002:80601E80       nullsub_10
 0002:80601FD0       nullsub_11
 0002:8060663C       nullsub_52
 0002:806080F4       def_806080B8
 0002:80608288       def_80608128
 0002:80608368       def_8060832C
 0002:8060844C       def_80608410
 0002:80608BD4       def_80608B88
 0002:80608D70       def_80608C00
 0002:806096DC       def_80609658
 0002:8060D958       nullsub_50
 0002:8060E8A8       nullsub_12
 0002:80615F94       def_80615F58
 0002:80616154       def_80616118
 0002:806161EC       def_806161B0
 0002:80616330       def_806162F4
 0002:806163A0       def_80616364
 0002:80616444       def_80616408
 0002:8061CA5C       nullsub_51
 0002:8061CD28       def_8061CB24
 0002:8061CE98       def_8061CDBC
 0002:8061CFFC       def_8061CF1C
 0002:8061D244       def_8061D094
 0002:8061D41C       def_8061D2D0
 0002:8061D7E4       def_8061D4AC
 0002:8061DA40       def_8061D874
 0002:8061DC24       def_8061DAD4
 0002:8061DD80       def_8061DCB0
 0002:8061FF28       def_8061F5D4
 0002:80623DFC       nullsub_112
 0002:80624520       def_806243CC
 0002:80624804       def_806247A0
 0002:80624978       def_806248C4
 0002:80624BB4       def_80624B4C
 0002:80624D28       def_80624C68
 0002:80625118       def_80625020
 0002:806252B4       def_80625194
 0002:80625474       def_80625338
 0002:806255C4       def_806254F4
 0002:806257AC       def_8062563C
 0002:806258CC       def_80625824
 0002:80625EF8       nullsub_55
 0002:8062B160       def_8062AD28
 0002:8062CE8C       def_8062CE28
 0002:8062D0C8       def_8062D054
 0002:8062D19C       def_8062D128
 0002:8062D678       def_8062D5D4
 0002:8062D760       sdpu_compare_uuid_arrays
 0002:8062D9D4       sdpu_compare_uuid_with_attr
 0002:8062DA64       sdpu_sort_attr_list
 0002:8062DAB4       strlen
 0002:8062DAD0       __va_arg
 0002:8062DB98       __register_global_object
 0002:8062DBB0       __destroy_global_chain
 0002:8062DBF8       __construct_new_array
 0002:8062DCFC       __partial_array_destructor::~__partial_array_destructor((void))
 0002:8062DDB8       __construct_array
 0002:8062DEB0       __destroy_arr
 0002:8062DF28       __destroy_new_array
 0002:8062DFA8       __ptmf_test
 0002:8062DFD8       __ptmf_cmpr
 0002:8062E014       __ptmf_scall
 0002:8062E03C       __cvt_fp2unsigned
 0002:8062E098       __save_fpr
 0002:8062E0BC       __save_fpr23
 0002:8062E0C0       __save_fpr24
 0002:8062E0C8       __save_fpr26
 0002:8062E0CC       __save_fpr27
 0002:8062E0E4       __restore_fpr
 0002:8062E13C       _savegpr_17
 0002:8062E14C       _savegpr_19
 0002:8062E150       _savegpr_22
 0002:8062E154       _savegpr_23
 0002:8062E158       _savegpr_24
 0002:8062E15C       _savegpr_25
 0002:8062E160       _savegpr_26
 0002:8062E164       _savegpr_27
 0002:8062E168       _savegpr_28
 0002:8062E16C       _savegpr_29
 0002:8062E188       _restgpr_17
 0002:8062E1A0       _restgpr_23
 0002:8062E1A4       _restgpr_24
 0002:8062E1A8       _restgpr_25
 0002:8062E1AC       _restgpr_26
 0002:8062E1B0       _restgpr_27
 0002:8062E1B4       _restgpr_28
 0002:8062E1B8       _restgpr_29
 0002:8062E1C8       __div2u
 0002:8062E2B4       __div2i
 0002:8062E3EC       __mod2u
 0002:8062E4D0       __mod2i
 0002:8062E5DC       __shl2i
 0002:8062E600       __shr2u
 0002:8062E788       __cvt_dbl_usll
 0002:8062E854       __cvt_dbl_ull
 0002:8062E8FC       __init_cpp_exceptions
 0002:8062E938       __fini_cpp_exceptions
 0002:8062E96C       __register_fragment
 0002:8062E9B8       __unregister_fragment
 0002:8062E9E0       __sys_free
 0002:8062EA98       Block_link
 0002:8062EC90       deallocate_from_fixed_pools
 0002:8062EE7C       free
 0002:8062EFAC       __close_all
 0002:8062F050       __flush_all
 0002:8062F0BC       __ull2dec
 0002:8062F198       __timesdec
 0002:8062F420       __str2dec
 0002:8062F50C       __two_exp
 0002:8062F740       def_8062F548
 0002:8062F828       __equals_dec
 0002:8062F90C       __less_dec
 0002:8062FA0C       __minus_dec
 0002:8062FEE8       __num2dec_internal
 0002:8063004C       __num2dec
 0002:806301F0       __dec2num
 0002:8063094C       __prep_buffer
 0002:80630974       __flush_buffer
 0002:80630D34       fclose
 0002:80630DF0       fflush
 0002:80630F24       _ftell
 0002:80630FCC       ftell
 0002:80630FD0       _fseek
 0002:80631194       mbtowc
 0002:806311AC       __mbtowc_noconv
 0002:806311F8       __wctomb_noconv
 0002:80631214       mbstowcs
 0002:806312D4       wcstombs
 0002:8063138C       memmove
 0002:80631458       memchr
 0002:80631484       __memrchr
 0002:806314B0       memcmp
 0002:806314FC       __copy_longs_aligned
 0002:806315B8       __copy_longs_rev_aligned
 0002:80631660       __copy_longs_unaligned
 0002:80631720       __copy_longs_rev_unaligned
 0002:8063182C       __signbitd
 0002:80631844       __fpclassifyd
 0002:806318C0       __stdio_atexit
 0002:806318D0       parse_format
 0002:80631E44       def_80631C60
 0002:80631E8C       long2str
 0002:806320CC       longlong2str
 0002:8063237C       double2hex
 0002:80632744       round_decimal
 0002:8063286C       float2str
 0002:80633008       __pformatter
 0002:806336B0       def_80633108
 0002:80633BC8       snprintf
 0002:80633CBC       sprintf
 0002:806343B8       def_80634064
 0002:8063484C       def_806347F4
 0002:806349E4       def_8063498C
 0002:80635070       def_806346A8
 0002:8063531C       strcpy
 0002:806353DC       strncpy
 0002:80635420       strcat
 0002:8063544C       strcmp
 0002:806355A8       strchr
 0002:80635620       strstr
 0002:80637E54       def_80637C60
 0002:8063983C       def_806391BC
 0002:80639D94       fwide
 0002:80639F70       __ieee754_acos
 0002:8063A23C       __ieee754_asin
 0002:8063A4D4       __ieee754_atan2
 0002:8063A72C       __ieee754_fmod
 0002:8063AD60       __ieee754_log10
 0002:8063AE74       __ieee754_pow_
 0002:8063D860       copysign
 0002:8063DAA4       frexp
 0002:8063DB2C       ldexp
 0002:8063DDDC       acos
 0002:8063DDE0       asin
 0002:8063DDE4       atan2
 0002:8063DDE8       fmod
 0002:8063DDEC       log10
 0002:8063DDF0       pow
 0002:8063DDF4       __ieee754_sqrt
 0002:8063E03C       nan
 0002:8063E040       sqrt
 0002:8063E1B0       gdev_cc_initialize
 0002:8063E1EC       gdev_cc_close
 0002:8063E1F4       gdev_cc_open
 0002:8063E218       gdev_cc_shutdown
 0002:8063E220       gdev_cc_read
 0002:8063E2D4       gdev_cc_write
 0002:8063E348       gdev_cc_pre_continue
 0002:8063E36C       gdev_cc_initinterrupts
 0002:8063E390       gdev_cc_peek
 0002:8063E404       gdev_cc_post_stop
 0002:8063E428       MWInitializeCriticalSection
 0002:8063E42C       MWEnterCriticalSection
 0002:8063E45C       MWExitCriticalSection
 0002:8063E464       CBGetBytesAvailableForRead
 0002:8063E46C       CircleBufferInitialize
 0002:8063E490       CircleBufferWriteBytes
 0002:8063E598       CircleBufferReadBytes
 0002:8063E6D8       TRK_main
 0002:8063E714       TRKNubMainLoop
 0002:8063EA64       TRKDispatchMessage
 0002:8063EB68       def_8063EAA8
 0002:8063EB84       InitMetroTRK
 0002:8063EC1C       InitMetroTRK_BBA
 0002:8063EE50       TRKInitializeTarget
 0002:8063EF68       InitMetroTRKCommTable
 0002:8063F0A0       nullsub_58
 0002:8063F1B0       ReserveEXI2Port
 0002:8063F1C4       UnreserveEXI2Port
 0002:8063F1D8       TRK_board_display
 0002:8063F1F0       InitializeProgramEndTrap
 0002:8063F2F8       TRKGetNextEvent
 0002:8063F468       TRKDestructEvent
 0002:8063F470       TRKInitializeNub
 0002:8063F51C       TRKTerminateNub
 0002:8063F540       TRKNubWelcome
 0002:8063F68C       TRKGetInput
 0002:8063F6F8       TRKInitializeSerialHandler
 0002:8063F700       TRKTerminateSerialHandler
 0002:8063FD48       TRKTargetContinue
 0002:8063FD7C       TRKSaveExtended1Block
 0002:806401C4       TRKGetBuffer
 0002:80640CA4       def_80640C78
 0002:80640EB4       def_80640E88
 0002:80641A24       __TRK_get_MSR
 0002:80642538       TRKSwapAndGo
 0002:80642650       TRKTargetInterrupt
 0002:80642B78       TRKTargetSupportRequest
 0002:80642D6C       TRKTargetStopped
 0002:80642D7C       TRKTargetSetStopped
 0002:80643258       __DBMtrHandler
 0002:80643278       nullsub_133
 0002:8064327C       __DBIntrHandler
 0002:8064329C       nullsub_134
 0002:806432A0       DBInitComm
 0002:806432FC       DBOpen
 0002:80643350       DBQueryData
 0002:806433F4       DBRead
 0002:80643474       DBWrite
 0002:80643584       DBInitInterrupts
 0002:80643588       DBClose
 0002:8064358C       __EXI2Imm
 0002:80643874       __DBEXIInit
 0002:80643930       __DBEXIReadReg
 0002:80643A54       __DBEXIWriteReg
 0002:80643B58       __DBEXIReadRam
 0002:80643C38       __DBEXIWriteRam
 0008:80645208       gZeroVec
 0008:80646D80       aAudioresSpkres
 0008:80649930       cCreateTable__28_unnamed_NameObjFactory_cpp_
 0008:8064B9F8       aFacea
 0008:8064BF08       aTonguepos
 0008:8064CF18       cLanguages__22_unnamed_Language_cpp_
 0008:8064CF80       sLayoutExt__26_unnamed_LayoutHolder_cpp_
 0008:8064CFC0       GXNtscIntDf
 0008:8064D278       cStationedFileInfo__31_unnamed_StationedFileInfo_cpp_
 0008:8064E040       aGamedataBin
 0008:8064E050       aBannerBin
 0008:8064E220       aRarc
 0008:8065AD68       a0123456789abcd
 0008:8065B6E0       __ptmf_null
 0008:8065B708       aGcnMemAllocCIn
 0008:8065B73E       aMetrowerksCwRu
 0008:8065BD78       aInf
 0008:8065BD7D       aInf_0
 0008:8065BD82       aInf_1
 0008:8065BD86       aInf_2
 0008:8065BD8A       aNan
 0008:8065BD8F       aNan_0
 0008:8065BD94       aNan_1
 0008:8065BD98       aNan_2
 0009:8065C7E0       aMapobj
 0009:8065C7E8       aMapobjstrongli
 0009:8065C7FC       aMapobjnoshadow
 0009:8065C80C       aMapobjnosilhou
 0009:8065C820       aMapobjdecorati
 0009:8065C834       aMapobjnocalcan
 0009:8065C848       aMapobjmovement
 0009:8065C858       aMapobjnomoveme
 0009:8065C86C       aMapobjindirect
 0009:8065C87C       aMapobjindirect_0
 0009:8065C898       aMapobjnomoveme_0
 0009:8065C8C8       aClippedmappart
 0009:8065C8D8       aCollisionmapob
 0009:8065C8E8       aCollisionmapob_0
 0009:8065C908       aCollisionmapob_1
 0009:8065C920       aCollisionmapob_2
 0009:8065C944       aCollisionmapob_3
 0009:8065C968       aEnemy
 0009:8065C970       aEnemydecoratio
 0009:8065C980       aEnemyindirect
 0009:8065C990       aEnemysilhouett
 0009:8065C9A0       aEnemynoshadow
 0009:8065C9B0       aEnemynomovemen
 0009:8065C9C0       aBoss
 0009:8065C9C8       aNpcnoshadow
 0009:8065C9D4       aNpcnocalcanim
 0009:8065C9E4       aRide
 0009:8065C9EC       aRidesilhouette
 0009:8065C9FC       aPlanet
 0009:8065CA04       aPlanetindirect
 0009:8065CA14       aDynamicmapobj
 0009:8065CA24       aPlayerdecorati
 0009:8065CA38       aItem
 0009:8065CA40       aBloom
 0009:8065CA48       aBossbussun
 0009:8065CA54       aCrystalitem
 0009:8065CA60       aFirebarball
 0009:8065CA70       aGlibird
 0009:8065CA78       aHipdropstarmov
 0009:8065CA88       aStorybook
 0009:8065CA98       aStorybookfilte
 0009:8065CAA8       aWorldmapminiob
 0009:8065CAB8       aGhostmazemask
 0009:8065CAC8       aCrystal
 0009:8065CAD0       aTamakoro
 0009:8065CADC       aSuperdreamer
 0009:8065CAEC       aGhost2dwater
 0009:8065CAFC       aWoodlogbridge
 0009:8065CB50       aBinder
 0009:8065CB58       aEnemyattack
 0009:8065CB64       aEnemysimple
 0009:8065CB70       aMapobjpress
 0009:8065CB7C       aMapobjsimple
 0009:8065CB90       aMessage
 0009:8065CB98       aPukupuku
 0009:8065CBA4       aKillertargetma
 0009:8065CBB8       aPriorbinder
 0009:8065CBC4       aSwitch
 0009:8065CBCC       aPush
 0009:8065CBD8       aBellydragonhea
 0009:8065CBE8       aBellydragonbod
 0009:8065CBF8       aBellydragonwea
 0009:8065CC10       aKoopajrrobot
 0009:8065CC20       aKoopajrcastle
 0009:8065CC30       aKoopajrcastlet
 0009:8065CC48       aBossbussunshot
 0009:8065CC60       aGhost
 0009:8065CC68       aHipdropstar
 0009:8065CC74       aJumphole
 0009:8065CC80       aKarikari
 0009:8065CC8C       aKinokooneup
 0009:8065CC98       aKuribo
 0009:8065CCA0       aLeafboard
 0009:8065CCAC       aPunchbox
 0009:8065CCB8       aSandbird
 0009:8065CCC4       aSnowstep
 0009:8065CCD0       aSphereplayer
 0009:8065CCE0       aSphereplayerbi
 0009:8065CCF8       aSphereplayerhi
 0009:8065CD08       aSpincloudblock
 0009:8065CD18       aSupporttico
 0009:8065CD24       aSwitchname
 0009:8065CD30       aUsetype
 0009:8065CD38       aInitactorBcsv
 0009:8065CD48       aInitactorSBcsv
 0009:8065CD5C       aSArc
 0009:8065CD64       aRail
 0009:8065CD6C       aNeed
 0009:8065CD74       aDefaultpos
 0009:8065CD80       aUsescaleforpar
 0009:8065CD94       aModel
 0009:8065CD9C       aExecutor
 0009:8065CDA8       aLight
 0009:8065CDB0       aBinder_0
 0009:8065CDB8       aParam00f32
 0009:8065CDC4       aParam01f32
 0009:8065CDD0       aParam00int
 0009:8065CDDC       aEffect
 0009:8065CDE4       aSound
 0009:8065CDEC       aParam00vecx
 0009:8065CDF8       aParam00vecy
 0009:8065CE04       aParam00vecz
 0009:8065CE10       aShadowS
 0009:8065CE1C       aShadow
 0009:8065CE24       aClipping
 0009:8065CE30       aFarmax
 0009:8065CE38       aGroupclipping
 0009:8065CE48       aDemosimplecast
 0009:8065CE5C       aStarpointer
 0009:8065CE68       aParam00str
 0009:8065CE74       aInitcollisionS
 0009:8065CE8C       aCollisionname
 0009:8065CE9C       aSensorname
 0009:8065CEA8       aJointname
 0009:8065CEB4       aInitscaleSBcsv
 0009:8065CEC8       aScale
 0009:8065CED0       aInitsensorSBcs
 0009:8065CEE4       aSensortype
 0009:8065CEF0       aRadius
 0009:8065CEF8       aOffset
 0009:8065CF00       aHitsensornumma
 0009:8065CF10       aCallback
 0009:8065CF1C       aInitswitchSBcs
 0009:8065CF30       aSwAppear
 0009:8065CF40       aUseread
 0009:8065CF48       aNeedread
 0009:8065CF58       aSwDead
 0009:8065CF60       aUsewrite
 0009:8065CF6C       aNeedwrite
 0009:8065CF78       aUsewriteauto
 0009:8065CF88       aNeedwriteauto
 0009:8065CF98       aSwA
 0009:8065CFA0       aSwB
 0009:8065CFA8       aSwAwake
 0009:8065CFB8       aPlanemodecube
 0009:8065CFC8       aTowermodecylin
 0009:8065CFE0       aBody_0
 0009:8065CFE8       aSurfacecircle
 0009:8065CFF8       aSurfaceoval
 0009:8065D004       aSurfacebox
 0009:8065D010       aVolumesphere
 0009:8065D020       aVolumeoval
 0009:8065D02C       aVolumeovalpole
 0009:8065D03C       aVolumecylinder
 0009:8065D04C       aVolumebox
 0009:8065D058       aVolumeflatmode
 0009:8065D068       aVolumeline
 0009:8065D0A0       aSBcsv
 0009:8065D0A8       aName
 0009:8065D0B0       aGroupname
 0009:8065D0BC       aJoint
 0009:8065D0C4       aType
 0009:8065D0CC       aRadius_0
 0009:8065D0D4       aSize
 0009:8065D0DC       aModel_0
 0009:8065D0E4       aLinestart
 0009:8065D0F0       aLineend
 0009:8065D0F8       aLinestartradiu
 0009:8065D108       aLineendradius
 0009:8065D118       aDropoffset
 0009:8065D124       aActorTrans
 0009:8065D134       aBaseMatrix
 0009:8065D144       aFixPosition
 0009:8065D154       aOtherTrans
 0009:8065D164       aOtherMatrix
 0009:8065D174       aLocalrotate
 0009:8065D180       aDroplength
 0009:8065D18C       aDropstart
 0009:8065D198       aFollowscale
 0009:8065D1A4       aSyncshow
 0009:8065D1B0       aCollision
 0009:8065D1C0       aGravity
 0009:8065D1C8       aVolumestart
 0009:8065D1D4       aVolumeend
 0009:8065D1E0       aVolumecut
 0009:8065D1EC       jpt_80018560
 0009:8065D30C       aMbgmSmgBoss01a
 0009:8065D320       aMbgmSmgBoss01b
 0009:8065D334       jpt_8001B7B4
 0009:8065D358       aBgmSmg2EvDepar
 0009:8065D370       aJunglegliderga_0
 0009:8065D384       aMbgmGlider
 0009:8065D390       aChallengeglide_0
 0009:8065D3A8       aMbgmSmg2Galaxy
 0009:8065D3BC       aAbekobegalaxy
 0009:8065D3CC       aMbgmMiniGame
 0009:8065D3E0       aBgmEvBossrush
 0009:8065D3F0       aBgmEvBossrush0
 0009:8065D404       aVskoopalv1gala
 0009:8065D418       aVskoopagravity
 0009:8065D430       aVskoopalv3gala
 0009:8065D448       aQuicksandgalax
 0009:8065D458       aStmStarChance3
 0009:8065D46C       aMbgmStarChance
 0009:8065D480       aMbgmStarChance_0
 0009:8065D494       aBgmJgAppearPla
 0009:8065D4AC       aMbgmSmg2Galaxy_0
 0009:8065D4C4       aMbgmSmg2MarioS
 0009:8065D4DC       aMbgmSmg2MarioS_0
 0009:8065D4F4       aMbgmSmg2MarioS_1
 0009:8065D50C       aStmSmg2FirstAs
 0009:8065D524       aStmSmg2SecondA
 0009:8065D53C       aVskoopajrlv1ga
 0009:8065D550       aStmSmg2FirstAs_0
 0009:8065D568       aStmSmg2Galaxy0
 0009:8065D57C       aBgmSmg2Boss04a
 0009:8065D590       aBgmSmg2EvPorte
 0009:8065D5A4       aBgmFireA
 0009:8065D968       aLocalizedataS
 0009:8065D9AC       aMappartsdataS
 0009:8065D9C0       aSArc_1
 0009:8065D9C8       aRegionLayoutda
 0009:8065D9E0       aLayoutdataS
 0009:8065D9F0       a16x9_0
 0009:8065D9F8       aSSArc
 0009:8065DA04       aDesign_0
 0009:8065DA0C       aSound_1
 0009:8065DA14       aDemo_1
 0009:8065DA1C       aLight_3
 0009:8065DA24       aZoneinfo_0
 0009:8065DA30       aStagedataSSsce
 0009:8065DA50       aFootprintctrl
 0009:8065DA68       aFootprintBti
 0009:8065DA78       aSBcsv_8
 0009:8065DB24       aID
 0009:8065DD38       sFurParam__22_unnamed_FurMulti_cpp_
 0009:8065DDA0       aBody_1
 0009:8065DDA8       aLengthBti
 0009:8065DDB4       aIndirectBti
 0009:8065DDC4       aDensityBti
 0009:8065DDD0       aFurTxt
 0009:8065DE48       aPower
 0009:8065DE50       aLight_2
 0009:8065DE58       aHeavy
 0009:8065DE60       aInverse
 0009:8065DE68       aType_0
 0009:8065DE70       aName_2
 0009:8065DE78       aObjArg0
 0009:8065DE84       aShapemodelno
 0009:8065DE94       aAreashapeno
 0009:8065DEA0       aPosX
 0009:8065DEA8       aPosY
 0009:8065DEB0       aPosZ
 0009:8065DEB8       aDirX
 0009:8065DEC0       aDirY
 0009:8065DEC8       aDirZ
 0009:8065DED0       aScaleX_0
 0009:8065DED8       aScaleY_0
 0009:8065DEE0       aScaleZ
 0009:8065DEE8       aObjArg1
 0009:8065DEF4       aObjArg2
 0009:8065DF00       aObjArg3
 0009:8065DF0C       aObjArg4
 0009:8065DF18       aObjArg5
 0009:8065DF24       aObjArg6
 0009:8065DF30       aObjArg7
 0009:8065DF3C       aFollowid
 0009:8065DF48       aGroupid
 0009:8065DF50       aClippinggroupi
 0009:8065DF60       aDemogroupid
 0009:8065DF6C       aLId_1
 0009:8065DF74       aPriority
 0009:8065DF80       aCommonpathId
 0009:8065E3AC       aSKcl
 0009:8065E3B4       aSPa
 0009:8065E3BC       aMovelimit
 0009:8065E3C8       aWatersurface
 0009:8065E530       aGalaxyname
 0009:8065E558       aFilecachesize
 0009:8065E568       aGame_3
 0009:8065E570       aSD_0
 0009:8065E590       a0
 0009:8065E592       a000
 0009:8065E5A4       aGalaxynameS
 0009:8065EA44       jpt_8004A068
 0009:8066908C       jpt_8005086C
 0009:80669208       jpt_80053CB4
 0009:80669240       aZone
 0009:80669248       aPeachcastlegal
 0009:8066925C       aMariofaceshipg
 0009:80669270       aChildroomgalax
 0009:80669280       aStaffrollgalax
 0009:80669290       aOceanringgalax
 0009:806692A0       aEggstargalaxy
 0009:806692B0       aFileselect
 0009:80669698       aCamera_1
 0009:80669BB8       jpt_8006173C
 0009:80669BD8       aSoundplayarea
 0009:80669BE8       aSoundemittercu
 0009:80669BFC       aSoundemittersp
 0009:80669C10       aSoundemitterpo_0
 0009:80669C24       aWater
 0009:80669C2C       aAreamovesphere_0
 0009:80669C3C       aPlanemodecube_0
 0009:80669C4C       aTowermodecylin_0
 0009:80669D40       aMappartsinfo
 0009:80669D50       aObjinfo_0
 0009:80669D60       aLId
 0009:80669E38       aDefault_0
 0009:80669E44       aName_1
 0009:80669E4C       aInterpole
 0009:80669E58       aPlayFrame
 0009:80669E64       aStartFrame
 0009:80669E70       aEndFrame
 0009:80669E7C       aAttribute
 0009:80669F50       aNull
 0009:80669F58       aDupNonGroup_0
 0009:80669F78       aNotInitialized
 0009:80669F88       aNonGroup
 0009:80669F98       aScaleX
 0009:80669FA0       aScaleY
 0009:8066A088       aAreamovesphere
 0009:8066A098       aAudioeffectare
 0009:8066A0A8       aBeewallshortdi
 0009:8066A0C0       aBgmchangearea
 0009:8066A0D0       aBgmvolumefadea
 0009:8066A0E8       aBindend
 0009:8066A0F0       aBluestarguidan
 0009:8066A104       aCamerarepulsiv
 0009:8066A118       aCancelbeemorph
 0009:8066A12C       aCelestrial
 0009:8066A138       aClipdrawarea
 0009:8066A148       aCollisionarea
 0009:8066A158       aCometfiredance
 0009:8066A170       aComethopperare
 0009:8066A180       aCometnospinare
 0009:8066A190       aCometrainbowar
 0009:8066A1A4       aCubecamera
 0009:8066A1B0       aCumulativetime
 0009:8066A1CC       aDarkmatterarea
 0009:8066A1DC       aDashchargearea
 0009:8066A1EC       aDeatharea
 0009:8066A1F8       aDemoplayerforb
 0009:8066A214       aDodoryucloseda
 0009:8066A228       aDreamerdeadcou
 0009:8066A240       aDrillholehidde
 0009:8066A254       aEffect_0
 0009:8066A260       aEnforcejumpare
 0009:8066A270       aExtrawallcheck
 0009:8066A284       aExtrawallcheck_0
 0009:8066A29C       aFalls
 0009:8066A2A4       aForbidjump
 0009:8066A2B0       aForbidsupportt
 0009:8066A2C8       aForbidtriangle
 0009:8066A2DC       aForbidwatersea
 0009:8066A2F0       aForcedashcube
 0009:8066A300       aGlaringlightar
 0009:8066A314       aHaze
 0009:8066A31C       aHeavysteering
 0009:8066A330       aHipdropguidanc
 0009:8066A340       aImageeffectare
 0009:8066A350       aLensflarearea
 0009:8066A360       aLightarea
 0009:8066A36C       aMarionocaparea
 0009:8066A37C       aMercatorcube
 0009:8066A38C       aMessagearea
 0009:8066A398       aMirrorarea
 0009:8066A3A8       aMorphswitchare
 0009:8066A3B8       aNomessagearea
 0009:8066A3C8       aNonsleep
 0009:8066A3D8       aOnimasu
 0009:8066A3E0       aPipemode
 0009:8066A3EC       aPlanecircularm
 0009:8066A400       aPlanecollision
 0009:8066A410       aPlanemode
 0009:8066A41C       aPlayermorphlim
 0009:8066A434       aPlayersearea
 0009:8066A448       aPlayersidereta
 0009:8066A460       aPullback
 0009:8066A470       aQuakeeffectare
 0009:8066A480       aRacejudge
 0009:8066A48C       aRasterscrollar
 0009:8066A4A0       aRecoveryfloorc
 0009:8066A4BC       aRepeatblocksha
 0009:8066A4D8       aRollingwaterbr
 0009:8066A4F0       aScenechangeare
 0009:8066A500       aSceneexitarea
 0009:8066A510       aShadecube
 0009:8066A520       aShadowcolorare
 0009:8066A530       aShadowfarclipc
 0009:8066A548       aSloperunningca
 0009:8066A560       aSmokeeffectcol
 0009:8066A578       aSoundemittercu_0
 0009:8066A58C       aSoundemittersp_0
 0009:8066A5A0       aSoundplayarea_0
 0009:8066A5B0       aSpincloudfront
 0009:8066A5CC       aSpinguidance
 0009:8066A5DC       aSpinswitcharea
 0009:8066A5EC       aStorybookareat
 0009:8066A600       aStorybookareaw
 0009:8066A614       aSunlightarea
 0009:8066A624       aSwitcharea
 0009:8066A630       aTamakorojumpgu
 0009:8066A648       aTamakoromovegu
 0009:8066A660       aTicoseedguidan
 0009:8066A674       aTogepinattackf
 0009:8066A68C       aTowermodecylin_1
 0009:8066A6A0       aTripodbossstep
 0009:8066A6B4       aViewgroupctrl
 0009:8066A6C4       aWarpcube
 0009:8066A6D0       aWater_0
 0009:8066A6D8       aWorldmapaccess
 0009:8066A6EC       aWorldmapsyncso
 0009:8066A70C       aYoshicapturegu
 0009:8066A728       aYoshieatguidan
 0009:8066A740       aYoshisendoffar
 0009:8066AEA8       aPlaysound
 0009:8066AEB4       aSoundemittercu_2
 0009:8066AF98       aPlaysound_0
 0009:8066AFA8       aSoundplayareaD
 0009:8066AFF0       aSpinguidancear
 0009:8066B004       aTamakoromovegu_0
 0009:8066B020       aTamakorojumpgu_0
 0009:8066B890       aAudioresInfoMu
 0009:8066B8B0       aMultibgminfoBc
 0009:8066B8C4       aMultibgmname
 0009:8066B8D8       aBgmname
 0009:8066B8E0       aStreamname
 0009:8066B8EC       aBeatratio
 0009:8066B8F8       aIntobeat
 0009:8066B904       aLoopbeat
 0009:8066B910       aLoopstartsampl
 0009:8066B920       aLoopendsample
 0009:8066BA30       aSeRsRemixNoteG
 0009:8066BA4C       aSeRsRemixNoteG_0
 0009:8066BA68       aSeRsRemixNoteG_1
 0009:8066BA84       aSeRsRemixNoteG_2
 0009:8066BAA0       aSeRsRemixNoteG_3
 0009:8066BABC       aSeRsRemixNoteG_4
 0009:8066BAD8       aSeRsRemixNoteG_5
 0009:8066BAF4       aSeRsRemixNoteG_6
 0009:8066BB10       aSeRsRemixNoteG_7
 0009:8066BB2C       aSeRsRemixNoteG_8
 0009:8066BB48       aSeRsRemixNoteG_9
 0009:8066BB64       aSeRsRemixNoteG_10
 0009:8066BB80       aSeRsRemixNoteG_11
 0009:8066BB9C       aSeRsRemixNoteG_12
 0009:8066BBB8       aSeRsRemixNoteG_13
 0009:8066BBD4       aSeRsRemixNoteG_14
 0009:8066BC30       aDummy
 0009:8066BC38       aGame_0
 0009:8066BC40       aBigwaterfallga
 0009:8066BC54       aTamakoroslider
 0009:8066BC6C       aBigtree2galaxy
 0009:8066BC7C       aTropicalresort
 0009:8066BC94       aWorldmap01gala
 0009:8066BCA8       aWorldmap02gala
 0009:8066BCBC       aWorldmap03gala
 0009:8066BCD0       aWorldmap04gala
 0009:8066BCE4       aWorldmap05gala
 0009:8066BCF8       aWorldmap06gala
 0009:8066BD0C       aWorldmap07gala
 0009:8066BD20       aWorldmap08gala
 0009:8066BD34       aStaticsound1st
 0009:8066BD44       aStaticsound
 0009:8066BD50       aMario
 0009:8066BD58       aStarpiece
 0009:8066BD64       aModelwipescene
 0009:8066BD88       aGame_1
 0009:8066BE00       aSoundidtoinstl
 0009:8066BE18       aBankprogno
 0009:8066BE28       aSoundid
 0009:8066BE30       aSoundname
 0009:8066BE3C       aAnonymous
 0009:8066BE48       aIndexOutOfRang
 0009:8066BE70       aAudioresInfoBg
 0009:8066BE8C       aBgmparamBcsv
 0009:8066BE9C       aSoundidname
 0009:8066BEA8       aVolume
 0009:8066BEB0       aAudioresInfoSt
 0009:8066BED0       aStagebgminfoBc
 0009:8066BEE4       aScenariobgminf
 0009:8066BEFC       aStagename
 0009:8066BF08       aChangebgmidnam
 0009:8066BF1C       aChangebgmstate
 0009:8066BF30       aScenariono
 0009:8066BF3C       aBgmidname
 0009:8066BF48       aStarttype
 0009:8066BF54       aStartframe
 0009:8066BF60       aIsprepare
 0009:8066BF70       aFileselect_0
 0009:8066BF7C       aSoundScenario1
 0009:8066BF90       aMariofaceshipg_0
 0009:8066BFA4       aSoundScenario2
 0009:8066BFB8       aSoundScenario4
 0009:8066BFCC       aPeachcastlegal_0
 0009:8066BFE0       aStagedataFiles
 0009:8066C010       aStagedataMario
 0009:8066C054       aStagedataPeach
 0009:8066C1CC       aBattanking
 0009:8066C1D8       aBody_2
 0009:8066C1E0       aVolumebox_0
 0009:8066C1EC       aArml
 0009:8066C1F4       aArmr
 0009:8066C1FC       aHandl_0
 0009:8066C204       aVolumecylinder_0
 0009:8066C214       aHandr
 0009:8066C21C       aLegl
 0009:8066C224       aLegr
 0009:8066CC30       aRoot
 0009:8066CC38       aBody00
 0009:8066CC40       aMessage_0
 0009:8066D674       aHitmarknormal
 0009:8066D8EC       aBossbussunshot_0
 0009:8066D8FC       aSupportfreeze
 0009:8066D90C       aBody_3
 0009:8066D914       aShot
 0009:8066D91C       aLand
 0009:8066DE1C       aBossjugem
 0009:8066E064       aBossjugemcloud
 0009:8066E074       aJointroot
 0009:8066E080       aFloat
 0009:8066E760       aBody
 0009:8066E768       aBodyhipdrop
 0009:8066E780       aBodyground
 0009:8066E78C       aRightfoota3
 0009:8066E798       aLeftfoota3
 0009:8066E7A4       aRightfootb3
 0009:8066E7B0       aLeftfootb3
 0009:8066E7BC       aRightfootc3
 0009:8066E7C8       aLeftfootc3
 0009:8066E80C       aBossstinkbug
 0009:8066E81C       aShadow_0
 0009:8066F6EC       aTail1
 0009:8066F6F4       aTail2
 0009:8066F6FC       aTail3
 0009:8066F704       aTail4
 0009:8066F70C       aTail5
 0009:8066F714       aTail6
 0009:8066F71C       aTail7
 0009:8066F74C       aDinopackun
 0009:8066F758       aDinopackun2
 0009:8066F764       aHead
 0009:8066F76C       aHead_0
 0009:8066F774       aBody_4
 0009:8066F77C       aShadow_1
 0009:8066F784       aOpeningdemo
 0009:8066F790       aFlowerall
 0009:8066F79C       aNormal_0
 0009:8066F8C4       aSpine1
 0009:8066F8CC       aOjstarpiecehit
 0009:8066F8E0       aFootl1
 0009:8066F8E8       aFootr1
 0009:8066FAC8       aBmdpakkuntailc
 0009:8066FADC       aBmlvdpakkuntai
 0009:8066FAF0       aBmdpakkuntailr
 0009:80671AB4       aActorstatewalk
 0009:80671AC8       aSBcsv_9
 0009:80671AD0       aActionname_0
 0009:80671ADC       aStatestep
 0009:80671AE8       aParamwalktopla
 0009:80671AFC       aParamescapefro
 0009:80671B14       aIsbreakcrystal
 0009:80671B78       aHead_11
 0009:80671B80       aHead_12
 0009:80671B88       aBody_53
 0009:80671B90       aLegLeft
 0009:80671B9C       aLegRight
 0009:80671BA8       aArmLeft
 0009:80671BB4       aArmRight
 0009:80671BC0       aTail
 0009:80671BC8       aStar_0
 0009:806722F8       aDodoryustatewa
 0009:8067230C       aDodoryudemoope
 0009:80672320       aDodoryustatelv
 0009:80672330       aDodoryudemoapp
 0009:80672348       aDodoryustatelv_0
 0009:80672358       aDodoryudemoang
 0009:80672370       aDodoryustatelv_1
 0009:80672380       aDodoryudemodow
 0009:80672474       aDodoryuleadhil
 0009:80672734       aOpeningdemo_0
 0009:80672740       aAppeardemo_0
 0009:8067274C       aAngrydemo
 0009:80672758       aDowndemo
 0009:80672764       aDmmeetboss
 0009:80672770       aEffectwalk
 0009:8067277C       aNormal_2
 0009:80672788       aBmlvdodoryumov
 0009:806727A0       aEffectwalkhide
 0009:806727B0       aOpeningappear
 0009:806727C0       aAppear_11
 0009:806727C8       aBvdodoryuappea
 0009:806727DC       aBmdodoryuappea
 0009:806727F0       aBmlvdodoryumov_0
 0009:80672808       aBvdodoryufaint
 0009:8067281C       aOpeningwalk
 0009:80672828       aWalk_6
 0009:80672830       aHide_0
 0009:80672838       aEffectwalkappe
 0009:8067284C       aOpeningdemo_1
 0009:80672858       aAppeardemo_1
 0009:80672864       aNose
 0009:8067286C       aOjstarpiecebur_0
 0009:80672880       aAngrydemo_0
 0009:8067288C       aAngrystart
 0009:80672898       aAngry
 0009:806728A0       aDowndemo_0
 0009:806728AC       aBmdodoryudie
 0009:80673B88       aKoopavs1
 0009:80673B94       aKoopalv2
 0009:80673BA0       aKoopavs2
 0009:80673BAC       aKoopalv3
 0009:80673BB8       aKoopavs3
 0009:80673BC4       aPhasesequence
 0009:806742B0       aGearl1
 0009:806742B8       aGearl2
 0009:806742C0       aGearl3
 0009:806742C8       aGearl4
 0009:806742D0       aGearl5
 0009:806742D8       aGearl6
 0009:806742E0       aGearl7
 0009:806742E8       aGearl8
 0009:806742F0       aGearl9
 0009:806742F8       aGearl10
 0009:80674300       aGearl11
 0009:80674308       aGearl12
 0009:80674310       aGearl13
 0009:80674318       aGearl14
 0009:80674320       aGearr1
 0009:80674328       aGearr2
 0009:80674330       aGearr3
 0009:80674338       aGearr4
 0009:80674340       aGearr5
 0009:80674348       aGearr6
 0009:80674350       aGearr7
 0009:80674358       aGearr8
 0009:80674360       aGearr9
 0009:80674368       aGearr10
 0009:80674370       aGearr11
 0009:80674378       aGearr12
 0009:80674380       aGearr13
 0009:80674388       aGearr14
 0009:80674390       aBodygear1
 0009:8067439C       aBodygear2
 0009:806743A8       aBodygear3
 0009:806743B4       aPropeller1
 0009:806743C0       aPropeller2
 0009:806743CC       aPropeller3
 0009:806743D8       aPropeller4
 0009:806743E4       aWindmill1
 0009:806743F0       aWindmill2
 0009:806743FC       aWindmill3
 0009:80674408       aWindmill4
 0009:80674440       aKoopajrcastleb
 0009:80674E50       aCannon1
 0009:80674E58       aJointroot_0
 0009:80674E64       aWait_1
 0009:80674E6C       aPanic
 0009:80674E78       aCannon3
 0009:80674E80       aBreak
 0009:80674E88       aSpin_0
 0009:80674E90       a1stdamage
 0009:80674E9C       aDamage
 0009:80674EA4       aCrack1
 0009:806759C8       aStarpiecegroup
 0009:80675B40       aElbowl
 0009:80675B48       aUpperarml
 0009:80675B54       aForearml
 0009:80675B60       aElbowr
 0009:80675B68       aUpperarmr
 0009:80675B74       aForearmr
 0009:80675B80       aAllroot_0
 0009:80675B88       aHead_1
 0009:80675BC0       aHandl
 0009:80675CC8       jpt_800DC49C
 0009:80676218       aDemoopeningkoo
 0009:806763A0       aDemoweakpointh
 0009:80676820       aWeakpointfl
 0009:8067682C       aWeakpointleft
 0009:8067683C       aJrrobotweakpoi
 0009:80677010       aSealfixpossing
 0009:80677024       aSealfixposmult
 0009:80677038       aSealfixposmult_0
 0009:8067704C       aSealfixposmult_1
 0009:80677060       aSealfixposmult_2
 0009:80677074       aSealfixposmult_3
 0009:8067709C       aGravitylightro
 0009:806777D0       aDemokoopalastb
 0009:80677824       aFace
 0009:80677D44       aDemokoopavs3do
 0009:80677D70       aDemokoopalastb_0
 0009:80678520       aAppear_10
 0009:80678528       aDown_0
 0009:80678540       aOtaking
 0009:80678548       aAppear
 0009:80678550       aDown
 0009:80678558       aCrown
 0009:80678560       aWait_2
 0009:80678568       aFireball
 0009:80678574       aFirebubble
 0009:80678580       aOtakingmagma
 0009:80678590       aOtakingmagmabl
 0009:806785A4       aOtakingfoot
 0009:806785B0       aOtakinglongfoo
 0009:806785C0       aOtakinglv2
 0009:806785CC       aOtakingfootlv2
 0009:806785DC       aBody_5
 0009:806785E4       aFace_0
 0009:806785EC       aMeRallyComboLa
 0009:80678D38       aPolta
 0009:80678D40       aBreaklevel
 0009:80678D4C       aInner
 0009:80679A38       aCore
 0009:80679A40       aTongue3
 0009:80679A48       aBody1_0
 0009:80679A50       aHead1
 0009:80679A58       aBody2
 0009:80679A60       aHead2
 0009:80679A68       aBody3
 0009:80679A70       aHead3
 0009:80679A78       aArml1
 0009:80679A80       aArml2
 0009:80679A88       aHandl_1
 0009:80679A90       aFingerla1
 0009:80679A9C       aFingerla2
 0009:80679AA8       aFingerlb1
 0009:80679AB4       aFingerlb2
 0009:80679AC0       aFingerlc1
 0009:80679ACC       aFingerlc2
 0009:80679AD8       aFingerld1
 0009:80679AE4       aFingerld2
 0009:80679AF0       aArmr1
 0009:80679AF8       aArmr2
 0009:80679B00       aHandr_0
 0009:80679B08       aFingerra1
 0009:80679B14       aFingerra2
 0009:80679B20       aFingerrb1
 0009:80679B2C       aFingerrb2
 0009:80679B38       aFingerrc1
 0009:80679B44       aFingerrc2
 0009:80679B50       aFingerrd1
 0009:80679B5C       aFingerrd2
 0009:80679B68       aScream
 0009:80679B70       aTongue3_0
 0009:80679B78       aHead_2
 0009:80679B80       aHead5
 0009:8067A0E4       aHead_3
 0009:8067A0EC       aTouch
 0009:8067A8FC       aDemosandystart
 0009:8067AA84       aDemosandypower
 0009:8067AD64       aWait_3
 0009:8067AD6C       aWalk
 0009:8067AD74       aWalkchance
 0009:8067AD80       aJump
 0009:8067AD88       aBullet
 0009:8067AD90       aDamage_0
 0009:8067AD98       aChangeside
 0009:8067ADA4       aDemoopening
 0009:8067ADB0       aDemoexplosion
 0009:8067ADC0       aHead_4
 0009:8067ADC8       aOpening
 0009:8067ADD0       aExplosion
 0009:8067ADDC       aBody_6
 0009:8067ADE4       aStampleft
 0009:8067ADF0       aStampright
 0009:8067AE00       aReflect
 0009:8067AE08       aDamage0
 0009:8067AE10       aDamage1
 0009:8067AE18       aDamage2
 0009:8067AE20       aDamage3
 0009:8067AE28       aWeaken1st
 0009:8067AE34       aWeaken2nd
 0009:8067AE40       aWaitfar
 0009:8067AF78       aHorino
 0009:8067AF80       aSupportfreeze_0
 0009:8067AF90       aBody_7
 0009:8067AF98       aGroundboss
 0009:8067AFA4       aUnderground
 0009:8067AFB0       aScale_0
 0009:8067B2C4       aBoltl
 0009:8067B2CC       aBoltr
 0009:8067B2D8       aEyeball
 0009:8067B628       aOpening_0
 0009:8067B8B4       aDemoopening_0
 0009:8067B8C0       aDemodown
 0009:8067C900       aCamTypeXzPara
 0009:8067D940       aFlagNoreset
 0009:8067D950       aFlagNofovy
 0009:8067D960       aFlagLofserpoff
 0009:8067D970       aFlagAntiblurof
 0009:8067D984       aFlagCollisiono
 0009:8067D998       aFlagSubjective
 0009:8067D9C8       aCamtype
 0009:8067D9D0       aCamTypePlanet
 0009:8067D9E0       aWoffset
 0009:8067D9E8       aLoffset
 0009:8067D9F0       aLoffsetv
 0009:8067D9FC       aRoll
 0009:8067DA04       aFovy
 0009:8067DA0C       aCamint
 0009:8067DA14       aUpper
 0009:8067DA1C       aLower
 0009:8067DA24       aGndint
 0009:8067DA2C       aUplay
 0009:8067DA34       aLplay
 0009:8067DA3C       aPushdelay
 0009:8067DA48       aPushdelaylow
 0009:8067DA58       aUdown
 0009:8067DA60       aVpanuse
 0009:8067DA68       aVpanaxis
 0009:8067DA74       aDist
 0009:8067DA7C       aAxis
 0009:8067DA84       aWpoint
 0009:8067DA8C       aAnglea
 0009:8067DA94       aAngleb
 0009:8067DA9C       aNum1
 0009:8067DAA4       aNum2
 0009:8067DAAC       aString
 0009:8067DAB4       aCamTypeDonkets
 0009:8067DACC       aCamTypeBossDon
 0009:8067DAE4       aCamTypeBehindD
 0009:8067DB00       aCamTypeSlider
 0009:8067DB10       aCamTypeInwardT
 0009:8067DB2C       aCamTypeInwardT_0
 0009:8067DB44       aCamTypeEyeFixe
 0009:8067DB64       aCamTypeEyeposF
 0009:8067DB80       aCamTypeIcecube
 0009:8067DB98       aCamTypeCubePla_0
 0009:8067DBB0       aGflagThru
 0009:8067DBC0       aGflagEnableend
 0009:8067DBD8       aGflagCamendint
 0009:8067DBE8       aEflagEnableerp
 0009:8067DC00       aEflagEnableend
 0009:8067DC18       aCamendint
 0009:8067DC24       aEvfrm
 0009:8067DC2C       aEvpriority
 0009:8067EA6C       aDemoepilog
 0009:8067EBE8       jpt_80134368
 0009:8067EC38       aAction
 0009:8067EC40       aPartname
 0009:8067EC4C       aCastname
 0009:8067EC58       aCastid
 0009:8067EC60       aActiontype
 0009:8067EC70       aPosname
 0009:8067EC78       aAnimname
 0009:8067EC88       aPartname_0
 0009:8067EC94       aCameratargetna
 0009:8067ECA8       aCameratargetca
 0009:8067ECBC       aAnimcameraname
 0009:8067ECCC       aAnimcamerastar
 0009:8067ECE4       aAnimcameraendf
 0009:8067ECF8       aIscontinuous
 0009:8067ED08       aSS
 0009:8067ED10       aCamera
 0009:8067F238       aSeabottombigdo
 0009:8067F24C       aSeabottombigdo_0
 0009:8067F260       aSeabottombigdo_1
 0009:8067F274       aOpen
 0009:8067F280       aPlayer
 0009:8067F288       aPartname_1
 0009:8067F298       aPosname_0
 0009:8067F2A0       aBckname
 0009:8067F2A8       aVisible
 0009:8067F5F0       aEntryactorlist
 0009:8067F600       aDemotitleanim
 0009:8067F830       aSystemResultgr
 0009:8067FA84       aDemomarioshipt
 0009:8067FAE4       aMarioshiptakeo
 0009:8067FBC0       aDemomarioshipt_0
 0009:8067FD8C       aDemomeetkoopa
 0009:806800D0       aDemoending1st
 0009:806800E0       aDemoending2nd
 0009:806800F0       aDemoending3rd
 0009:80680100       aDemoending4th
 0009:806803E0       aDemoastroplane
 0009:806803F0       aModel_1
 0009:80680768       aDemokoopacastl
 0009:80680950       aDigminegalaxy
 0009:80680960       aVskoopajrlv1ga_0
 0009:80680974       aKoopajrlv2gala
 0009:80680994       aBody_8
 0009:8068107C       aDummypagecurre
 0009:80681090       aDummypagenext
 0009:806814D8       aDemomeetmeiste
 0009:806818A0       jpt_80149B98
 0009:8068193C       aUniquename
 0009:80681948       aGroupname_0
 0009:80681C40       aParticlesJpc
 0009:80681C50       aParticlenamesB
 0009:80681C64       aAutoeffectlist
 0009:80681C78       aName_0
 0009:80681D08       aIcelayerbreak
 0009:80681D18       aSeOjIceLayerBr
 0009:80681F68       aEffectemitstar
 0009:80681F78       aEffectemitting
 0009:806820F8       aWaterfortressr
 0009:8068210C       aRain
 0009:80682114       aRainslow
 0009:80682304       aAttackrock
 0009:80682310       aAttack
 0009:80682318       aBody_9
 0009:80682474       aAttackrock_0
 0009:80682480       aAttack_0
 0009:80682488       aLand_0
 0009:80682490       aBody_10
 0009:80682498       aInner_0
 0009:806824A0       aOuter
 0009:806824A8       aFinalwait
 0009:806824B4       aFinalfall
 0009:806824C0       aFinalfloat
 0009:806824CC       aFinalpower
 0009:806824D8       aGroundhit
 0009:806824E4       aBound_0
 0009:806824EC       aBreak_0
 0009:806824F4       aFinalbreak
 0009:806827DC       aAttackrock_1
 0009:806827E8       aAttack_1
 0009:806827F0       aLand_1
 0009:80682A4C       aBalloonfish
 0009:80682A58       aAppearfrombox
 0009:80682A68       aEmblnfishappea
 0009:80682A78       aDeath
 0009:80682A80       aEmblnfishexplo
 0009:80682A94       aAppearance
 0009:80682AA0       aEmblnfishpreda
 0009:80682AB4       aAttack_2
 0009:80682ABC       aSwimbubble
 0009:80682AC8       aAttackend
 0009:80682AD8       aEmlvblnfishdas
 0009:80682AE8       aBody_11
 0009:80682F9C       aBattan
 0009:80683208       aBody1
 0009:80683210       aBody2_0
 0009:80683218       aBody3_0
 0009:80683220       aBody4
 0009:80683228       aBody5
 0009:8068345C       aBegomanbaby
 0009:80683468       aLocator1
 0009:80683478       aBabybegomanfac
 0009:80683488       aSupportfreeze_1
 0009:80683498       aWatercolumn
 0009:806834A4       aDeath_0
 0009:806834B0       aEmbegomanappea
 0009:806834C0       aEmexplodes
 0009:806834CC       aFall
 0009:806834D4       aEmlvbabybegoro
 0009:806834E8       aSignattack
 0009:806834F4       aEmbabybegoprep
 0009:80683508       aEmlvbabybegoro_0
 0009:80683520       aEmbabybegopurs
 0009:80683538       aEmlvbegomanpur
 0009:8068354C       aEmlvbabybegotu
 0009:80683560       aEmlvbegomanspa
 0009:80683578       aTrample
 0009:80683580       aEmbabybegostom
 0009:80683598       aEmlvbegomantur
 0009:806835A8       aEmbegomanrotst
 0009:806835BC       aStop
 0009:806835C4       aBound_1
 0009:806835CC       aTurn_0
 0009:806835D4       aEmfallintowate
 0009:806835E8       aDeathwater
 0009:806835F4       aEmbegomandeadi
 0009:8068360C       aSpark
 0009:80683614       aBody_12
 0009:8068361C       aEmbabybegocoll
 0009:80683638       aEmbabybegocoll_0
 0009:80683850       aSeEmLvBegomanD
 0009:80683888       aLocator1_0
 0009:80683894       aWait_4
 0009:8068389C       aBegomanspark
 0009:806838AC       aBegomanhit
 0009:806838B8       aBegomanfailure
 0009:806838CC       aSpark_0
 0009:806838D4       aFailurehit
 0009:806838E0       aCheck
 0009:806838E8       aBody_13
 0009:806838F0       aPushedRail
 0009:806838FC       aAttack_3
 0009:80683904       aTurn_1
 0009:8068390C       aBrake
 0009:80683918       aProvoke
 0009:80683920       aHitreaction
 0009:8068392C       aTired
 0009:80683934       aOngroundspark
 0009:80683944       aEmlvbegomancol
 0009:8068395C       aWatercolumn_0
 0009:80683968       aEmbegomanknock
 0009:80683980       aCenter
 0009:80683AF8       aTogebegomanlau
 0009:80683CD4       aBegomanspike
 0009:80683CE4       aCenter_0
 0009:80683CEC       aWatercolumn_1
 0009:80683CF8       aSupportfreeze_2
 0009:80683D08       aBegomanspikehe
 0009:80684154       aBegomanspring
 0009:80684164       aBegomanspringh
 0009:80684D8C       aBomb
 0009:80684D98       aBombhei
 0009:80684DA0       aBody_14
 0009:80684DA8       aExplode
 0009:80684DB0       aSupportfreeze_3
 0009:80684DC0       aIgnite
 0009:80684DC8       aWait_5
 0009:80684DD0       aStop_0
 0009:80684DD8       aStarting
 0009:80684DE4       aWalk_0
 0009:80684DEC       aCountdown
 0009:80684DF8       aEmbombheihit
 0009:80684E08       aSpin_1
 0009:80684E10       aPressed
 0009:80684E18       aEmbombheitramp
 0009:80684E2C       aSePvThrow
 0009:80684E38       aEmbombthrow
 0009:80684E44       aBound_2
 0009:80684E4C       aCarry
 0009:80684E54       aSePvLiftUp
 0009:80684E64       aEmbomblift
 0009:80684E70       aExplosion_0
 0009:80684E80       aEmbombexplosio
 0009:80684E90       aEmlvbombfuse
 0009:80684EA0       aEmlvbombalarmf
 0009:80684EB4       aEmlvbombalarmm
 0009:80684EC8       aEmlvbombalarms
 0009:80684EDC       aEmbombbound
 0009:80684EE8       __vt__31JointControlDelegator_7BombHei_
 0009:80685078       aBomblauncher
 0009:80685088       aBombheilaunche
 0009:80685098       aBody_15
 0009:806851C0       aTongue1
 0009:806851C8       aTongue2
 0009:806851D0       aNormal_1
 0009:806851D8       aEmlvbombteremo
 0009:806851EC       aSpinblur
 0009:806851F8       aBody_16
 0009:80685200       aAppear_0
 0009:80685208       aEmbombtereappe
 0009:8068521C       aShadow_2
 0009:80685224       aShadowappear
 0009:80685234       aBall
 0009:8068523C       aBallappear
 0009:80685248       aEmbombtereboun
 0009:80685258       aWait_6
 0009:80685260       aEvbombterelaug
 0009:80685270       aReturn
 0009:80685278       aEmlvbombtereto
 0009:80685290       aEvbombteretack
 0009:806852A4       aTacklesign
 0009:806852B0       aTackle
 0009:806852B8       aEmlvbombtereta
 0009:806852CC       aSpin_2
 0009:806852D4       aEmbombteretong
 0009:806852EC       aEmlvbombteresw
 0009:80685300       aHandr_1
 0009:80685308       aCountdown_0
 0009:80685314       aDrift
 0009:80685320       aEmbombterethro
 0009:80685330       aExplosion_1
 0009:8068533C       aEmbombtereexpl
 0009:80685350       aMisfire
 0009:80685358       aEmbombterehide
 0009:80685368       aHide
 0009:80686708       aVolumesphere_0
 0009:80686718       aFireballspread
 0009:806869BC       aFlowermimic
 0009:806869C8       aLeafcenter
 0009:806869D4       aFlowermimicund
 0009:806869E8       aCollision_0
 0009:806869F4       aSupportfreeze_4
 0009:80686A04       aBody_17
 0009:80686C34       aSupportfreeze_5
 0009:80686C44       aWait_7
 0009:80686C4C       aRotatesign
 0009:80686C58       aRotatesignwood
 0009:80686C68       aRotate
 0009:80686C70       aRotatewood
 0009:80686C7C       aFall_0
 0009:80686D58       aGesso
 0009:80686D60       aBody_18
 0009:80686D68       aSupportfreeze_6
 0009:80686D78       aDeath_1
 0009:80686D80       aFrombox
 0009:80686D88       aEmgessoswiml
 0009:80686D98       aWait_8
 0009:80686DA0       aSearch
 0009:80686DA8       aEmgessofind
 0009:80686DB4       aWalkfast
 0009:80686DC0       aWalk_1
 0009:80686DC8       aSinkfast
 0009:80686DD4       aSink
 0009:80686DDC       aCooldown
 0009:80686DE8       aAttack_4
 0009:80686DF0       aEmgessoink
 0009:80686DFC       aPunchdown
 0009:80686E08       aEmgessohitpunc
 0009:80686E18       aEmgessodead
 0009:80686E24       aStarpiece_0
 0009:80686E30       aEmlvgessostarp
 0009:80688DB8       aJugem
 0009:8068923C       aJumpbeamerbody
 0009:8068ACA0       aFaceposition
 0009:8068ACB0       aArml2_0
 0009:8068ACB8       aSpine1_0
 0009:8068ACC0       aShoulderr
 0009:8068B3D0       aKotebug
 0009:8068B3D8       aSupportfreeze_7
 0009:8068B3E8       aCenter_1
 0009:8068B3F0       aAppear_1
 0009:8068B3F8       aDeath_2
 0009:8068B400       aPreescape
 0009:8068B40C       aEmkotebugfind
 0009:8068B41C       aWait_9
 0009:8068B424       aSyaka
 0009:8068B42C       aEmlvkotebugfly
 0009:8068B43C       aJitabata
 0009:8068B448       aEmlvkotebugpur
 0009:8068B460       aPote
 0009:8068B468       aEmkotebugovert
 0009:8068B480       aPotesmoke
 0009:8068B48C       aEmkotebugfalll
 0009:8068B4A0       aJitabata2
 0009:8068B4AC       aEmlvkotebugove
 0009:8068B4C0       aEmkotebugrecov
 0009:8068B4D4       aEmkotebugland
 0009:8068B4E4       aEmexplodes_0
 0009:8068B4F0       aEmstompeds
 0009:8068B4FC       aEmkotebugtramp
 0009:8068B510       aBody_19
 0009:8068BBA4       aKuribomini
 0009:8068BBB0       aSupportfreeze_8
 0009:8068BBC0       aStagger
 0009:8068BBC8       aHead_5
 0009:8068BBD0       aDeath_3
 0009:8068BBD8       aEmexplodes_1
 0009:8068BBE4       aBody_20
 0009:8068C374       aMechanickoopam
 0009:8068C388       aSupportfreeze_9
 0009:8068C398       aDeath_4
 0009:8068C3A0       aEmexplodes_2
 0009:8068C3AC       aWait_10
 0009:8068C3B4       aWalk_2
 0009:8068C3BC       aTurn_2
 0009:8068C3C4       aJumpstart
 0009:8068C3D0       aEmmkoopaminiju
 0009:8068C3E8       aJumpend
 0009:8068C3F0       aFind
 0009:8068C3F8       aPursue
 0009:8068C400       aPrefire
 0009:8068C408       aEmlvmkoopamini
 0009:8068C420       aFire
 0009:8068C428       aFire_0
 0009:8068C430       aEmlvmkoopamini_0
 0009:8068C448       aFireend
 0009:8068C450       aAttackhit
 0009:8068C460       aSpinhit
 0009:8068C468       aEmmkoopaminisp
 0009:8068C480       aTrample_0
 0009:8068C488       aBreak_1
 0009:8068C490       aEmmkoopaminibr
 0009:8068C4A4       aEmmkoopaminitr
 0009:8068C4B8       aBody_21
 0009:8068C8F8       aMeramera
 0009:8068C904       aIcemeramera
 0009:8068C910       aChildmeramera
 0009:8068C920       aChildicemerame
 0009:8068D2B4       aGliderbazooka
 0009:8068D2C4       aKillershooter
 0009:8068D9C0       aNokonokoland
 0009:8068D9D0       aAppear_2
 0009:8068D9D8       aBody_22
 0009:8068D9E0       aCenter_2
 0009:8068D9E8       aAttack_5
 0009:8068D9F0       aShell
 0009:8068D9F8       aTurtle
 0009:8068DA00       aSupportfreeze_10
 0009:8068DA10       aSupportfreezet
 0009:8068DA24       aDeath_5
 0009:8068DA2C       aEmturtleshellt
 0009:8068DA44       aEmlvnokolandre
 0009:8068DA60       aEmnokolandrevi
 0009:8068DA78       aEvnokonokoappe
 0009:8068DA8C       aRotate_0
 0009:8068DA94       aEmturtlehit
 0009:8068DAA0       aEvnokonokodama
 0009:8068DAB4       aEmexplodes_3
 0009:8068DAC0       aWalkfastwait
 0009:8068DAD0       aWalkwait
 0009:8068DADC       aLookaround
 0009:8068DAE8       aTurnstart
 0009:8068DAF4       aTurnloopstart
 0009:8068DB04       aTurnloop
 0009:8068DB10       aTurnend
 0009:8068DB18       aAttack_6
 0009:8068DB20       aRattle
 0009:8068DB28       aEmlvnokolandra
 0009:8068DB40       aShellstartshel
 0009:8068DB50       aShellstart
 0009:8068DB5C       aEvnokonokotram
 0009:8068DB70       aShellstartface
 0009:8068DB80       aShellstartpunc
 0009:8068DB90       aEmnokolandshel
 0009:8068DBA8       aEvnokonokopunc
 0009:8068DBBC       aShellwait
 0009:8068DBC8       aShellend
 0009:8068DBD4       aEmnokolandrecv
 0009:8068DBEC       aEvnokonokoreco
 0009:8068DE40       aNokonokolandbi
 0009:8068DE50       aSupportfreeze_11
 0009:8068DE60       aPush_0
 0009:8068DE68       aNeck
 0009:8068DE70       aBody_23
 0009:8068DE78       aDrilldamage
 0009:8068DE84       aAttack_7
 0009:8068E070       aHeadpos
 0009:8068E078       aBody5_0
 0009:8068E080       aBody4_0
 0009:8068E088       aBody3_1
 0009:8068E090       aBody2_1
 0009:8068E098       aBody1_1
 0009:8068E0A0       aAllroot_1
 0009:8068E1F4       aWaita
 0009:8068E1FC       aWaitb
 0009:8068E6F0       aOtarockpos
 0009:8068E6FC       aOtarockchief
 0009:8068E790       aOtarockpos_0
 0009:8068E79C       aWheell
 0009:8068E7A4       aWheelr
 0009:8068E7AC       aBattery01
 0009:8068E7B8       aBattery02
 0009:8068E7C4       aBattery03
 0009:8068E7D0       aBattery04
 0009:8068E7DC       aBattery05
 0009:8068E7E8       aBattery06
 0009:8068E7F4       aMouth
 0009:8068E7FC       aOtarocktankthr
 0009:8068E818       aOtarocktankthr_0
 0009:8068E834       aOtarocktankthr_1
 0009:8068E850       aOtarocktankthr_2
 0009:8068E86C       aOtarocktankthr_3
 0009:8068E888       aOtarocktankthr_4
 0009:8068E8A4       aThrow
 0009:8068F838       aBody_54
 0009:8068F840       aSpin_4
 0009:8068F848       aPetari
 0009:8068F850       aPointertouchma
 0009:8068F864       aShadow_13
 0009:8068F86C       aEmexplodes_4
 0009:8068F878       aInnerlight
 0009:8068F884       aHead1_0
 0009:8068F88C       aLeaveappearanc
 0009:8068F8A4       aWait_32
 0009:8068F8AC       aEmpetariwaitap
 0009:8068F8C0       aLeaveappearanc_0
 0009:8068F8DC       aEmpetariwaithi
 0009:8068F8F0       aStartsmoke
 0009:8068F8FC       aWalksmoke
 0009:8068F908       aEmlvpetarirun
 0009:8068F918       aRunsmoke
 0009:8068F924       aAppearance_0
 0009:8068F930       aEmpetariappear
 0009:8068F940       aSwoon
 0009:8068F948       aEmlvswoons
 0009:8068F954       aHide_1
 0009:8068F95C       aEmpetariwakeup
 0009:8068F96C       aEmpetarijump
 0009:8068F97C       aEmchangesmoke
 0009:8068F98C       aPress
 0009:8068F994       aEmstompeds_0
 0009:8068F9A0       aDamage_2
 0009:80690028       aBound
 0009:80690030       aCloseeye
 0009:8069003C       aFlystart
 0009:80690048       aOpeneye
 0009:80690050       aFlyend
 0009:80690058       aSwimstart
 0009:8069093C       aRingbeamer
 0009:80690948       aSupportfreeze_12
 0009:80690CD4       aSearchbeamer
 0009:80690CE4       aBody_24
 0009:80690CEC       aBeam
 0009:80690CF4       aFace_1
 0009:80690CFC       aBeamstart
 0009:80690D08       aPropeller
 0009:80690D18       aBeamend
 0009:80690D20       aSupportfreeze_13
 0009:80690D30       aWait_11
 0009:80690D38       aOpen_0
 0009:80690D40       aEmsearchbeamer
 0009:80690D58       aAttack_8
 0009:80690D60       aLambert5V
 0009:80690D6C       aEmlvsearchbeam
 0009:80690D84       aCore_0
 0009:80690D8C       aClose
 0009:80690D94       aStop_1
 0009:80690D9C       aBeamendair
 0009:80690F20       aStraightappear
 0009:80690F30       aStraightwait
 0009:80690F40       aStraightforwar
 0009:80690F50       aStraightforwar_0
 0009:80690F68       aStraightback
 0009:80690F78       aWait
 0009:80690F80       aForward
 0009:80690F88       aForwardsmoke
 0009:80690F98       aBack
 0009:80690FA0       aSnakeheadsmall
 0009:80690FB0       aUpperJaw
 0009:80690FBC       aUpperjaw
 0009:80690FC8       aHead_6
 0009:80690FD0       aHead_7
 0009:80690FD8       aBody_25
 0009:80690FE0       aBody03
 0009:80690FE8       aLowerJaw
 0009:80690FF4       aLowerjaw
 0009:80691000       aSnakehead
 0009:8069100C       aBody04
 0009:80691018       aSnakeheadshado
 0009:80691028       aSnakeheadsmall_0
 0009:80691040       aSupportfreeze_14
 0009:80691050       aEmexplodeunder
 0009:80691064       aDeath_6
 0009:80691070       aAntenna
 0009:80691078       aBody01
 0009:80691080       aWaylay
 0009:80691088       aWait_12
 0009:80691090       aForward_0
 0009:80691098       aEmsnakeheadfor
 0009:806910AC       aBack_0
 0009:806910B4       aEmsnakeheadbac
 0009:806910C8       aDamage_1
 0009:806910D0       aEvsnakeheaddam
 0009:806911C8       aShadow_3
 0009:806927CC       aTeresa
 0009:806927D4       aSupportfreeze_15
 0009:806927E4       aTeresachief
 0009:806927F0       aSklroot
 0009:80692B88       aFollower1
 0009:80692B94       aFollower2
 0009:80692BA0       aFollower3
 0009:80692BAC       aFollower4
 0009:80694068       aAudioresInfoAc
 0009:80694088       aActionsoundBcs
 0009:806940A0       aObjname
 0009:806940A8       aSoundtype
 0009:806940B4       aSoundlabel
 0009:806940C0       aTriggertype
 0009:806940CC       aTriggername
 0009:806940D8       aSoundtype_0
 0009:806940E4       aSoundlabel_0
 0009:806940F0       aStartframe_1
 0009:806940FC       aEndframe_0
 0009:80694108       aJointname_4
 0009:80694118       aPitchchangetyp
 0009:80694128       aVolumechangety
 0009:8069413C       aPitchchangearg
 0009:80694150       aVolumechangear
 0009:80694198       aAudbgmconducto
 0009:806941A8       aIcevolcanogala
 0009:806941C0       aOceanringgalax_0
 0009:806941D0       aMadnessonimasu
 0009:80694218       aAudcamerawatch
 0009:8069422C       aSeAtLvUnderWat
 0009:806942C0       aBgmTamakoro
 0009:806942D0       aBgmTamakoro2
 0009:80694300       jpt_8022395C
 0009:80694368       jpt_80223D88
 0009:806946B0       aActoranimctrl
 0009:806946C0       aSBcsv_10
 0009:806946C8       aSname
 0009:806946D0       aSstartframe
 0009:806946E0       aSiskeepanim
 0009:806946F0       aActoranimname
 0009:80694700       aActionbgmctrl
 0009:80694710       aSBcsv_11
 0009:80694718       aBckname_3
 0009:80694720       aBckstartframe_1
 0009:80694730       aBgmname_0
 0009:80694738       aBgmstateno
 0009:80694744       aIsbgmstop
 0009:80694750       aBgmfadestep
 0009:8069475C       aStagename_0
 0009:80694768       aStagescenarion
 0009:80694778       aActionflagctrl
 0009:80694788       aSwitcha
 0009:80694790       aSwitchb
 0009:80694798       aShowmodel
 0009:806947A4       aCollisionparts
 0009:806947B4       aBinder_1
 0009:806947BC       aCalcgravity
 0009:806947C8       aInvalidateclip
 0009:806947DC       aFacectrl
 0009:80694810       aSBcsv_0
 0009:80694818       aActionname
 0009:80694824       aSensorS
 0009:80694830       aSensorSstepS
 0009:80694840       aActionfootprin
 0009:80694858       aSBcsv_1
 0009:80694860       aBckname_0
 0009:80694868       aBckstartframe
 0009:80694878       aJointname_0
 0009:80694888       aIsright
 0009:80694890       aPadandcameract
 0009:806948A8       aSBcsv_2
 0009:806948B0       aBckname_1
 0009:806948B8       aStartframe_0
 0009:806948C4       aEndframe
 0009:806948D0       aPadrumblename
 0009:806948E0       aCamerashakenam
 0009:806948F0       aDistancenear
 0009:80694900       aDistancefar
 0009:80694910       aDistanceinvali
 0009:80694920       aPadrumblenamem
 0009:80694934       aPadrumblenamef
 0009:80694948       aCamerashakenam_0
 0009:80694960       aCamerashakenam_1
 0009:80694978       aActionscreenbl
 0009:80694990       aSBcsv_3
 0009:80694998       aBckname_2
 0009:806949A0       aBckstartframe_0
 0009:806949B0       aBlurtotalstep
 0009:806949C0       aBluroffset
 0009:806949CC       aBluralpha
 0009:806949D8       aBlurfadeinstep
 0009:806949E8       aBlurfadeoutste
 0009:806949F8       aActorhitreacti
 0009:80694A10       aSBcsv_4
 0009:80694A18       aReactionname
 0009:80694A28       aEffectname
 0009:80694A34       aEffectbetweeno
 0009:80694A48       aSoundname_0
 0009:80694A54       aPadrumblename_0
 0009:80694A68       aCamerashakenam_2
 0009:80694A78       aStopsceneframe
 0009:80694A88       aIsstopscenefor
 0009:80694AC0       aItemgenerator
 0009:80694BF8       aActorparam
 0009:80694C08       aSBcsv_12
 0009:80694C10       aParamname
 0009:80694C1C       aParamtype
 0009:80694C28       aParam00
 0009:80694C30       aParammove
 0009:80694C40       aParam01
 0009:80694C48       aParam02
 0009:80694C50       aParam03
 0009:80694C58       aParamsight
 0009:80694C64       aParamrebound
 0009:80694C74       aParamjump
 0009:80694C80       aAllliveactorgr
 0009:80694F04       aInddummy
 0009:80694F10       aScreendummy
 0009:80694F1C       aGraydummy
 0009:80694F28       aShadowprojdumm
 0009:80694F38       aShadowdummy
 0009:80694F48       aDynamicjointct
 0009:80694F68       aSBcsv_5
 0009:80694F70       aJointname_1
 0009:80694F80       aCtrljointnumma
 0009:80694F90       aGravity_0
 0009:80694F98       aFriction
 0009:80694FA4       aAccelratetobck
 0009:80694FB8       aBendmaxdegree
 0009:80694FC8       aSupportjointna
 0009:80694FDC       aIsfixroot
 0009:80695000       aAttr
 0009:80695020       aSSS
 0009:80695028       aDefault
 0009:80695084       aSS_0
 0009:80695090       aFacejointctrl
 0009:806950AC       aHead_8
 0009:806950B8       aSBcsv_6
 0009:806950C0       aJointname_2
 0009:806950CC       aDegreemaxhl
 0009:806950D8       aDegreemaxhr
 0009:806950E4       aDegreemaxv
 0009:806950F0       aDegreemax
 0009:806950FC       aDegreemaxverti
 0009:806951E8       aIkjointctrl
 0009:80695248       aSBcsv_7
 0009:80695250       aJointname_3
 0009:8069525C       aNearlimitrate
 0009:8069526C       aFarlimitrate
 0009:8069527C       aEndlocaldirx
 0009:8069528C       aEndlocaldiry
 0009:8069529C       aEndlocaldirz
 0009:806952B0       aEnddirmaxdegre
 0009:80695378       aGroup02d
 0009:806953E8       aObjectdataSSAr
 0009:80695400       aSS_6
 0009:80695408       aObjectdataSlow
 0009:80695420       aObjectdataSmid
 0009:80695440       aMirrortex
 0009:80695958       aShadowcontroll
 0009:80695FB4       aSpotmarklight
 0009:80695FC4       aAppear_14
 0009:80695FCC       aDisappear_1
 0009:80696048       aViewgroupctrl_0
 0009:806964C8       aClosed
 0009:806964D0       aClose_0
 0009:806964D8       aButterfly
 0009:806964E4       aBody_26
 0009:806964EC       aButtbody
 0009:806964F8       aCapposition
 0009:80696504       aWait_13
 0009:80696B38       aSystemFilesele
 0009:80696B54       aSystemFilesele_0
 0009:80696B70       aSystemFilesele_1
 0009:80696B8C       aSystemFilesele_2
 0009:80696BA8       aSystemFilesele_3
 0009:80696BC4       aSystemFilesele_4
 0009:80696BE0       aSystemFilesele_5
 0009:80696C18       aFileselectdata
 0009:80696C2C       aFileselectdata_0
 0009:80696C40       aFileselectdata_1
 0009:80696C54       aFileselectdata_2
 0009:80696C6C       aFileselectdata_3
 0009:80696C80       aFileselectdata_4
 0009:80696C98       aFileselectdata_5
 0009:80696CC8       aFileselectitem
 0009:80696CD8       aFileunusedpoin
 0009:80696CE8       aFilepoint
 0009:80696CF4       aSylvfileselmor
 0009:80696D0C       aSyfileselmorph
 0009:80696D20       aSyfileselmorph_0
 0009:80697058       aSystemFilesele_6
 0009:80697074       aBody_56
 0009:8069707C       aFileselector
 0009:80697118       aFileselectbutt
 0009:80697B18       aZonehalo
 0009:80697B24       aPowerstarhalo
 0009:80698260       aMove_4
 0009:80698268       aBody_57
 0009:80698270       aPhantomshipa
 0009:80698298       aS02d
 0009:80698850       aPlanetmapdatat
 0009:80698868       aPlanetmapdatat_0
 0009:80698898       aBendswanpplane
 0009:806988A8       aBluestarcupsul_0
 0009:806988C0       aCrescentseesaw
 0009:806988D8       aFlowerblossomr
 0009:806988F4       aKoopafinalstar
 0009:8069890C       aMagmaboaticepl
 0009:80698920       aMagmaboatmagma
 0009:80698938       aMariofaceplane
 0009:80698948       aMysterymountai
 0009:80698960       aPeachcastlenig
 0009:80698978       aRelaydrill2dpl
 0009:8069898C       aRisepictureboo_0
 0009:806989A4       aBattlegrapyonp
 0009:806989B8       aBarrelcolonyin
 0009:806989D0       aBothsideliftpl
 0009:806989E4       aMagmasliceplan
 0009:806989F8       aChallengeglide
 0009:80698A14       aChoconveyorpla
 0009:80698A28       aCoinroombrickb
 0009:80698A40       aCoinroombrickb_0
 0009:80698A5C       aCoinroombrickf
 0009:80698A7C       aCoinroomsfblue
 0009:80698A94       aCoinroomsfpurp
 0009:80698AAC       aCoinroomwoodbl
 0009:80698AC8       aCoinroomwoodbr
 0009:80698AE0       aCoinroomwoodfl
 0009:80698AFC       aDarkhopperplan
 0009:80698B10       aDarkhopperplan_0
 0009:80698B24       aDarkhopperplan_1
 0009:80698B38       aDarkhopperplan_2
 0009:80698B4C       aDarknessroompl
 0009:80698B60       aDrumactionplan
 0009:80698B74       aDrill2dtimingp
 0009:80698B88       aFlagdiscplanet
 0009:80698B98       aFlagdiscplanet_0
 0009:80698BA8       aFlagdiscplanet_1
 0009:80698BB8       aFlagdiscplanet_2
 0009:80698BC8       aGlidercliffcre
 0009:80698BE0       aGlidercylinder
 0009:80698BF8       aGliderdossunro
 0009:80698C10       aGliderdownfall
 0009:80698C2C       aGliderforestpl
 0009:80698C40       aGliderforestwa
 0009:80698C64       aGlidergoalgate
 0009:80698C7C       aGliderpolewood
 0009:80698C94       aGliderstartwoo
 0009:80698CAC       aGliderwaterfal
 0009:80698CC4       aGravityfollowl
 0009:80698CE0       aGravityfollowp
 0009:80698D04       aHoneyqueenplan
 0009:80698D18       aItemcollection
 0009:80698D30       aKoopabattlelv1
 0009:80698D48       aKoopabattlelv2
 0009:80698D60       aKoopabattlelv3
 0009:80698D78       aLongcylinderfl
 0009:80698D98       aLuckyroomplane
 0009:80698DA8       aMariofaceshipp
 0009:80698DBC       aMuimuiattackpl
 0009:80698DD0       aMysterycandybr
 0009:80698DEC       aMysteryflippan
 0009:80698E0C       aMysterymountai_0
 0009:80698E28       aPicturejoinpla
 0009:80698E3C       aReverseflowsan
 0009:80698E54       aReversegravity
 0009:80698E7C       aReversegravity_0
 0009:80698E98       aReversegravity_1
 0009:80698EBC       aSandyflowsandp
 0009:80698ED0       aSkateholeplane
 0009:80698EE0       aStarcreekplane
 0009:80698EF0       aStarduststartp
 0009:80698F04       aStorybookopeni
 0009:80698F20       aStorybookticom
 0009:80698F38       aSwitchgravityb
 0009:80698F54       aTubesliderstar
 0009:80698F6C       aUfoshapepassth
 0009:80698F88       aUndergrounddan
 0009:80698FA4       aYukkinabodypla
 0009:80698FB8       aZerogravityroo
 0009:80698FD0       aLowflag
 0009:80698FD8       aMiddleflag
 0009:80698FE4       aMiddle
 0009:80698FEC       aBloomflag
 0009:80698FF8       aBloom_0
 0009:80699000       aWaterflag
 0009:8069900C       aWater_1
 0009:80699014       aIndirectflag
 0009:80699024       aIndirect
 0009:80699030       aForcelowscenar
 0009:80699048       aSD
 0009:8069915C       aProductmapobjd
 0009:80699178       aAutomakemapobj
 0009:80699188       aAnmmodelswitch
 0009:8069919C       aAnmmodelswitch_0
 0009:806991B8       aAnmmodelswitch_1
 0009:806991DC       aAnmmodelswitch_2
 0009:80699200       aAnmmodelswitch_3
 0009:80699228       aAnmmodelswitch_4
 0009:80699240       aCloudstep
 0009:8069924C       aCloudsea
 0009:80699258       aHipdropmoveblo
 0009:8069926C       aRailmoveobj
 0009:80699278       aRailmovewithre
 0009:80699294       aRailmovewithin
 0009:806992B4       aRailmoveshadow
 0009:806992CC       aRailmoveobjcli
 0009:806992E4       aRailmovedemoac
 0009:806992FC       aRailmovelavapr
 0009:80699314       aRailrotatemove
 0009:80699328       aRailandrotatem
 0009:80699340       aRotatemoveobj
 0009:80699350       aRotatemoveobjc
 0009:80699368       aGorogorocylind
 0009:80699380       aLavafloater
 0009:8069938C       aSimplebreakabl
 0009:806993A8       aSimplebreakabl_0
 0009:806993C8       aSimplebreakabl_1
 0009:806993DC       aSimplebreakabl_2
 0009:806993FC       aSimpleclippart
 0009:80699410       aSimplefloatero
 0009:80699424       aSimplemapobj
 0009:80699434       aSimplemapobjfa
 0009:80699448       aSimplemapobjwi
 0009:80699460       aSimpleseesawob
 0009:80699470       aSwitchingmoveb
 0009:80699484       aEffectobjr500f
 0009:80699498       aEffectobjr1000
 0009:806994AC       aEffectobjr1500
 0009:806994C0       aEffectobj20x20
 0009:806994E0       aEffectobj50x50
 0009:80699500       aEffectobj10x10
 0009:80699520       aProjectionmaps
 0009:80699534       aSoundsyncsky
 0009:80699544       aPriordrawair
 0009:80699554       aAftermapobjdra
 0009:80699568       aProjectionmapa
 0009:8069957C       aModelname
 0009:80699588       aClassname
 0009:80699A10       aJunglegliderga
 0009:80699AA8       aBgmRaceLose
 0009:80699AB8       aBgmRaceWin
 0009:8069A1B0       aChange_1
 0009:8069A1D0       aSummersky
 0009:8069A1FC       aWorldmap01sky
 0009:8069A20C       aWorldmap02sky
 0009:8069A21C       aWorldmap03sky
 0009:8069A22C       aWorldmap04sky
 0009:8069A23C       aWorldmap05sky
 0009:8069A24C       aWorldmap06sky
 0009:8069A25C       aWorldmap07sky
 0009:8069AEB0       aMove_5
 0009:8069AEB8       aEndloop
 0009:8069AEC0       aAnmmodelmovest
 0009:8069AED4       aAnmmodelmovelo
 0009:8069AEE8       aAnmmodelstop
 0009:8069AEF8       aAnmmodelkill
 0009:8069AF08       aReverse_1
 0009:8069AF10       aAnmmodelrevers
 0009:8069B490       aArrowswitch
 0009:8069B49C       aShadow_4
 0009:8069B4A4       aBody_27
 0009:8069B4AC       aCollision_1
 0009:8069B4B8       aOjarrowswitcho
 0009:8069B4C8       aOjlvarrowswitc
 0009:8069B4DC       aOjarrowswitchs
 0009:8069BA0C       aBind
 0009:8069BD30       aBendswanpplane_0
 0009:8069BD48       aBendswanpplane_1
 0009:8069BD60       aBendswanpplane_2
 0009:8069BD84       aCollisionS
 0009:8069BD94       aWaita_0
 0009:8069BD9C       aMovea
 0009:8069BDA4       aWaitb_0
 0009:8069BDAC       aMoveb
 0009:8069BDB4       aWaitc
 0009:8069C014       aGlow
 0009:8069C01C       aAppearpicture
 0009:8069C02C       aOjkinoko1uprun
 0009:8069C040       aOjlvkinoko1upr
 0009:8069C054       aLand_2
 0009:8069C05C       aMove
 0009:8069C064       aSyitemappear
 0009:8069C074       aAppear_3
 0009:8069C07C       aSeOjKinoko1upR
 0009:8069C20C       aBigfan
 0009:8069C214       aTeresamario2dg
 0009:8069C35C       aBigfancloud
 0009:8069C368       aMove_0
 0009:8069C7B0       aBluestarcupsul
 0009:8069C7C8       aUfobluestarcup
 0009:8069C7F4       aBluestarcupsul_1
 0009:8069C80C       aBody_28
 0009:8069C814       aRoot_0
 0009:8069C81C       aWait_14
 0009:8069C824       aUfobluestarcup_0
 0009:8069C838       aOjlvufobluesta
 0009:8069C84C       aCsStarPower
 0009:8069C85C       aOjlvmagicpntgp
 0009:8069C870       aReact
 0009:8069C878       aOjmagicpntgon
 0009:8069C888       aOjlvmagicpntgp_0
 0009:8069C89C       aTargetlight
 0009:8069C8A8       aTouch_0
 0009:8069C8B0       aActive
 0009:8069C8B8       aTouchable
 0009:8069CD28       aPhantomcandles
 0009:8069CD3C       aTeresamansionc
 0009:8069CD58       aCandlestandice
 0009:8069CD70       aCandlestand
 0009:8069CD7C       aTeresamansionc_0
 0009:8069CD98       aFire01
 0009:8069CDA0       aFire02
 0009:8069CDA8       aFire_1
 0009:8069CDB0       aExtinguish01
 0009:8069CDC0       aExtinguish02
 0009:8069CDD0       aExtinguish
 0009:8069CDDC       aOjfirestandign
 0009:8069CDF0       aOjlvphantomtoa
 0009:8069CE08       aOjphantomtoach
 0009:8069D760       aChip1
 0009:8069D768       aChip2
 0009:8069D770       aChip3
 0009:8069D778       aChip4
 0009:8069D780       aChip5
 0009:8069D79C       aYellowchipcoun
 0009:8069D7B0       aChipget
 0009:8069D7B8       aShowhide
 0009:8069DEF8       aCloudstep_0
 0009:8069DF04       aWait_15
 0009:8069DF0C       aDisappear
 0009:8069E2F4       aPurplecoin
 0009:8069E300       aCoin_0
 0009:8069E308       aCoin_1
 0009:8069E574       aCoingroup
 0009:8069E750       aCoinlinkgroup
 0009:8069E760       aCirclecoingrou
 0009:8069E770       aRailcoin
 0009:8069EDA8       aCrystalcagefor
 0009:8069F050       aDown_1
 0009:8069F064       aCymbalsstepclo
 0009:8069F078       aBody_29
 0009:8069F080       aRideonclosed
 0009:8069F090       aRideon
 0009:8069F098       aClose_1
 0009:8069F4F8       aCoin
 0009:8069F500       aKinopio
 0009:8069F508       aFreeze
 0009:8069F510       aSpindriver
 0009:8069F520       aSuperspindrive
 0009:8069F530       aStarpiecedummy
 0009:8069F540       aTico
 0009:8069F548       aDummy_0
 0009:8069F550       aKeyswitch
 0009:8069F55C       aInrotation
 0009:8069F568       aPowerstar
 0009:8069F574       aDemo
 0009:8069F57C       aKinokooneup_0
 0009:8069F588       aKuribo_0
 0009:8069F590       aBluechip
 0009:8069F59C       aYellowchip
 0009:8069F5A8       aStraytico
 0009:8069F5B4       aGrandstar
 0009:8069F5C0       aKinokolifeup
 0009:8069F5D0       aColorchange
 0009:8069F5DC       aShadow_5
 0009:8069F5E4       aLight_0
 0009:8069FC90       aBody0
 0009:8069FC98       aBody1_2
 0009:8069FCA0       aBody2_2
 0009:8069FCA8       aBody3_2
 0009:8069FCB0       aBody4_1
 0009:8069FCB8       aBody5_1
 0009:8069FCC0       aBody6
 0009:8069FCC8       aBody7
 0009:8069FCF0       aElectricrailpo
 0009:8069FD04       aBody_30
 0009:806A01A0       aBody0_0
 0009:806A01A8       aBody1_3
 0009:806A01B0       aBody2_3
 0009:806A01B8       aBody3_3
 0009:806A01C0       aBody4_2
 0009:806A01C8       aBody5_2
 0009:806A01D0       aBody6_0
 0009:806A01D8       aBody7_0
 0009:806A0200       aElectricrailpo_0
 0009:806A0214       aBody_31
 0009:806A0220       aElectricrailmo
 0009:806A0238       aPointertouch
 0009:806A0248       aElectricrailmo_0
 0009:806A1534       aGcapturetarget
 0009:806A1544       aBody_32
 0009:806A1E08       aChange
 0009:806A205C       aGravitylightro_0
 0009:806A2070       aAppear_4
 0009:806A2078       aWait_16
 0009:806A2080       aSyreadriddles
 0009:806A2090       aFall_1
 0009:806A2098       aSePmGravLightD
 0009:806A20B4       aDisappear_0
 0009:806A219C       aGravitytimerch
 0009:806A21B4       aUptodown
 0009:806A21C0       aDowntoup
 0009:806A2280       aInithipdropmov
 0009:806A229C       aHipdropmoveblo_0
 0009:806A22B4       aOffset_0
 0009:806A22BC       aRotate_1
 0009:806A2688       aSeSyTimerA2
 0009:806A2698       aSeSyTimerA1
 0009:806A26A8       aSeSyTimerAQuas
 0009:806A26C0       aSeSyTimerA0
 0009:806A26D0       aSeSyTimerB2
 0009:806A26E0       aSeSyTimerB1
 0009:806A26F0       aSeSyTimerBQuas
 0009:806A2708       aSeSyTimerB0
 0009:806A2730       aMove_1
 0009:806A2738       aWait_17
 0009:806A2740       aLand_3
 0009:806A2748       aOnnormal
 0009:806A2754       aOjhipdropswitc
 0009:806A2768       aOffnormal
 0009:806A2774       aSyncon
 0009:806A2780       aSyncoff
 0009:806A2878       aMeteor
 0009:806A2880       aBody_33
 0009:806A29A0       aIcesurface
 0009:806A29AC       aIcemeteorball
 0009:806A2D7C       aFadein
 0009:806A4420       aLavafloatertra
 0009:806A4438       aLavayoshiactio
 0009:806A4450       aLavahomefloate
 0009:806A4464       aLavafloatingst
 0009:806A4478       aLavafloatingst_0
 0009:806A448C       aLavafloatingst_1
 0009:806A44A0       aLavafloatingst_2
 0009:806A44B4       aFloaterotaking
 0009:806A44CC       aLavabubble
 0009:806A44D8       aLavafloater_0
 0009:806A4578       aLavageyser
 0009:806A4584       aLavageyserappe
 0009:806A4598       aForcedeath
 0009:806A45A4       aAttack_9
 0009:806A45AC       aUpper_0
 0009:806A45B4       aLavageyserdisa
 0009:806A45C8       aSign
 0009:806A45D0       aOjlvlavageyser
 0009:806A45E4       aOjlavageysersh
 0009:806A45F8       aOjlvlavageyser_0
 0009:806A460C       aLavageyserwait
 0009:806A48A0       aLavaseparatewa
 0009:806A48B8       aLavaseparatewa_0
 0009:806A48E8       aMoveleft
 0009:806A48F4       aBody_34
 0009:806A48FC       aMoveright
 0009:806A5208       aMeteor_0
 0009:806A5210       aBody_55
 0009:806A5338       aIcesurface_0
 0009:806A5348       aMagmameteorbal
 0009:806A5600       aMetamorphosesc
 0009:806A561C       aMetamorphosesc_0
 0009:806A5BC8       aColorchange_5
 0009:806A5BD4       aTexchange_0
 0009:806A5BE0       aAppear_15
 0009:806A5BE8       aMove_7
 0009:806A5C08       aInitstageeffec
 0009:806A5C78       aSbreak
 0009:806A5C80       aSandupdowntowe
 0009:806A5D48       aBreak_4
 0009:806A5E68       aDummy_1
 0009:806A5E70       aBombzonegravit
 0009:806A5E8C       aUfosandobstacl
 0009:806A5EA0       aUfosandobstacl_0
 0009:806A5EB4       aUfosandobstacl_1
 0009:806A5EC8       aKoopavs2partsj
 0009:806A5EE4       aKoopavs2partss
 0009:806A5F04       aKoopavs2partss_0
 0009:806A5F28       aKoopavs2partsn
 0009:806A5F40       aKoopavs2partsc
 0009:806A5F60       aShadow_6
 0009:806A5F68       aSandupdowntowe_0
 0009:806A5F88       aSandupdowntowe_1
 0009:806A5FA8       aSandupdowntowe_2
 0009:806A5FCC       aKoopajrnormals
 0009:806A5FE0       aKoopastatue
 0009:806A5FF0       aDangersignboar
 0009:806A6000       aProminenceseta
 0009:806A6010       aFoominlavacros
 0009:806A6030       aRepeatblocklav
 0009:806A6058       aColor
 0009:806A61C0       aMariolauncher
 0009:806A6BA0       aMorphitemobj
 0009:806A6BC8       aPoweruphopper
 0009:806A6BD8       aPowerupbee
 0009:806A6BE4       aPowerupteresa
 0009:806A6BF4       aPowerupice
 0009:806A6C00       aPowerupfire
 0009:806A6C0C       aPowerupfoo
 0009:806A6C18       aPowerupcloud
 0009:806A6C28       aPoweruprock
 0009:806A6C34       aMorphitemneoho
 0009:806A6C48       aMorphitemneobe
 0009:806A6C58       aMorphitemneote
 0009:806A6C6C       aMorphitemneofi
 0009:806A6C80       aMorphitemneoic
 0009:806A6C90       aBenefititeminv
 0009:806A6CA8       aMorphitemrock
 0009:806A6CB8       aBody_35
 0009:806A6D64       jpt_802D31A0
 0009:806A6D88       aAppear_5
 0009:806A790C       aPetitporter
 0009:806A7CB8       aPhantomtorchro
 0009:806A7CE4       aPhantomtorch
 0009:806A7CF4       aBody_36
 0009:806A7CFC       aOjstarpiecebur
 0009:806A7D10       aSycandlecombo5
 0009:806A7D20       aSycandlecombo4
 0009:806A7D30       aSycandlecombo3
 0009:806A7D40       aSycandlecombo2
 0009:806A7D50       aSycandlecombo1
 0009:806A7D60       aPhantombonfire
 0009:806A7D70       aOjlvbonfirebur
 0009:806A7D80       aOjlvphantomtoa_0
 0009:806A7D98       aExtinguish_0
 0009:806A7DA4       aOjphantomtoach_0
 0009:806A83CC       aGrandstargetko
 0009:806A889C       aCannon
 0009:806A88A8       aCannon1_0
 0009:806A88B0       aShotstart
 0009:806A8C9C       aPulltargetdraw
 0009:806A8CB0       aBody_37
 0009:806A8CB8       aShadow_7
 0009:806A8CC0       aDrawer
 0009:806A8CC8       aTimer
 0009:806A8CD0       aWait_18
 0009:806A8CD8       aPullend
 0009:806A8CE0       aPullmoving
 0009:806A8CEC       aPullstop
 0009:806A8CF8       aDrawbacksign
 0009:806A8D08       aTimercount2
 0009:806A8D14       aTimercount1
 0009:806A8D20       aTimerzero
 0009:806A8D2C       aBack_1
 0009:806A8D34       aReturnmoving
 0009:806A8D44       aReturnstop
 0009:806A8D50       aBacksmoke
 0009:806A8D5C       aPulltargetpos
 0009:806A8E4C       aBody_38
 0009:806A8E54       aBreakwater
 0009:806A8E60       aOjpunchboxbrea
 0009:806A8E74       aBreak_2
 0009:806A8E80       aOjpunchboxbrea_0
 0009:806A8F68       aPunchingkinoko
 0009:806A928C       aQuestioncoin
 0009:806A929C       aBinder_2
 0009:806A92A4       aPlanemode_0
 0009:806A92B0       aAppear_6
 0009:806A92B8       aLight_1
 0009:806A92C0       aSyquestioncoin
 0009:806A92D0       aQuestioncoinju
 0009:806A92E8       aJumpobj
 0009:806A92F0       aQuestioncoinju_0
 0009:806A93D8       aReverse
 0009:806A93E0       aMove_2
 0009:806A93E8       aPlayeronsand
 0009:806A96F8       aMove_6
 0009:806A97F8       aDemomove
 0009:806A9808       aReverse_0
 0009:806AA680       aPoleobstaclepa
 0009:806AA694       aPoleobstaclepa_0
 0009:806AA6A8       aPoleobstaclepa_1
 0009:806AA6BC       aPoleobstaclepa_2
 0009:806AA860       aXplus
 0009:806AA868       aXminus
 0009:806AA870       aYplus
 0009:806AA878       aYminus
 0009:806AA880       aZplus
 0009:806AA888       aZminus
 0009:806AA90C       aMove_3
 0009:806AAE40       aRisepictureboo
 0009:806AAE58       aRisepictureboo_1
 0009:806AAE74       aRisepictureboo_2
 0009:806AAE8C       aRisepictureboo_3
 0009:806AAEA8       aRisepictureboo_4
 0009:806AAEC0       aRisepictureboo_5
 0009:806AAEDC       aRisepictureboo_6
 0009:806AAEF4       aRisepictureboo_7
 0009:806AAF10       aRisepictureboo_8
 0009:806AAF50       aFire00
 0009:806AAF58       aFire01_0
 0009:806AAF68       aBody_39
 0009:806AB88C       aMagmaslicerota
 0009:806AB8BC       aAppear_7
 0009:806AB8C4       aRotatemoveobjs
 0009:806AB8D8       aRotatemoveobjm
 0009:806AB8EC       aRotatemoveobjs_0
 0009:806ABD00       aSandstormparam
 0009:806AC538       aShootingstar
 0009:806AC548       aMessage_1
 0009:806AC550       aShootingstarap
 0009:806AC564       aShootingstarbl
 0009:806AC578       aOjlvstarpiecef
 0009:806AC58C       aOjstarpiecenot
 0009:806AC5A0       aShootingstarbr
 0009:806AC690       aBreak_5
 0009:806AC6B0       aGororockbreakf
 0009:806AC6C4       aTeresamansionh
 0009:806AC6DC       aKoopastatue_0
 0009:806AC6E8       aKoopajrstatue
 0009:806AC6F8       aIciclerock
 0009:806AC704       aSandupdowntowe_3
 0009:806AC724       aSandupdowntowe_4
 0009:806AC748       aConcreteblockd
 0009:806AC760       aConcreteblock
 0009:806AC770       aSnowblocka
 0009:806AC77C       aYukkinatree
 0009:806AC788       aCrystalcageopa
 0009:806AC798       aCrystalcageopa_0
 0009:806AC7B8       aBreak_3
 0009:806AC7C0       aBody_40
 0009:806ACB48       aClipappearbatt
 0009:806ACE38       aRipple
 0009:806ACF14       aTexchange
 0009:806ACF20       aKoopashipseesa
 0009:806ACF34       aSeOjLvKoopaShi
 0009:806ACF50       aIcevolcanobala
 0009:806ACF68       aSeOjLvVolBalSt
 0009:806ACF84       aIcevolcanobala_0
 0009:806ACF9C       aIcemountainsee
 0009:806ACFB8       aSeOjLvIceMSees
 0009:806ACFD0       aIcemountainsee_0
 0009:806ACFE8       aSeOjLvIceMSees_0
 0009:806AD000       aIcemountainsee_1
 0009:806AD018       aSeOjLvIceMSees_1
 0009:806AD030       aIcemountainsee_2
 0009:806AD048       aIcemountainsee_3
 0009:806AD064       aMoving
 0009:806AD06C       aMagmamonsterro
 0009:806AE39C       aSpindriver_0
 0009:806AE3A8       aBody_41
 0009:806AE3B0       aShadow_8
 0009:806AEAAC       aStarpiece_1
 0009:806AEAB8       aStarpiece1V
 0009:806AEAC8       aAttack_10
 0009:806AEAD0       aBody_42
 0009:806AEAD8       aGift
 0009:806AEAE0       aStarpieceflyin
 0009:806AEAF8       aStarpiecebreak
 0009:806AEB08       aStarpiecebreak_0
 0009:806AEB18       aOjstarpiecebre
 0009:806AEB2C       aOjstarpiecebre_0
 0009:806AEB40       aSandcolumns
 0009:806AEB50       aStarpiecelight
 0009:806AEB60       aStarpiecelight_0
 0009:806AEB70       aWaterfall
 0009:806AEB7C       aLand_4
 0009:806AEB88       aOjstarpiecehit_0
 0009:806AEB98       aOjstarpiecehit_1
 0009:806AEBA8       aOjstarpiecefly
 0009:806AEBB8       aOjstarpiecefly_0
 0009:806AEBC8       aStarpiecegetbl
 0009:806AEBDC       aInvalidhitmark
 0009:806AEBEC       aOjstarpiecehit_2
 0009:806AEC00       aStarpiecetouch
 0009:806AEC18       aGetable
 0009:806AEC20       aOjstarpieceref
 0009:806AEC34       aOjstarpieceref_0
 0009:806AEC48       aStarpiecegets
 0009:806AEC58       aStarpieceget
 0009:806AEC68       aSeOjStarPieceF
 0009:806AEC80       aSeOjStarPieceF_0
 0009:806AF394       aStarpiecegroup_0
 0009:806AF3A4       aStarpieceflow
 0009:806AF5D8       aStarpiecemothe
 0009:806AF7FC       aStarpiecespot
 0009:806AF80C       aBody_43
 0009:806AFD08       aSuperspindrive_0
 0009:806AFD18       aShadow_9
 0009:806AFD20       aBind_0
 0009:806AFD28       aBody_44
 0009:806B037C       aSwitchfreezepl
 0009:806B0390       aSkateholeplane_0
 0009:806B03A0       aBody_45
 0009:806B03A8       aSice
 0009:806B03B0       aStarcreekplane_0
 0009:806B03C0       aFreeze_0
 0009:806B03C8       aFreezewait
 0009:806B03D4       aThow
 0009:806B0500       aRedblueturnblo
 0009:806B0708       aTimeattackcloc
 0009:806B12AC       aOjufokinokomov
 0009:806B12C0       aOjlvufokinokom
 0009:806B12D4       aOjufokinokomov_0
 0009:806B14C0       aSwitchstarta
 0009:806B14D0       aSwitchstartb
 0009:806B14E8       aSwitchenda
 0009:806B14F4       aSwitchendb
 0009:806B1E48       aPanel
 0009:806B3388       aMarineplant
 0009:806B3394       aPlanta
 0009:806B339C       aPlantb
 0009:806B33A4       aPlantc
 0009:806B33AC       aPlantd
 0009:806B33E4       _7NameObj::`vtbl'
 0009:806B3460       aConnecttoscene
 0009:806B34A8       aAudioeffectare_1
 0009:806B34B8       aBgmchangearea_1
 0009:806B34C8       aBgmvolumefadea_1
 0009:806B34DC       aBloomarea
 0009:806B34E8       aCancelbeemorph_0
 0009:806B34FC       aClipdrawarea_0
 0009:806B350C       aCumulativetime_0
 0009:806B3528       aDeatharea_0
 0009:806B3534       aDepthoffieldar
 0009:806B3548       aMessagearea_0
 0009:806B3558       aMorphswitchare_0
 0009:806B3568       aPostfogarea
 0009:806B3578       aPostoutlineare
 0009:806B3588       aShadowcolorare_0
 0009:806B3598       aSoundplayarea_2
 0009:806B35A8       aSpinswitcharea_0
 0009:806B35B8       aSunlightarea_0
 0009:806B35C8       aSwitcharea_0
 0009:806B35D4       aViewgroupctrla
 0009:806B35E8       aWaterarea
 0009:806B35F4       aYoshieatguidan_0
 0009:806B360C       aAreamovesphere_1
 0009:806B361C       aBeewallshortdi_0
 0009:806B3634       aBindendarea
 0009:806B3640       aBluestarguidan_0
 0009:806B3658       aCameraarea
 0009:806B3664       aCelestrialarea
 0009:806B3674       aCometfiredance_0
 0009:806B3688       aComethopperare_0
 0009:806B3698       aCometnospinare_0
 0009:806B36A8       aCometrainbowar_0
 0009:806B36BC       aDarkmatterarea_0
 0009:806B36CC       aDashchargearea_0
 0009:806B36DC       aDemoplayerforb_0
 0009:806B36F8       aDodoryucloseda_0
 0009:806B370C       aDreamerdeadcou_0
 0009:806B3724       aDrillholehidde_0
 0009:806B3738       aEffectarea
 0009:806B3748       aEnforcejumpare_0
 0009:806B3758       aExtrawallcheck_1
 0009:806B376C       aFallsarea
 0009:806B3778       aForbidsupportt_0
 0009:806B3790       aForbidtriangle_0
 0009:806B37A8       aForcedashcube_0
 0009:806B37B8       aGlaringlightar_0
 0009:806B37CC       aHeavysteeringa
 0009:806B37E0       aLensflarearea_0
 0009:806B37F0       aLightctrlarea_0
 0009:806B3800       aMarionocaparea_0
 0009:806B3810       aMirrorarea_0
 0009:806B381C       aNomessagearea_0
 0009:806B382C       aNonsleeparea
 0009:806B383C       aPlanecollision_0
 0009:806B3850       aPlanemodearea
 0009:806B3860       aPlayermorphlim_0
 0009:806B3878       aPlayersidereta_0
 0009:806B3890       aPullbackarea
 0009:806B38A0       aRasterscrollar_0
 0009:806B38B4       aRecoveryfloorc_0
 0009:806B38D0       aRepeatblocksha_0
 0009:806B38EC       aRollingwaterbr_0
 0009:806B3908       aScenechangeare_0
 0009:806B3918       aShadowfarclipc_0
 0009:806B3930       aSloperunningca_0
 0009:806B3948       aSmokeeffectcol_0
 0009:806B3960       aSpincloudfront_0
 0009:806B397C       aSpinguidancear_0
 0009:806B3990       aStorybookareat_0
 0009:806B39A4       aStorybookareaw_0
 0009:806B39B8       aTamakorojumpgu_1
 0009:806B39D4       aTamakoromovegu_1
 0009:806B39F0       aTogepinattackf_0
 0009:806B3A08       aYoshicapturegu_0
 0009:806B3A24       aYoshisendoffar_0
 0009:806B3A38       aCollisionarea_0
 0009:806B3A48       aFallscube
 0009:806B3A54       aHazecube
 0009:806B3A60       aMercatorcube_0
 0009:806B3A70       aSoundemittercu_3
 0009:806B3A84       aSoundemittersp_2
 0009:806B3A98       aPlanecollision_1
 0009:806B3AAC       aTicoseedguidan_0
 0009:806B3AC4       aTowermodecylin_2
 0009:806B3AD8       aWarpcube_0
 0009:806B3AE4       aWorldmapsyncso_1
 0009:806B3B04       aClipareaboxbot
 0009:806B3B18       aClipareaboxcen
 0009:806B3B2C       aClipareaboxbot_0
 0009:806B3B48       aClipareaboxcen_0
 0009:806B3B64       aClipareaconebo
 0009:806B3B78       aClipareaconeto
 0009:806B3B88       aClipareacylind
 0009:806B3B9C       aClipareasphere
 0009:806B3BAC       aMario_1
 0009:806B3BB4       aBombheired_0
 0009:806B3BC0       aBringenemy
 0009:806B3BCC       aCaretaker_0
 0009:806B3BD8       aCaretakerhunte_0
 0009:806B3BE8       aCollecttico
 0009:806B3BF8       aDreamer_2
 0009:806B3C00       aGhostattackgho_1
 0009:806B3C14       aGlibirdnpc
 0009:806B3C20       aHoneybee
 0009:806B3C2C       aHoneyqueen
 0009:806B3C38       aKinopio_3
 0009:806B3C40       aKinopiobank_1
 0009:806B3C4C       aKinopiopostman
 0009:806B3C5C       aKoopanpc
 0009:806B3C68       aLuigitalknpc_1
 0009:806B3C78       aMamemuimuiatta
 0009:806B3C90       aMeister
 0009:806B3C98       aMonte
 0009:806B3CA0       aPeach
 0009:806B3CA8       aPenguin
 0009:806B3CB0       aPenguincoach_0
 0009:806B3CC0       aPenguinmaster
 0009:806B3CD0       aPichan_0
 0009:806B3CD8       aPichanracer_0
 0009:806B3CE4       aPlayattackman
 0009:806B3CF4       aRabbit
 0009:806B3D00       aRosetta
 0009:806B3D08       aScoreattackcou_0
 0009:806B3D1C       aScoreattackman_2
 0009:806B3D2C       aSignboard
 0009:806B3D38       aStarlistboard_0
 0009:806B3D48       aSuperdreamer_2
 0009:806B3D58       aTico_0
 0009:806B3D60       aTicobaby
 0009:806B3D70       aTicobig
 0009:806B3D78       aTicofatcoin_0
 0009:806B3D84       aTicofatstarpie_0
 0009:806B3D98       aTicorail
 0009:806B3DA4       aTicoshop_0
 0009:806B3DB0       aTicoshopdice_0
 0009:806B3DC0       aTogepinattackm
 0009:806B3DD4       aTrickrabbit
 0009:806B3DE0       aLuigiintrusive_2
 0009:806B3DF4       aBigsignboard
 0009:806B3E04       aTrickrabbitgho
 0009:806B3E18       aWarppod
 0009:806B3E20       aCreeper
 0009:806B3E28       aFluff_0
 0009:806B3E30       aFluffwind
 0009:806B3E40       aGlibird_0
 0009:806B3E48       aJetturtle
 0009:806B3E54       aJumpbranch
 0009:806B3E60       aPlant
 0009:806B3E68       aPlantslider_0
 0009:806B3E74       aPole_0
 0009:806B3E7C       aTamakoro_1
 0009:806B3E88       aTrapeze
 0009:806B3E90       aTubeslider
 0009:806B3E9C       aPole2way
 0009:806B3EA8       aPolenomodel_0
 0009:806B3EB4       aPolesquare_0
 0009:806B3EC0       aPolesquarenomo
 0009:806B3ED4       aPoletreea_0
 0009:806B3EE0       aPoletreeb_0
 0009:806B3EEC       aBakubaku
 0009:806B3EF8       aBalloonfish_0
 0009:806B3F04       aBasabasa
 0009:806B3F10       aBattan_0
 0009:806B3F18       aBeeeater
 0009:806B3F24       aBegomanbaby_0
 0009:806B3F30       aBegomanlaunche
 0009:806B3F40       aBegomanspike_0
 0009:806B3F50       aBegomanspring_0
 0009:806B3F60       aBombbird
 0009:806B3F70       aBombhei_0
 0009:806B3F78       aBombheilaunche_0
 0009:806B3F88       aBombteresa
 0009:806B3F94       aBoomerangbros
 0009:806B3FA4       aBussun
 0009:806B3FAC       aBuzz
 0009:806B3FB4       aCactus
 0009:806B3FBC       aChorobon
 0009:806B3FC8       aDanceflower
 0009:806B3FD4       aDossun
 0009:806B3FDC       aDossunbig
 0009:806B3FE8       aDrillbullet
 0009:806B3FF4       aFirebubble_0
 0009:806B4000       aFlowermimic_0
 0009:806B400C       aFoomin
 0009:806B4014       aGarigari
 0009:806B4020       aGesso_0
 0009:806B4028       aGrapyon
 0009:806B4030       aGliderbazooka_0
 0009:806B4040       aKillershooter_0
 0009:806B4050       aGlidershooter
 0009:806B4060       aHammerbros
 0009:806B406C       aHammerheadpack
 0009:806B4080       aHanachan
 0009:806B408C       aHanachanbig
 0009:806B4098       aJellyfish
 0009:806B40A4       aJellyfishelect
 0009:806B40B8       aJugem_0
 0009:806B40C0       aJumpbeamer
 0009:806B40CC       aJumpspider
 0009:806B40D8       aKabokuri
 0009:806B40E4       aKameck
 0009:806B40EC       aKameckkuribomi
 0009:806B4100       aKameckmeramera
 0009:806B4110       aKanina
 0009:806B4118       aKarikari_0
 0009:806B4124       aKaron
 0009:806B412C       aKickstone
 0009:806B4138       aKiraira
 0009:806B4140       aKotebug_0
 0009:806B4148       aKuribo_1
 0009:806B4150       aKuribochief
 0009:806B415C       aKuribomini_0
 0009:806B4168       aLavabubble_0
 0009:806B4174       aMamemuimuiscor_0
 0009:806B4188       aMamemuimuiscor_1
 0009:806B419C       aMechanickoopam_0
 0009:806B41B0       aMenbo
 0009:806B41B8       aMeramera_0
 0009:806B41C4       aMetbo
 0009:806B41CC       aMogucchi
 0009:806B41D8       aNigero
 0009:806B41E0       aNokonokoland_0
 0009:806B41F0       aNokonokolandbi_0
 0009:806B4200       aNyoropon
 0009:806B4210       aOtaking_0
 0009:806B4218       aOtarock
 0009:806B4220       aOtarocktank
 0009:806B4230       aPackunflowerbi
 0009:806B4240       aPackunpetit
 0009:806B424C       aPatakuri
 0009:806B4258       aPatakuribig
 0009:806B4264       aPetari_0
 0009:806B426C       aPeto
 0009:806B4278       aOnimasu_0
 0009:806B4280       aPopo
 0009:806B4288       aPukupuku_0
 0009:806B4294       aPukupukuwaters
 0009:806B42AC       aPunchbox_0
 0009:806B42B8       aPunchbox2d
 0009:806B42C4       aPyudon
 0009:806B42CC       aRingbeamer_0
 0009:806B42D8       aSambohead
 0009:806B42E4       aSearchbeamer_0
 0009:806B42F4       aSnakehead_0
 0009:806B4300       aSpindriver_1
 0009:806B430C       aStinkbugparent
 0009:806B431C       aStinkbugsmall
 0009:806B432C       aStringspider
 0009:806B433C       aTakobo
 0009:806B4348       aTakohei
 0009:806B4350       aTakosho
 0009:806B4358       aTerebo
 0009:806B4360       aTerebogroup
 0009:806B436C       aTeresa_1
 0009:806B4374       aTeresaatomic
 0009:806B4384       aTeresawater
 0009:806B4390       aTogezo
 0009:806B4398       aTongari
 0009:806B43A0       aTongari2d
 0009:806B43B0       aTogepin
 0009:806B43B8       aUnbaba
 0009:806B43C0       aUnbabaslim
 0009:806B43CC       aUnizo
 0009:806B43D4       aWanwangoal
 0009:806B43E0       aWanwansearch
 0009:806B43F0       aWanwansearchbi
 0009:806B4400       aYukkina
 0009:806B4408       aYukkinagrounds
 0009:806B441C       aBasabasaice
 0009:806B4428       aBegomanbabylau
 0009:806B443C       aBegomanspringh_0
 0009:806B4450       aBigbirikyu
 0009:806B4460       aBirikyu
 0009:806B4468       aBomb_0
 0009:806B4470       aBomblauncher_0
 0009:806B4480       aGarigarimini
 0009:806B4490       aHammerheadpack_0
 0009:806B44A8       aHomingkiller
 0009:806B44B8       aIcemeramera_0
 0009:806B44C4       aInfernomario_1
 0009:806B44D4       aInstantinferno
 0009:806B44E4       aKaninared
 0009:806B44F0       aKirairarail
 0009:806B44FC       aMagnumkiller
 0009:806B450C       aSnakeheadsmall_1
 0009:806B451C       aTeresachief_0
 0009:806B4528       aTogebegomanlau_0
 0009:806B4540       aTorpedo
 0009:806B4548       aUnizoland
 0009:806B4554       aUnizoshoal
 0009:806B4560       aSuperspindrive_1
 0009:806B4570       aSuperspindrive_2
 0009:806B4584       aBattanking_0
 0009:806B4590       aBellydragon
 0009:806B459C       aBossbussun_0
 0009:806B45A8       aBossjugem_0
 0009:806B45B4       aBossstinkbug_0
 0009:806B45C4       aDinopackunbaby
 0009:806B45D8       aDodoryu
 0009:806B45E0       aKingtossin
 0009:806B45EC       aKoopa
 0009:806B45F4       aKoopajrcastle_0
 0009:806B4604       aKoopajrrobot_0
 0009:806B4614       aPolta_0
 0009:806B461C       aSandy
 0009:806B4628       aTwolegs
 0009:806B4630       aBellydragonlv2
 0009:806B4640       aKoopalv2_0
 0009:806B464C       aKoopalv3_0
 0009:806B4658       aKoopalv4
 0009:806B4664       aKoopademochamb
 0009:806B4678       aKoopafinalbatt
 0009:806B468C       aDinopackunvs1
 0009:806B469C       aDinopackunvs2
 0009:806B46AC       aAirbubble
 0009:806B46B8       aAirbubblegener
 0009:806B46CC       aArrowswitch_0
 0009:806B46D8       aAttackrock_2
 0009:806B46E4       aAttackrocktuto
 0009:806B46F8       aAttackrockfina
 0009:806B4708       aBalloonfruit
 0009:806B4718       aBallopener
 0009:806B4724       aBallopenertama
 0009:806B4738       aBallopenerslid
 0009:806B474C       aBallrail
 0009:806B4758       aBeeflowerhover
 0009:806B4768       aBeejumpball
 0009:806B4774       aBeejumpballb
 0009:806B4784       aBeejumpballc
 0009:806B4794       aBeejumpballd
 0009:806B47A4       aBenefititeminv_0
 0009:806B47BC       aBenefititemlif
 0009:806B47D0       aBenefititemone
 0009:806B47E4       aBigfan_0
 0009:806B47EC       aBigfancloud_0
 0009:806B47F8       aBlackhole
 0009:806B4804       aBloomflower
 0009:806B4810       aBluestarcupsul_2
 0009:806B4828       aBossjugemplane
 0009:806B4840       aBreakablecage
 0009:806B4850       aBrightsun
 0009:806B485C       aButterfly_0
 0009:806B4868       aChangeroom
 0009:806B4874       aCloudstep_1
 0009:806B4880       aCountflower
 0009:806B4890       aCoconut
 0009:806B4898       aCoinappearspot
 0009:806B48A8       aCollapseplane
 0009:806B48B8       aDashring
 0009:806B48C4       aEarthenpipe_0
 0009:806B48D0       aElectricpressu
 0009:806B48E4       aElectricrail
 0009:806B48F4       aElectricrailmo_1
 0009:806B4908       aElectricrailtw
 0009:806B4920       aExterminationc
 0009:806B493C       aFirepressure
 0009:806B494C       aFlippanel
 0009:806B4958       aFlippanelobser
 0009:806B496C       aGrandstargate
 0009:806B497C       aGcapturetarget_0
 0009:806B498C       aGravityarrow
 0009:806B499C       aGravitybgmctrl_0
 0009:806B49AC       aGravityfallblo
 0009:806B49C0       aGravityfallblo_0
 0009:806B49D8       aGravitylightro_1
 0009:806B49EC       aItemdice
 0009:806B49F8       aItemdrill
 0009:806B4A04       aJumphole_0
 0009:806B4A10       aJumpholetamako
 0009:806B4A24       aJumpholetamako_0
 0009:806B4A38       aJumpstand
 0009:806B4A44       aJumpstandauto
 0009:806B4A54       aKoopaassaultfa
 0009:806B4A68       aKoopasealfield
 0009:806B4A80       aKoopasealfield_0
 0009:806B4A90       aKoopastatuevom
 0009:806B4AA4       aKoopajrcastlec
 0009:806B4ABC       aKoopajrcastlew
 0009:806B4AD0       aLavageyser_0
 0009:806B4ADC       aLavahomevolcan_0
 0009:806B4AF0       aLavaprominence
 0009:806B4B00       aLeafboard_0
 0009:806B4B0C       aLiftflower
 0009:806B4B18       aLightfruit
 0009:806B4B24       aLotusleaf
 0009:806B4B30       aLuckydice_0
 0009:806B4B3C       aMariolauncher_0
 0009:806B4B50       aMorphitemneobe_0
 0009:806B4B60       aMorphitemneofi_0
 0009:806B4B74       aMorphitemneoho_0
 0009:806B4B88       aMorphitemneote_0
 0009:806B4B9C       aMorphitemrock_0
 0009:806B4BAC       aMorphitemcolle
 0009:806B4BC8       aMorphitemcolle_0
 0009:806B4BE0       aMorphitemcolle_1
 0009:806B4BFC       aMorphitemcolle_2
 0009:806B4C18       aMorphitemcolle_3
 0009:806B4C30       aMorphitemcolle_4
 0009:806B4C50       aMorphitemcolle_5
 0009:806B4C68       aNotefairy
 0009:806B4C74       aPetitporter_0
 0009:806B4C80       aPetitporterexi
 0009:806B4C98       aPetitporterwar
 0009:806B4CB0       aPositivedice
 0009:806B4CC0       aPowerstar_0
 0009:806B4CCC       aPowerstarappea
 0009:806B4CE4       aPunchingkinoko_0
 0009:806B4CF4       aRepeatblock
 0009:806B4D00       aRestartobj
 0009:806B4D0C       aRockcreator
 0009:806B4D18       aRockreflector
 0009:806B4D28       aSandbird_0
 0009:806B4D34       aShootingstar_0
 0009:806B4D44       aSmallstone
 0009:806B4D50       aSnowball
 0009:806B4D60       aSnowman
 0009:806B4D68       aSoundemitterpo_1
 0009:806B4D7C       aSpacemine
 0009:806B4D88       aSphereraildash
 0009:806B4D98       aSpincloudblock_0
 0009:806B4DA8       aSpinclouditem
 0009:806B4DB8       aSupportflushpo
 0009:806B4DD0       aTimeattackcloc_0
 0009:806B4DE0       aTogepinscorer_0
 0009:806B4DF0       aTsukidashikun
 0009:806B4E00       aWaterpressure
 0009:806B4E10       aWoodbox
 0009:806B4E18       aWoodlogbridge_0
 0009:806B4E28       aAsteroida
 0009:806B4E34       aAsteroidb
 0009:806B4E40       aAsteroidc
 0009:806B4E4C       aAsteroidd
 0009:806B4E58       aBigfannoleg
 0009:806B4E64       aBlackholecube
 0009:806B4E74       aBreakablecagel
 0009:806B4E84       aBreakablecager
 0009:806B4E98       aBreakablecapsu
 0009:806B4EB0       aBreakablefixat
 0009:806B4EC4       aBreakabletrash
 0009:806B4ED4       aCandlestandice_0
 0009:806B4EEC       aCaretakergarba
 0009:806B4F00       aCircleshell
 0009:806B4F0C       aCirclestrawber
 0009:806B4F20       aCoconuttreelea
 0009:806B4F30       aCoinblock2d
 0009:806B4F3C       aCountflowerpow
 0009:806B4F54       aCrystalcagel
 0009:806B4F64       aCrystalcagem
 0009:806B4F74       aCrystalcages
 0009:806B4F84       aCrystalcagefor_0
 0009:806B4F9C       aCrystalcageopa_1
 0009:806B4FAC       aCrystalcageopa_2
 0009:806B4FC0       aCrystalcageopa_3
 0009:806B4FD4       aCutbushgroup
 0009:806B4FE8       aDangersignboar_0
 0009:806B4FF8       aEarthenpipeinw
 0009:806B500C       aExterminationp
 0009:806B5024       aExterminations
 0009:806B5038       aFlippanelframe
 0009:806B5048       aFlippanelrever
 0009:806B505C       aFloaterlandpar
 0009:806B5078       aFlowerbluegrou
 0009:806B5088       aFlowergroup
 0009:806B5094       aGemcages
 0009:806B50A0       aRockcages
 0009:806B50B0       aGlassbottletal
 0009:806B50C0       aGrandstar_0
 0009:806B50CC       aGreenstar
 0009:806B50D8       aHatenawoodbox
 0009:806B50E8       aHeavenlybeacht
 0009:806B5100       aHeavenlybeachu
 0009:806B5118       aHopperbeltconv
 0009:806B5138       aHopperbeltconv_0
 0009:806B5158       aIciclerock_0
 0009:806B5168       aItemblockswitc
 0009:806B5178       aJrrobotstep
 0009:806B5184       aJrrobotstepbre
 0009:806B519C       aJrrobotstepbre_0
 0009:806B51B4       aKillergunnerdo
 0009:806B51C8       aKillergunnertr
 0009:806B51DC       aLavablackufo
 0009:806B51EC       aLavabreakrocka
 0009:806B51FC       aLavafalldownco
 0009:806B5210       aLavafalldownco_0
 0009:806B5224       aLavahomevolcan_1
 0009:806B5240       aLavaobstaclero
 0009:806B5258       aLavaprominence_0
 0009:806B5274       aLavarotateplan
 0009:806B5290       aLavaspacestick
 0009:806B52A0       aLavaspacestick_0
 0009:806B52B0       aMeteorcannon
 0009:806B52C0       aMeteorstrike
 0009:806B52D0       aMeteorstrikeen
 0009:806B52E8       aOceanfloaterto
 0009:806B5308       aOceanfloaterto_0
 0009:806B5328       aOceanfloaterto_1
 0009:806B5348       aOceanfloaterto_2
 0009:806B5368       aPhantomcandles_0
 0009:806B537C       aPhantomtowermo
 0009:806B5394       aRedblueturnblo_0
 0009:806B53A8       aRollingwater
 0009:806B53B8       aSandupdownkill
 0009:806B53D4       aSandupdowntowe_8
 0009:806B53EC       aSandupdowntowe_9
 0009:806B5400       aSeabottomtripl
 0009:806B5420       aShellfishcoin
 0009:806B5430       aShellfishyello
 0009:806B5444       aShutterdoorb
 0009:806B5454       aShutterdoorc
 0009:806B5464       aShutterdoord
 0009:806B5474       aShutterdoore
 0009:806B5484       aSnowblocka_0
 0009:806B5490       aSnowdollkoopa
 0009:806B54A0       aSnowdollkuribo
 0009:806B54B0       aSnowmoundl
 0009:806B54C0       aSpaceminerail5
 0009:806B54D0       aSpacemineraila
 0009:806B54E0       aSpacesticka
 0009:806B54EC       aSpacestickb
 0009:806B54F8       aSpincloudmario
 0009:806B5510       aSplashcoinbloc
 0009:806B5520       aSplashpieceblo
 0009:806B5534       aSunkenship
 0009:806B5540       aTemplatestageg
 0009:806B5558       aTimercoinblock
 0009:806B5568       aTimerpiecebloc
 0009:806B5578       aWanwanrolling
 0009:806B5588       aWanwanrollingg
 0009:806B559C       aWanwanrollingm
 0009:806B55B0       aWaterfallcaven
 0009:806B55CC       aWingblockcoin
 0009:806B55DC       aWingblockstarp
 0009:806B55F0       aWoodlogbridges
 0009:806B5604       aWorldwarppoint_0
 0009:806B561C       aWorldwarppoint_1
 0009:806B5630       aWorldmap01mode
 0009:806B5640       aWorldmap02mode
 0009:806B5650       aWorldmap03mode
 0009:806B5660       aWorldmap04mode
 0009:806B5670       aWorldmap05mode
 0009:806B5680       aWorldmap06mode
 0009:806B5690       aWorldmap07mode
 0009:806B56A0       aWorldmap08mode
 0009:806B56B0       aCapsulecage
 0009:806B56BC       aGororockcoverc
 0009:806B56D0       aFirebar
 0009:806B56D8       aFirebarspheric
 0009:806B56EC       aFirering
 0009:806B56F8       aHipdroprock
 0009:806B5704       aNeedleplant
 0009:806B5710       aNeedletrap
 0009:806B571C       aNeedletrapside
 0009:806B572C       aStarpiececlust_1
 0009:806B5740       aStarpieceflowe
 0009:806B5750       aTreasurespot
 0009:806B5760       aArrowboard
 0009:806B576C       aAsteroidblockr
 0009:806B5788       aAsteroidmovea
 0009:806B5798       aBattleshipelev
 0009:806B57B0       aBattleshipmove
 0009:806B57C8       aBattleshipmove_0
 0009:806B57E0       aBeewallclimbpa
 0009:806B57F4       aBiribiribegoma
 0009:806B5810       aBreakdownfixst
 0009:806B5824       aBroadbeanmoves
 0009:806B5838       aBroadbeanmoves_0
 0009:806B584C       aChoconveyorcho
 0009:806B5860       aChoconveyormov
 0009:806B5878       aClockworkhandl
 0009:806B5888       aCocoonstepa
 0009:806B5894       aCocoonstepb
 0009:806B58A0       aCoinflower
 0009:806B58AC       aColorpencil
 0009:806B58B8       aDarkhopperplan_3
 0009:806B58D0       aDarkhopperplan_4
 0009:806B58E8       aDarkhopperplan_5
 0009:806B5900       aDarkhopperrota
 0009:806B5918       aDarkmattermove
 0009:806B5938       aDarknessroomdo
 0009:806B594C       aDeathpromenade
 0009:806B596C       aDeathpromenade_0
 0009:806B5988       aDeathpromenade_1
 0009:806B59A4       aDeathsandenvir
 0009:806B59C0       aDeathsandenvir_0
 0009:806B59DC       aDeathsandenvir_1
 0009:806B59FC       aDeathsandenvir_2
 0009:806B5A1C       aDeathsandlandp
 0009:806B5A30       aDeathsandlandp_0
 0009:806B5A44       aDeathsandlandp_1
 0009:806B5A60       aDropofwatercor
 0009:806B5A70       aForestappearst
 0009:806B5A84       aForestbarricad
 0009:806B5A9C       aForesthomebrid
 0009:806B5AB0       aForesthomegate
 0009:806B5AC0       aForesthomepart
 0009:806B5AD4       aForesthomepart_0
 0009:806B5AF0       aForestnarrowst
 0009:806B5B04       aForestpoihanaf
 0009:806B5B18       aForestpoihanaf_0
 0009:806B5B30       aForestwoodcove
 0009:806B5B40       aHoledeathsandm
 0009:806B5B58       aHoneyqueenleaf
 0009:806B5B68       aHugebattleship
 0009:806B5B88       aKameckshiplv1
 0009:806B5B98       aKinokooneuppic
 0009:806B5BAC       aKoopashipmanho
 0009:806B5BC4       aKoopastatue_1
 0009:806B5BD0       aLavarotatestep
 0009:806B5BEC       aLavarotatestep_0
 0009:806B5C08       aLavarotatestep_1
 0009:806B5C24       aLavarotatestep_2
 0009:806B5C40       aLavafloatingst_3
 0009:806B5C54       aLavafloatingst_4
 0009:806B5C68       aLavafloatingst_5
 0009:806B5C7C       aLavafloatingst_6
 0009:806B5C90       aLeafmanholecov
 0009:806B5CA8       aMinimechakoopa
 0009:806B5CC0       aMinimechakoopa_0
 0009:806B5CD8       aMinimechakoopa_1
 0009:806B5CF0       aMinimechakoopa_2
 0009:806B5D10       aMysterygravity
 0009:806B5D2C       aNeedleplantfly
 0009:806B5D3C       aPeachcastletow
 0009:806B5D58       aPeachcastletow_0
 0009:806B5D74       aPeachcastletow_1
 0009:806B5D88       aPhantomdecorat
 0009:806B5DA0       aPhantomdecorat_0
 0009:806B5DB8       aPhantomdecorat_1
 0009:806B5DD8       aPhantomfirewoo
 0009:806B5DE8       aPoltabattlepla
 0009:806B5E00       aPowerstarkeepe
 0009:806B5E14       aPowerstarkeepe_0
 0009:806B5E28       aPowerstarkeepe_1
 0009:806B5E3C       aQuicksand2dmov
 0009:806B5E54       aRaygunplanetpa
 0009:806B5E6C       aRaygunplanetpa_0
 0009:806B5E84       aReversegravity_2
 0009:806B5EA0       aReversekingdom
 0009:806B5EB8       aRockroadcircle
 0009:806B5EC8       aRollingovalpla
 0009:806B5EE0       aSandstreamhigh
 0009:806B5F00       aSandstreammove
 0009:806B5F18       aSandstreammove_0
 0009:806B5F30       aSandupdowntowe_5
 0009:806B5F50       aSandupdowntowe_6
 0009:806B5F70       aSandupdowntowe_7
 0009:806B5F8C       aSpacecannonlau
 0009:806B5FA0       aSpacedustwooda
 0009:806B5FB0       aSpacedustwoodb
 0009:806B5FC0       aSpaceseparator
 0009:806B5FD0       aSpaceseparator_0
 0009:806B5FE0       aStardustrollin
 0009:806B5FF8       aStarduststepa
 0009:806B6008       aStarduststepb
 0009:806B6018       aStrongblock
 0009:806B6024       aStrongblock2d
 0009:806B6034       aSunakazekun
 0009:806B6040       aSweetdecoratep
 0009:806B6060       aSweetsdecorate
 0009:806B6078       aSweetsdecorate_0
 0009:806B6094       aTeresamansionb
 0009:806B60AC       aTeresamansionb_0
 0009:806B60C4       aTeresamansionc_1
 0009:806B60E0       aTeresamansionh_0
 0009:806B60F8       aTeresapicture
 0009:806B6108       aTeresaracepart
 0009:806B611C       aTeresaracepart_0
 0009:806B6134       aTeresaracespac
 0009:806B614C       aTeresaracespac_0
 0009:806B6164       aTeresaracespac_1
 0009:806B617C       aTeresaroomglar
 0009:806B6194       aToyfactorydeco
 0009:806B61B4       aTrapbasea
 0009:806B61C0       aTwistersan
 0009:806B61CC       aTwistersanslim
 0009:806B61DC       aUfosandobstacl_2
 0009:806B61F0       aUfosandobstacl_3
 0009:806B6204       aUfosandobstacl_4
 0009:806B6218       aWaterbazookato
 0009:806B6234       aWaterbazookato_0
 0009:806B6250       aWaterbazookato_1
 0009:806B626C       aWeathervane
 0009:806B6278       aWindmillpropel
 0009:806B628C       aWindmillpropel_0
 0009:806B62A8       aMariofaceplane_1
 0009:806B62C0       aWorldmapaccess_0
 0009:806B62D4       aItemroomdoor
 0009:806B62E8       aChimneyentryob
 0009:806B62F8       aItemcollection_0
 0009:806B6314       aSkyislandstep
 0009:806B6328       aSkyislandparts
 0009:806B6338       aSkyislandparts_0
 0009:806B6348       aSkyislandparts_1
 0009:806B6358       aSkyislandparts_2
 0009:806B6368       aSkyislandparts_3
 0009:806B6378       aSkyislandparts_4
 0009:806B6388       aCloudsliderobs
 0009:806B639C       aCymbalsstep
 0009:806B63A8       aDrumtrampoline
 0009:806B63B8       aCloudgardenwin
 0009:806B63D0       aCloudgardenwin_0
 0009:806B63E8       aZigzagcrushblo
 0009:806B63FC       aZigzagcrushblo_0
 0009:806B6410       aBarrelcolonyli
 0009:806B6424       aBarrelcolonydo
 0009:806B6438       aRockbreakcage
 0009:806B6448       aRockbreakcagel
 0009:806B6458       aFalldownbridge
 0009:806B646C       aConstructionli
 0009:806B6480       aWirecovercage
 0009:806B6490       aRailmovenormal
 0009:806B64A4       aSecretgate
 0009:806B64B0       aSecretgatecoun
 0009:806B64C4       aGliderballoon
 0009:806B64D4       aGlidertreea
 0009:806B64E0       aMagmameteor
 0009:806B64EC       aIcemeteor
 0009:806B64F8       aVsotarocktanki
 0009:806B6514       aMagmaseawave
 0009:806B6524       aStarpiececlust_0
 0009:806B653C       aGororocklanepa
 0009:806B6554       aGororocklanepa_0
 0009:806B656C       aGororocklanepa_1
 0009:806B6588       aGororocklanepa_2
 0009:806B65A0       aKoopajrcastleg
 0009:806B65B8       aKoopajrlv2lift
 0009:806B65D0       aMariolaunchert
 0009:806B65E8       aMariolaunchert_0
 0009:806B6600       aMariolaunchert_1
 0009:806B6618       aLavaseparatewa_1
 0009:806B6630       aGlidercometmed
 0009:806B6648       aCaveincube
 0009:806B6654       aFalldownwall
 0009:806B6664       aGliderchangevi
 0009:806B6680       aGliderchangevi_0
 0009:806B669C       aMemoryroadtowe
 0009:806B66B4       aMemoryroadtico
 0009:806B66D0       aMemoryroaddoor
 0009:806B66E0       aSoundsyncblock
 0009:806B66F0       aSoundsyncblock_0
 0009:806B6700       aRailplacementp
 0009:806B671C       aPoleobstaclepa_3
 0009:806B6730       aPoleobstaclepa_4
 0009:806B6744       aPoleobstaclepa_5
 0009:806B6758       aPoleobstaclepa_6
 0009:806B676C       aDashyoshitimer
 0009:806B6788       aDashyoshitimer_0
 0009:806B67A8       aDashyoshitimer_1
 0009:806B67C8       aDashyoshitimer_2
 0009:806B67E8       aDashyoshitimer_3
 0009:806B6808       aRotateseesawtr
 0009:806B6820       aRotatehammerpr
 0009:806B6838       aWanwanliftupst
 0009:806B684C       aGravitytimerch_0
 0009:806B6864       aGorogoro
 0009:806B6870       aGorogoropair
 0009:806B6880       aAncientcage
 0009:806B688C       aRailmovedisapp
 0009:806B68A4       aOldfortresstop
 0009:806B68B8       aOldfortressund
 0009:806B68D0       aBigrepeatwarpl
 0009:806B68E8       aTimergravitych
 0009:806B6908       aWhitesnowtree
 0009:806B6918       aGhostmazeplane
 0009:806B692C       aAssemblyblockp
 0009:806B6940       aAssemblyblockp_0
 0009:806B6954       aAssemblyblockp_1
 0009:806B6968       aAssemblyblockp_2
 0009:806B697C       aAssemblyblockp_3
 0009:806B6990       aOnimasuplaneto
 0009:806B69AC       aOnimasuplanetp
 0009:806B69C4       aOnimasuplanetr
 0009:806B69E0       aOnimasuplanetr_0
 0009:806B69FC       aOnimasuplanetr_1
 0009:806B6A18       aTreasureboxcoi
 0009:806B6A28       aTreasureboxcra
 0009:806B6A44       aTreasureboxcra_0
 0009:806B6A60       aTreasureboxcra_1
 0009:806B6A78       aTreasureboxcra_2
 0009:806B6A90       aTreasureboxcra_3
 0009:806B6AB0       aTreasureboxcra_4
 0009:806B6AD0       aTreasureboxcra_5
 0009:806B6AEC       aTreasureboxcra_6
 0009:806B6B0C       aTreasureboxemp
 0009:806B6B20       aTreasureboxgol
 0009:806B6B38       aTreasureboxkin
 0009:806B6B50       aTreasureboxkin_0
 0009:806B6B68       aTreasureboxyel
 0009:806B6B80       aSpaceshipstep
 0009:806B6B90       aUfokinoko
 0009:806B6B9C       aAurorasky
 0009:806B6BA8       aBigfallsky
 0009:806B6BB4       aChildroomsky
 0009:806B6BC4       aCloudsky
 0009:806B6BD0       aDesertsky
 0009:806B6BDC       aDotpatternsky
 0009:806B6BF0       aFamicommariosk
 0009:806B6C00       aGalaxysky
 0009:806B6C0C       aGhosttownvr
 0009:806B6C18       aGreenplanetorb
 0009:806B6C2C       aHalfgalaxysky
 0009:806B6C3C       aIllustrationga
 0009:806B6C54       aKoopavs1sky
 0009:806B6C60       aKoopavs2sky
 0009:806B6C70       aMagmamonstersk
 0009:806B6C80       aMarioworldvr
 0009:806B6C90       aMilkywaysky
 0009:806B6C9C       aPhantomsky
 0009:806B6CA8       aRockplanetorbi
 0009:806B6CBC       aStarrysky
 0009:806B6CC8       aSummersky_0
 0009:806B6CD4       aTimechangesky
 0009:806B6CE4       aVrbreadgalaxy
 0009:806B6CF4       aVrbubblespace
 0009:806B6D08       aVrcolorfulspac
 0009:806B6D18       aVrdarkspace
 0009:806B6D24       aVrmechanicalga
 0009:806B6D38       aVrorbit
 0009:806B6D40       aVrsandwichsun
 0009:806B6D50       aVrstormsky
 0009:806B6D5C       aVrwhirlpool
 0009:806B6D68       aVrwireframevr
 0009:806B6D78       aGoodweathersky
 0009:806B6D88       aBrightgalaxysk
 0009:806B6D98       aHoleplanetinsi
 0009:806B6DAC       aHoleplanetinsi_0
 0009:806B6DC8       aOmoteulandsky
 0009:806B6DD8       aWorldmapsyncsk
 0009:806B6DE8       aDarknessroomai
 0009:806B6DF8       aDimensionair
 0009:806B6E08       aFineair
 0009:806B6E10       aHomeair
 0009:806B6E18       aSphereair
 0009:806B6E24       aSunsetair
 0009:806B6E30       aTwilightair
 0009:806B6E3C       aPowerstarhalo_0
 0009:806B6E4C       aQuestioncoin_0
 0009:806B6E5C       aTicocoin
 0009:806B6E68       aCoinlinkgroup_0
 0009:806B6E78       aCirclecoingrou_0
 0009:806B6E88       aCirclepurpleco
 0009:806B6EA0       aCoin_2
 0009:806B6EA8       aPurplecoin_0
 0009:806B6EB4       aPurplerailcoin
 0009:806B6EC4       aRailcoin_0
 0009:806B6ED0       aYellowchip_0
 0009:806B6EE0       aYellowchipgrou
 0009:806B6EF0       aStarpiece_2
 0009:806B6EFC       aStarpiecefollo
 0009:806B6F14       aStarpiecegroup_1
 0009:806B6F28       aStarpiecemothe_0
 0009:806B6F38       aStarpiecespot_0
 0009:806B6F48       aStarpiecespote
 0009:806B6F60       aStarpieceflow_0
 0009:806B6F70       aOceansphere
 0009:806B6F7C       aWaterstream
 0009:806B6F88       aFlag
 0009:806B6F90       aSeagullgroup
 0009:806B6FA0       aSeagullgroupma
 0009:806B6FB8       aWaterplant
 0009:806B6FC4       aFishgroupa
 0009:806B6FD0       aFishgroupb
 0009:806B6FDC       aFishgroupc
 0009:806B6FE8       aFishgroupd
 0009:806B6FF4       aFishgroupe
 0009:806B7000       aFishgroupf
 0009:806B700C       aFlagkoopaa
 0009:806B7018       aFlagkoopab
 0009:806B7028       aFlagkoopacastl
 0009:806B7038       aFlagpeachcastl
 0009:806B704C       aFlagpeachcastl_0
 0009:806B7060       aFlagpeachcastl_1
 0009:806B7074       aFlagracea
 0009:806B7080       aFlagsurfing
 0009:806B708C       aFlagtamakoro
 0009:806B709C       aHipdropswitch
 0009:806B70AC       aHipdroptimersw
 0009:806B70C0       aKeyswitch_0
 0009:806B70CC       aPicketswitch
 0009:806B70DC       aPurplecoincomp
 0009:806B70F8       aSpinleverswitc
 0009:806B7108       aSpinleverswitc_0
 0009:806B7128       aPicketswitchbi
 0009:806B7138       aFountain
 0009:806B7144       aFountainbig
 0009:806B7150       aHeadlight
 0009:806B715C       aBattleshipexpl
 0009:806B7178       aBattleshipexpl_0
 0009:806B7190       aBirdlousel
 0009:806B719C       aBirdlouses
 0009:806B71A8       aDrainpipebubbl
 0009:806B71BC       aDrainpipebubbl_0
 0009:806B71D0       aEffectobjsampl
 0009:806B71E0       aEffectteresa
 0009:806B71F0       aFallgreenleaf
 0009:806B7200       aFallredleaf
 0009:806B720C       aFireworksa
 0009:806B7218       aForestwaterfal
 0009:806B722C       aForestwaterfal_0
 0009:806B7240       aIcelayerbreak_0
 0009:806B7250       aLavahomevolcan
 0009:806B726C       aLavasparksl
 0009:806B7278       aLavasparkss
 0009:806B7284       aSandbreezel
 0009:806B7290       aSandbreezes
 0009:806B729C       aShootingstarar
 0009:806B72B0       aSnows
 0009:806B72B8       aSpacedustl
 0009:806B72C4       aSpacedusts
 0009:806B72D0       aStarpiececlust
 0009:806B72E8       aTestrain
 0009:806B72F4       aTwinfalllakewa
 0009:806B730C       aUfokinokolandi
 0009:806B7328       aWaterdropbotto
 0009:806B7338       aWaterdropmiddl
 0009:806B7348       aWaterdroptop
 0009:806B7358       aWaterfalll
 0009:806B7364       aWaterfalls
 0009:806B7370       aWaterlayerbrea
 0009:806B7380       aCavestream
 0009:806B738C       aPhantomtorch_0
 0009:806B739C       aPhantombonfire_0
 0009:806B73AC       aWaterfortressr_0
 0009:806B73C0       aInvisiblewall1
 0009:806B73D4       aInvisiblewall1_0
 0009:806B73E8       aInvisiblewallj
 0009:806B7400       aInvisiblewallj_0
 0009:806B7418       aPolygoncoderec
 0009:806B7430       aPolygoncoderec_0
 0009:806B744C       aGlobalbarrelgr
 0009:806B7460       aGlobalcubegrav
 0009:806B7474       aGlobalconegrav
 0009:806B7488       aGlobaldiskgrav
 0009:806B749C       aGlobaldisktoru
 0009:806B74B4       aGlobalplanegra
 0009:806B74C8       aGlobalplanegra_0
 0009:806B74E0       aGlobalplanegra_1
 0009:806B7500       aGlobalpointgra
 0009:806B7514       aGlobalsegmentg
 0009:806B752C       aGlobalwiregrav
 0009:806B7540       aZerogravitysph
 0009:806B7554       aZerogravitybox
 0009:806B7564       aZerogravitycyl
 0009:806B7578       aYoshiegg_0
 0009:806B7584       aPulltargetbrid
 0009:806B7598       aPulltargetdraw_0
 0009:806B75AC       aDashfruit
 0009:806B75B8       aYoshifruit
 0009:806B75C4       aYoshifruitbig
 0009:806B75D4       aYoshiblock
 0009:806B75E0       aYoshicapture
 0009:806B75F0       aStarreturndemo
 0009:806B7608       aGrandstarretur
 0009:806B7628       aScenariostarte
 0009:806B7638       aFileselector_0
 0009:806B7648       aClipfieldswitc
 0009:806B7658       aGroupswitchwat
 0009:806B7670       aSoundsyncswitc
 0009:806B7680       aRacerail
 0009:806B768C       aTimerswitch
 0009:806B7698       aSwitchsynchron
 0009:806B76B4       aRepearttimersw
 0009:806B76C8       aDemogroup
 0009:806B76D4       aDemosubgroup
 0009:806B76E4       aMariofaceendst
 0009:806B7708       aCompleteending
 0009:806B7720       aDemotitleanim_0
 0009:806B7730       aMariofaceafter
 0009:806B7758       aMariofaceplane_0
 0009:806B7778       aMeetkoopademoo
 0009:806B778C       aNormalendingde
 0009:806B77A0       aOpeningdemoobj
 0009:806B77B0       aPreparekoopafi
 0009:806B77CC       aSimpledemoexec
 0009:806B77E0       aStaffrolldemoo
 0009:806B77F4       aTransformfacet
 0009:806B7818       aMorphitemneofo
 0009:806B7828       aMorphitemneoic_0
 0009:806B7838       aSpinteachdemoo
 0009:806B7A0C       aBombheired
 0009:806B7A18       aTurn_3
 0009:806B7A20       aWait_19
 0009:806B7A28       aTalk_0
 0009:806B7A30       aZenmai
 0009:806B7C30       aCaretaker
 0009:806B7C3C       aBodycolor
 0009:806B7C48       aBtrampled
 0009:806B7C54       aBspinhit
 0009:806B7C60       aBtalkhelp
 0009:806B7C6C       aBwaitstand
 0009:806B7C78       aBruntalk
 0009:806B7C84       aBwaitrun
 0009:806B7C90       aDirt
 0009:806B7C98       aWait_20
 0009:806B7CA0       aTakeoutstarcar
 0009:806B7CC0       aTakeoutstarcar_0
 0009:806B7CD8       aSpinhit_0
 0009:806B7CE0       aTrampled
 0009:806B7CEC       aTalkangry
 0009:806B7CF8       aTalknormal
 0009:806B7D08       aWaitrun
 0009:806B8028       aCaretakerhunte
 0009:806B8038       aBodycolor_0
 0009:806B8044       aBtrampled_0
 0009:806B8050       aBspinhit_0
 0009:806B805C       aBtalkhelp_0
 0009:806B8068       aBwaitstand_0
 0009:806B85C8       aDreamer_0
 0009:806B85D0       aDreamercommon0
 0009:806B85E4       aDreamerend
 0009:806B85F0       aDreamer_1
 0009:806B85F8       aWait_33
 0009:806B8600       aAppear_12
 0009:806B8608       aWaiting
 0009:806B8610       aWipein
 0009:806B8618       aBgmDream01
 0009:806B8628       aWipeout
 0009:806B8738       aStarcreekgalax
 0009:806B8748       aMagicgalaxy
 0009:806B8754       aGhostattackgho
 0009:806B8768       a2dwater
 0009:806B8770       aIrregular
 0009:806B877C       aHandl0
 0009:806B8784       aHandr0
 0009:806B878C       aGhostattackgho_0
 0009:806B87AC       aDupNonGroup
 0009:806B87BC       aHopper
 0009:806B8D24       jpt_8034B6D4
 0009:806B8D4C       aSmnpctrampled
 0009:806B8D5C       aSvhoneybeetram
 0009:806B8D70       aSvhoneybeepoin
 0009:806B8D80       aSvhoneybeespin
 0009:806B8D90       aSvhoneybeestar
 0009:806B8DA8       aSmlvhoneybeefl
 0009:806B8DB8       aWalkwait_0
 0009:806B8DC4       aWait_21
 0009:806B8DD0       aFlywait
 0009:806B8DD8       aFlylecturewait
 0009:806B9050       aKinopio_0
 0009:806B9058       aPickel
 0009:806B9060       aBody_46
 0009:806B9068       aYoshitonguehit
 0009:806B9078       aBody_47
 0009:806B9080       aTalk_1
 0009:806B9088       aWalk_3
 0009:806B9090       aWaitpickel_0
 0009:806B909C       aTalkpickel_0
 0009:806B90A8       aWalkpickel
 0009:806B90B4       aSpinwait1
 0009:806B90C0       aSpinwait2
 0009:806B90CC       aSpinwait3
 0009:806B90D8       aSwimwait
 0009:806B90E4       aSleep
 0009:806B90EC       aKinopiogoodswe
 0009:806B9104       aKinopiogoodswe_0
 0009:806B9118       aKinopiogoodswe_1
 0009:806B9130       aRightened
 0009:806B913C       aTurnrightened
 0009:806B914C       aStarpiecewait
 0009:806B915C       aKinopiogoodsst
 0009:806B9178       aGetaway
 0009:806B9180       aTakeoutstar
 0009:806B918C       aColorchange_0
 0009:806B9198       jpt_8034C914
 0009:806B91D8       aSmnpctrampled_0
 0009:806B91E8       aSvkinopiopoint
 0009:806B9200       aSvkinopiotramp
 0009:806B9214       aSvkinopiopoint_0
 0009:806B9228       aSvkinopiostarp
 0009:806B9240       aNotice
 0009:806B9248       aTumble
 0009:806B9250       aGetup
 0009:806B9258       aChange_0
 0009:806B9260       aEscape
 0009:806B9268       aSvkinopiopuha
 0009:806B9278       aSmnpcflyout
 0009:806B9488       aWaitstarpiece
 0009:806B9498       aTurnstarpiece
 0009:806B94A8       aTalkstarpiece
 0009:806B94B8       aSpinstarpiece
 0009:806B94C8       aReactionstarpi
 0009:806B94DC       aWait_0
 0009:806B94E4       aTurn
 0009:806B94EC       aTalk
 0009:806B94F4       aSpin
 0009:806B94FC       aReaction
 0009:806B9508       aWaitweapon
 0009:806B9514       aTurnweapon
 0009:806B9520       aTalkweapon
 0009:806B952C       aSpinweapon
 0009:806B9538       aReactionweapon
 0009:806B9548       aWaitpickel
 0009:806B9554       aTurnpickel
 0009:806B9560       aTalkpickel
 0009:806B956C       aSpinpickel
 0009:806B9578       aReactionpickel
 0009:806B95A0       aKinopio_1
 0009:806B95A8       aPickel_0
 0009:806B95B0       aTalk_2
 0009:806B95B8       aWalk_4
 0009:806B95C0       aKinopiobank
 0009:806B9908       aKinopio_2
 0009:806B9910       aPickel_1
 0009:806B9918       aTalk_3
 0009:806B9920       aWalk_5
 0009:806B9928       aColorchange_1
 0009:806B99AC       aAddmailstarpie
 0009:806B99C0       aWait_22
 0009:806B99C8       aSmnpctrampled_1
 0009:806B99D8       aSvkinopiotramp_0
 0009:806B99EC       aSvkinopiopoint_1
 0009:806B9A00       aSvkinopiostarp_0
 0009:806B9A18       aNotice_0
 0009:806B9CF0       aLuigiintrusive_1
 0009:806B9D04       aI
 0009:806B9D1C       aIN301
 0009:806B9D74       aLuigitalknpc
 0009:806B9D84       aTurn_4
 0009:806B9D8C       aWait_23
 0009:806B9D94       aTalk_4
 0009:806B9D9C       aLuigiintrusive
 0009:806B9DB0       aLuiginpc
 0009:806B9DBC       aLuigiintrusive_0
 0009:806B9DD4       aSvluigipoint
 0009:806B9DE4       aInformationlui
 0009:806B9E00       aHead_9
 0009:806B9E08       aJump_0
 0009:806B9F50       aMamemuimuiscor
 0009:806BA840       aMeisterPriorit
 0009:806BA864       aMeisterPriorit_0
 0009:806BA88C       aMeisterPriorit_1
 0009:806BA8B0       aMeisterPriorit_2
 0009:806BA8CC       aMeisterPriorit_3
 0009:806BA8F0       aMeisterPriorit_4
 0009:806BA914       aMeisterPriorit_5
 0009:806BA940       aMeisterPriorit_6
 0009:806BA964       aMeisterPriorit_7
 0009:806BA988       aMeisterPriorit_8
 0009:806BA9AC       aMeisterPriorit_9
 0009:806BA9D0       aMeisterPriorit_10
 0009:806BA9FC       aMeisterPriorit_11
 0009:806BAA28       aMeisterPriorit_12
 0009:806BAA48       aMeisterAfterst
 0009:806BAABC       aMeisterPriorit_13
 0009:806BAAE0       aMeisterAfterst_0
 0009:806BAB00       aMariofaceshipg_1
 0009:806BAB14       aMeisterAfteris
 0009:806BAB34       aMeisterAfterno
 0009:806BAB54       aMeisterAfterst_1
 0009:806BAB74       aMeisterPriorit_14
 0009:806BABA8       aMeisterNormalt
 0009:806BABC4       aMeisterNormalt_0
 0009:806BABE0       aMeisterNormalt_1
 0009:806BABFC       aMeisterNormalt_2
 0009:806BAC18       aMeisterNormalt_3
 0009:806BAC34       aMeisterNormalt_4
 0009:806BAC50       aMeisterNormalt_5
 0009:806BAC6C       aMeisterStarpie
 0009:806BAC9C       jpt_80353EBC
 0009:806BACD8       jpt_80354020
 0009:806BAE58       aObjectdataMiif
 0009:806BAE78       aRflResDat
 0009:806BAEA8       aInitnameobjonm
 0009:806BAF70       aTurn_5
 0009:806BAF78       aWait_24
 0009:806BAF80       aTalk_5
 0009:806BAF88       aBody_48
 0009:806BAF90       aTakeoutstar_0
 0009:806BAF9C       aTakeoutstarmoc
 0009:806BB520       jpt_80357DF8
 0009:806BB540       aSmpenguintramp
 0009:806BB554       aSvpenguinstram
 0009:806BB568       aSvpenguinspoin
 0009:806BB57C       aSvpenguinsspin
 0009:806BB590       aSvpenguinsstar
 0009:806BB5A4       aTalka
 0009:806BB5AC       aTalkb
 0009:806BB5B4       aSmlvpenguinswi
 0009:806BB5C8       aSwimdive
 0009:806BB5D4       aSvpenguinsdive
 0009:806BB774       aPenguincoach
 0009:806BB784       aHead_10
 0009:806BB78C       aTurn_6
 0009:806BB794       aWait_25
 0009:806BB79C       aTalkturn
 0009:806BB7A8       aTalk_6
 0009:806BB7B0       aTrampled_0
 0009:806BB7BC       aReaction_0
 0009:806BB7C8       aPointing
 0009:806BB7D4       aSmpenguintramp_0
 0009:806BB7E8       aSvpenguinltram
 0009:806BB7FC       aSvpenguinlpoin
 0009:806BB810       aSvpenguinlspin
 0009:806BB824       aSmpenguinlspin
 0009:806BB838       aSvpenguinlstar
 0009:806BBA78       aPichan
 0009:806BBA80       aWait_26
 0009:806BBA88       aTalk_7
 0009:806BBA90       aTakeoutstarpic
 0009:806BBAA4       aTalkangry_0
 0009:806BBAB0       aTalkcry
 0009:806BBAB8       aTalksmile
 0009:806BBCE0       aPichanracer
 0009:806BBCEC       aWait_27
 0009:806BBCF4       aTalkangry_1
 0009:806BBD00       aPichanracerrac
 0009:806BBD1C       aColorchange_2
 0009:806BBD28       aTakeoutstarpic_0
 0009:806BBD40       aGlibirdstartwa
 0009:806BBD54       aGlibirdstart
 0009:806BBD68       aGlibirdstarten
 0009:806BBD78       aRaceflap
 0009:806BBD88       aRacefly
 0009:806BBF74       aTakeoutstar_1
 0009:806BBF80       aTakeoutstarsco
 0009:806BBF9C       aScoreattackman
 0009:806BBFAC       aTurn_7
 0009:806BBFB4       aWait_28
 0009:806BBFBC       aTalk_8
 0009:806BC444       aGororockgalaxy
 0009:806BC454       aWanwanfactoryg
 0009:806BCDEC       aScoreattackman_0
 0009:806BCE08       aScoreattackman_1
 0009:806BD0B4       aStarlistboard
 0009:806BD378       aSuperdreamer_1
 0009:806BD388       aSuperdreamerco
 0009:806BD3A0       aSuperdreameren
 0009:806BD3B0       aSuperdreameren_0
 0009:806BD3CC       aHelperwitch
 0009:806BD3D8       aAppear_13
 0009:806BD3E0       aWaita_1
 0009:806BD3E8       aWaitb_1
 0009:806BDCC0       aTicoStarpieceD
 0009:806BDCE0       aTicoStarpiece0
 0009:806BE3A8       aTicofatcoin
 0009:806BE3B4       aWait_29
 0009:806BE3BC       aTalk_9
 0009:806BE3C8       aEatdemo
 0009:806BE3D0       aTicofatgoodsco
 0009:806BE3E4       aTicofatgoodsco_0
 0009:806BE3F8       aTicofatcoinReq
 0009:806BE664       aTicofatstarpie
 0009:806BEC50       aTicoshop
 0009:806BEC5C       aShake
 0009:806BEC64       aTicoshop000
 0009:806BEC70       aSmall0
 0009:806BEC78       aMetamorphosis
 0009:806BEC88       aSmnpctrampled_2
 0009:806BEC98       aSvticoshoptram
 0009:806BECB0       aSvticoshoppoin
 0009:806BECC0       aSmticoshopspin
 0009:806BECD0       aSvticoshopstar
 0009:806BECE8       aDemo_0
 0009:806BECF0       aSmticofatmetai
 0009:806BED04       aSmticofatmeta
 0009:806BED14       aSmmetamorphose
 0009:806BEDF8       aTicoshopdice
 0009:806BEE08       aShake_0
 0009:806BEE10       aLuckydice
 0009:806BF1B4       aTogepinscorer
 0009:806BF948       aBody_49
 0009:806BF950       aShadow_10
 0009:806BF958       aYoshitonguehit_0
 0009:806BF968       aFace0
 0009:806BF970       aTonguehitnpc
 0009:806BFCEC       aScoreattackcou
 0009:806BFD00       aTramplecombo
 0009:806BFD10       aScoreupnormal
 0009:806BFD20       aScoresuccess
 0009:806BFD30       aTimeup
 0009:806C034C       jpt_8037B034
 0009:806C0390       jpt_8037B298
 0009:806C03C0       aPichanrace
 0009:806C03CC       aTicoshopexchan
 0009:806C03E0       aTicoshopwhich
 0009:806C03F0       aDreamer
 0009:806C03F8       aSuperdreamer_0
 0009:806C0408       aMuimuiplay
 0009:806C0418       aScoreattackpla
 0009:806C0428       aScoreattackcon
 0009:806C043C       aGlibirdride
 0009:806C0448       aTicofatcoingiv
 0009:806C0458       aFirewoodboxpla
 0009:806C0468       aGlibirdtutoria
 0009:806C0478       aLuigitalknpc_0
 0009:806C0488       aKinopiobank_0
 0009:806C0494       aLuckeyroom
 0009:806C04A0       aMeistertrade
 0009:806C04B0       aTamakorotutori
 0009:806C04C4       aMeisterconfirm
 0009:806C04D4       jpt_8037B690
 0009:806C086C       aGhoststartwait
 0009:806C087C       aGhoststarwait
 0009:806C088C       aGhoststarwaita
 0009:806C0A24       aSeBmGhostMario
 0009:806C0A40       aSeBvGhostMario
 0009:806C0A68       aSeBmGhostMario_0
 0009:806C0A84       aSeBvGhostMario_0
 0009:806C0AAC       aSeBmGhostMario_1
 0009:806C0AC8       aSeBvGhostMario_1
 0009:806C0DC0       aInfernomario
 0009:806C0DD0       aAppeardemo
 0009:806C0DDC       aShadow_11
 0009:806C0EA4       aInfernomario_0
 0009:806C0EB4       aInfernomarioge
 0009:806C1490       aO
 0009:806C149C       aN_0
 0009:806C39B8       jpt_803934B0
 0009:806C3A50       jpt_80393ADC
 0009:806C4360       jpt_803A0608
 0009:806C468C       aSeSyTrampleCom
 0009:806C46A0       aO_0
 0009:806C46AC       aN_1
 0009:806C46B8       aCannonfleetgal
 0009:806C4BF8       jpt_803B6DE8
 0009:806C4C44       aHipdropsmoke
 0009:806C4C54       aHipdropwater
 0009:806C4C64       aHipdropflower
 0009:806C4C74       aHipdropsand
 0009:806C4C80       aHipdropsnow
 0009:806C4C8C       aMudcircle
 0009:806C4C98       aHoneycircle
 0009:806C4CA4       aMariocloudland
 0009:806C5854       jpt_803BC344
 0009:806C5880       aSleepstart
 0009:806C588C       aSleep_0
 0009:806C5894       aSleep_1
 0009:806C589C       aWait_30
 0009:806C58A4       aBlink
 0009:806C58AC       aSpin_3
 0009:806C58B4       aFall_2
 0009:806C58DC       jpt_803BCFD8
 0009:806C5958       aSplash
 0009:806C5960       aHandl_2
 0009:806C5968       aFootr
 0009:806C5970       aSpine1_1
 0009:806C5978       aSpine2
 0009:806C5980       jpt_803BDCFC
 0009:806C5B34       aLuigi
 0009:806C5B3C       aMarioanime
 0009:806C5B48       aElementend
 0009:806C5B58       aMariotornadoen
 0009:806C5B68       aMariotornadolo
 0009:806C5B7C       aHandr0_0
 0009:806C5B84       aHandl0_0
 0009:806C5B8C       aEyelidV
 0009:806C5D50       jpt_803C3E10
 0009:806C5D88       jpt_803C4084
 0009:806C5DC0       aCap0
 0009:806C5DC8       aCenter_3
 0009:806C5DD0       aAllRoot
 0009:806C5DDC       aColorchange_3
 0009:806C5E3C       jpt_803C6E74
 0009:806C5EDC       jpt_803C761C
 0009:806C6030       aBeeluigi
 0009:806C603C       aBeeluigiArc
 0009:806C604C       aBeemario
 0009:806C6058       aBeemarioArc
 0009:806C6068       aBWing
 0009:806C6070       aBeemariowing
 0009:806C6080       aHopperluigi
 0009:806C6090       aHopperluigiArc
 0009:806C60A0       aHoppermario
 0009:806C60B0       aHoppermarioArc
 0009:806C60C0       aIceluigi
 0009:806C60CC       aIceluigiArc
 0009:806C60DC       aIcemario
 0009:806C60E8       aIcemarioArc
 0009:806C6330       jpt_803CB324
 0009:806C6364       aTornadoelement
 0009:806C642C       jpt_803CB594
 0009:806C6838       aSmokesphere
 0009:806C6848       aSmokesphereloo
 0009:806C6858       aSmokecircle
 0009:806C6868       aSmokecircleloo_0
 0009:806C6878       aWatersphere
 0009:806C6888       aWatersphereloo
 0009:806C6898       aWatercircle
 0009:806C68A8       aWatercircleloo
 0009:806C68B8       aFlowercircle
 0009:806C68C8       aFlowerspherelo
 0009:806C68DC       aSandcircle
 0009:806C68E8       aSandsphereloop
 0009:806C68F8       aSnowsphere
 0009:806C6904       aSnowsphereloop
 0009:806C6914       aSnowcircle
 0009:806C6920       aSnowcircleloop
 0009:806C6930       aSmokespherefol
 0009:806C6944       aSmokespherefol_0
 0009:806C695C       aSmokecirclefol
 0009:806C6970       aSmokecircleloo
 0009:806C6988       aMudsphere
 0009:806C6994       aMudsphereloop
 0009:806C69A4       aMudcircleloop
 0009:806C69B4       aHoneysphere
 0009:806C69C0       aHoneysphereloo
 0009:806C69D0       aHoneycircleloo
 0009:806C6A00       jpt_803D68D4
 0009:806C6A28       aSlipup
 0009:806C7588       aAllroot
 0009:806C7590       aCap1
 0009:806C7598       aCap2
 0009:806C75A0       aCap3
 0009:806C7780       aNormal
 0009:806C7788       aMetal
 0009:806C7790       aFire_2
 0009:806C7798       aHopper_0
 0009:806C77A0       aTeresa_0
 0009:806C77A8       aBone
 0009:806C77B0       aTornado
 0009:806C77B8       aYoshi
 0009:806C77C0       aHorror
 0009:806C77C8       aCloud
 0009:806C77D0       aRock
 0009:806C8610       aDieblackhole
 0009:806C8620       aDieblackholebe
 0009:806C8630       aDieblackholecl
 0009:806C8644       aDieblackholelu
 0009:806C8658       aDieblackholecl_0
 0009:806DC3F8       aSpine1_2
 0009:806DC400       aDamagewait
 0009:806DCD08       aEyelidV_0
 0009:806DCD14       aMarioEyelid0
 0009:806DCD24       aHandl0_2
 0009:806DCD2C       aHandr0_2
 0009:806DCD34       aFootl
 0009:806DCD3C       aFootr_0
 0009:806DCD44       aCenter_4
 0009:806DCD4C       aAllRoot_0
 0009:806DCD58       aSpine1_3
 0009:806DCD60       aFace0_0
 0009:806DCD68       aFlowerspin
 0009:806DD708       jpt_803EF6D4
 0009:806DD7B8       jpt_803EF79C
 0009:806DDBE0       aEye1
 0009:806DDBE8       aEye2
 0009:806DDBF0       aEye3
 0009:806DDBF8       aEye4
 0009:806DF8A0       aPartscontrol
 0009:806DF8B0       aHandl0_1
 0009:806DF8B8       aHandr0_1
 0009:806EA908       aGreen
 0009:806EA910       aBlue
 0009:806EA918       aYellow
 0009:806EA930       aGreentored
 0009:806EA93C       aGreentoblue
 0009:806EA948       aGreentoyellow
 0009:806EA958       aRedtogreen
 0009:806EA964       aBluetogreen
 0009:806EA970       aYellowtogreen
 0009:806EAB28       aYoshiegg
 0009:806EAB34       aBody_50
 0009:806EAB3C       aShadow_12
 0009:806EAE70       aHead_13
 0009:806EAE78       aSpine
 0009:806EAE98       aAllroot_2
 0009:806EAF38       aLockonparams
 0009:806EC070       aBind_1
 0009:806EC2B4       aFluff
 0009:806ED52C       aPlantleaf
 0009:806ED628       aPlantslider
 0009:806ED634       aBind_2
 0009:806ED63C       aRide_0
 0009:806ED7DC       aPlantArc
 0009:806ED7E8       aPlantstalkBti
 0009:806ED8C0       aNomodel
 0009:806ED8C8       aSquare
 0009:806ED8D0       a2way
 0009:806ED8D8       aPolesquare
 0009:806ED8E4       aPoletreea
 0009:806ED8F0       aPoletreeb
 0009:806ED8FC       aTwistertowerga
 0009:806ED910       aBind_3
 0009:806ED918       aRide_1
 0009:806ED920       aPush_1
 0009:806ED928       aPole9m
 0009:806ED930       aPolenomodel
 0009:806ED93C       aPoleArc
 0009:806ED948       aPole
 0009:806ED950       aPolesquareArc
 0009:806ED960       aPoletop
 0009:806ED968       aPolebottom
 0009:806ED974       aPoletopstopmat
 0009:806ED988       aWorldRoot
 0009:806ED994       aPoletree
 0009:806ED9A0       aOjlvpoleappear
 0009:806ED9B0       aSquarepolestar
 0009:806ED9C0       aTreeclimbstart
 0009:806ED9D0       aSquarepolewait
 0009:806ED9E0       aTreewait
 0009:806ED9F0       aSquarepoleturn
 0009:806EDA00       aSquarepoleturn_0
 0009:806EDA10       aSquarepole180t
 0009:806EDA24       aSquarepole180t_0
 0009:806EDA38       aClimbturn
 0009:806EDA44       aShake_1
 0009:806EDA4C       aSquarepoleturn_1
 0009:806EDA60       aSquarepoleclim
 0009:806EDA70       aTreeclimb
 0009:806EDA7C       aSquarepolepush
 0009:806EDA90       aSquarepolefall
 0009:806EDAA0       aTreefall
 0009:806EDAB0       aSePmLvSlipCode
 0009:806EDAC8       aSePmLvPoleSlid
 0009:806EDADC       aTreehandstands
 0009:806EDAF0       aSePmPoleStand
 0009:806EDB04       aSePvLiftUp_0
 0009:806EDB14       aTreehandstandw
 0009:806EDB28       aTreehandstande
 0009:806EDB3C       aTreehandstandt
 0009:806EDB50       aHitreaction_0
 0009:806EDB5C       aSePmGrabObj
 0009:806EDB6C       aLand_5
 0009:806EDB74       aSePmJumpM
 0009:806EDB88       aJumpobj_0
 0009:806EDB90       aTreehandstandj
 0009:806EDBA4       aWalljump
 0009:806EDBB0       aJump_1
 0009:806EDD18       aRockluigirolli
 0009:806EDD30       aRockmariorolli
 0009:806EDD48       aBind_4
 0009:806EDD50       aBody_51
 0009:806EDE78       aCamTypeWonderP
 0009:806EDE90       aCamTypeTripodP
 0009:806EDEA8       aCamTypeCubePla
 0009:806EDEC0       aCamTypeMedianP
 0009:806EDED8       aCamTypeFooFigh
 0009:806EE378       aSwingropeArc
 0009:806EE388       aSwingropeBti
 0009:806EE4D8       aTamakoro_0
 0009:806EE4E4       aSignboardtamak
 0009:806EE548       aRing
 0009:806EE550       aBody_52
 0009:806EE558       aSePvUpset
 0009:806EEDB0       aTrapezeArc
 0009:806EEDC0       aTrapezeropeBti
 0009:806EF95C       aDummygalaxy
 0009:806EF968       aStarcreekgalax_0
 0009:806EF978       aMokumokuvalley_0
 0009:806EF990       aVskoopagravity_0
 0009:806EFE90       aAreaobjinfo
 0009:806EFE9C       aPlanetobjinfo
 0009:806EFEAC       aDemoobjinfo
 0009:806EFEB8       aCameracubeinfo
 0009:806F0068       aGame
 0009:806F0070       aIntermission
 0009:806F0080       aLogo
 0009:806F06DC       jpt_80459A64
 0009:806F0940       aObjectdataMari
 0009:806F0958       aObjectdataLuig
 0009:806F0970       aObjectdataMari_0
 0009:806F098C       aObjectdataLuig_0
 0009:806F09A8       aObjectdataBeem
 0009:806F09C4       aObjectdataBeel
 0009:806F09E0       aObjectdataHopp
 0009:806F09FC       aObjectdataHopp_0
 0009:806F0A18       aObjectdataIcem
 0009:806F0A34       aObjectdataIcel
 0009:806F0A50       aObjectdataInvi
 0009:806F0A70       aObjectdataInvi_0
 0009:806F0A90       aObjectdataTere
 0009:806F0AAC       aObjectdataTere_0
 0009:806F0AC8       aObjectdataMari_1
 0009:806F0AE8       aObjectdataLuig_1
 0009:806F0B08       aObjectdataBone
 0009:806F0B24       aObjectdataBone_0
 0009:806F0B40       aObjectdataMari_2
 0009:806F0B5C       aObjectdataLuig_2
 0009:806F0B78       aObjectdataClou
 0009:806F0B94       aObjectdataClou_0
 0009:806F0BB0       aObjectdataClou_1
 0009:806F0BD0       aObjectdataClou_2
 0009:806F0BF0       aObjectdataRock
 0009:806F0C0C       aObjectdataRock_0
 0009:806F0C28       aObjectdataRock_1
 0009:806F0C50       aObjectdataRock_2
 0009:806F0C78       aObjectdataMari_3
 0009:806F0C94       aObjectdataLuig_3
 0009:806F0CB0       aObjectdataMari_4
 0009:806F0CD0       aObjectdataLuig_4
 0009:806F0CF0       aObjectdataMari_5
 0009:806F0D20       aObjectdataLuig_5
 0009:806F0D50       aObjectdataMari_6
 0009:806F0D6C       aObjectdataLuig_6
 0009:806F0E18       aObjectdataCoco
 0009:806F0E30       aObjectdataWate
 0009:806F0E58       aObjectdataWorl
 0009:806F0E78       aObjectdataWorl_0
 0009:806F0E98       aObjectdataWorl_1
 0009:806F0EB8       aObjectdataWorl_2
 0009:806F0ED8       aObjectdataWorl_3
 0009:806F0EF8       aObjectdataWorl_4
 0009:806F0F18       aObjectdataWorl_5
 0009:806F0F68       aResourcename
 0009:806F0F78       aCommonBcsv
 0009:806F0F84       aSoundCommonBcs
 0009:806F0F98       aScenarioDBcsv
 0009:806F0FAC       aSoundScenarioD
 0009:806F0FC8       aObjinfo
 0009:806F0FD0       aAreaobjinfo_0
 0009:806F0FE8       aSoundemitterpo
 0009:806F0FFC       aSoundplayarea_1
 0009:806F1010       aAudioeffectare_0
 0009:806F1020       aSoundemittersp_1
 0009:806F1034       aSoundemittercu_1
 0009:806F1048       aBgmchangearea_0
 0009:806F1058       aBgmprohibitare
 0009:806F1068       aBgmvolumefadea_0
 0009:806F107C       aGravitybgmctrl
 0009:806F108C       aWorldmapsyncso_0
 0009:806F10D8       aLightctrlarea
 0009:806F10E8       aCommon
 0009:806F10F0       aLayera
 0009:806F10F8       aLayerb
 0009:806F1100       aLayerc
 0009:806F1108       aLayerd
 0009:806F1110       aLayere
 0009:806F1118       aLayerf
 0009:806F1120       aLayerg
 0009:806F1128       aLayerh
 0009:806F1130       aLayeri
 0009:806F1138       aLayerj
 0009:806F1140       aLayerk
 0009:806F1148       aLayerl
 0009:806F1150       aLayerm
 0009:806F1158       aLayern
 0009:806F1160       aLayero
 0009:806F1168       aLayerp
 0009:806F11B4       aStagedataSSSAr
 0009:806F11CC       aSound_0
 0009:806F11D4       aDesign
 0009:806F11DC       aZoneinfo
 0009:806F11E8       aUseresource
 0009:806F11F4       aGhost_0
 0009:806F11FC       aSS_1
 0009:806F1208       aStagedataholde
 0009:806F1218       aJmpPlacement
 0009:806F1228       aJmpMapparts
 0009:806F1238       aJmpStart
 0009:806F1248       aJmpGeneralpos
 0009:806F1258       aJmpPath
 0009:806F1264       aCommonpathinfo
 0009:806F1274       aLId_0
 0009:806F127C       aCommonpathpoin
 0009:806F1294       aCameraId
 0009:806F12A0       aEnName
 0009:806F12A8       aJpName
 0009:806F1470       aGalaxy1
 0009:806F1478       aGalaxy2
 0009:806F1480       aGalaxy3
 0009:806F1488       aGalaxy4
 0009:806F1490       aGalaxy5
 0009:806F1498       aGalaxy6
 0009:806F14A0       aGalaxy7
 0009:806F14C4       aAllstarlist
 0009:806F14D0       aRight
 0009:806F14D8       aBoxarrowr
 0009:806F14E4       aLeft_0
 0009:806F14EC       aBoxarrowl_0
 0009:806F1D18       aGamescreen
 0009:806F1D24       aIndirect_0
 0009:806F1D30       aCamera_0
 0009:806F1D38       aWipemap
 0009:806F1D40       aSystemwipe
 0009:806F1D4C       aUnused
 0009:806F2388       aCustomtagproce
 0009:806F23A0       aNw4rPointerErr
 0009:806F23D4       aNw4rPointerErr_0
 0009:806F2408       aNw4rPointerErr_1
 0009:806F2440       aLengthIsOutOfB
 0009:806F2478       aNw4rPointerErr_2
 0009:806F3338       aFileinfoMessag
 0009:806F334C       aFileinfoMessag_0
 0009:806F3360       aFileinfoMessag_1
 0009:806F3374       aFileinfoMessag_2
 0009:806F3388       aFileinfoMessag_3
 0009:806F339C       aFileinfoMessag_4
 0009:806F33B0       aFileinfoMessag_5
 0009:806F33E0       aFileinfo
 0009:806F33EC       aAppear_8
 0009:806F33F4       aWait_31
 0009:806F33FC       aFilenumber
 0009:806F3408       aFilename
 0009:806F3414       aStar
 0009:806F341C       aTxtday
 0009:806F3428       aTxttime
 0009:806F3430       aMisscounter
 0009:806F343C       aComplete
 0009:806F3448       aFileinfoComple
 0009:806F3460       aFileinfoComple_0
 0009:806F3478       aFileinfoComple_1
 0009:806F3490       aMessage_2
 0009:806F3498       aFileinfoMessag_6
 0009:806F34AC       aFileinfoMessag_7
 0009:806F3E90       aSlope
 0009:806F3E98       aSlopehold
 0009:806F3EA8       aSlopeok
 0009:806F3EB0       aTurnleft
 0009:806F3EBC       aTurnlefthold
 0009:806F3ECC       aTurnleftok
 0009:806F3ED8       aTurndown
 0009:806F3EE4       aTurndownhold
 0009:806F3EF4       aTurndownok
 0009:806F3F24       aTiltguidance
 0009:806F3F34       aAppear_9
 0009:806F40A8       aPosition1
 0009:806F40B4       aPosition2
 0009:806F40C0       aPosition3
 0009:806F40CC       aPosition4
 0009:806F40D8       aPosition5
 0009:806F40E4       aPosition6
 0009:806F40F0       aPosition7
 0009:806F4380       aHomeN
 0009:806F4390       _16HomeButtonLayout::`vtbl'
 0009:806F4570       aBloomeffectPre
 0009:806F4588       aBloomeffectPos
 0009:806F45C0       aAndoyoshistage
 0009:806F45D0       aPostfogArc
 0009:806F45DC       aGradtypeDBti
 0009:806F4828       aInformationobs
 0009:806F4840       aBgmFirstMorphA
 0009:806F4854       aInformationobs_0
 0009:806F4870       aInformationobs_1
 0009:806F4890       aInformationobs_2
 0009:806F48A8       aBgmFireB
 0009:806F48B4       aInformationobs_3
 0009:806F48CC       aBgmIceB
 0009:806F48D8       aInformationobs_4
 0009:806F48F4       aBgmFlyingB
 0009:806F4904       aInformationobs_5
 0009:806F4924       aBgmMutekiB
 0009:806F4938       aInformationobs_6
 0009:806F4950       aInformationobs_7
 0009:806F496C       aInformationobs_8
 0009:806F4988       aInformationobs_9
 0009:806F49A8       aInformationobs_10
 0009:806F49C4       aInformationobs_11
 0009:806F49E0       aInformationobs_12
 0009:806F4A00       aInformationobs_13
 0009:806F4B60       jpt_80479B20
 0009:806F4C70       aAutoscale
 0009:806F4C7C       aSBrlyt
 0009:806F4DA0       a16x9
 0009:806F4DA8       aSArc_0
 0009:806F4DB0       aSBrlan
 0009:806F4DBC       aInddummyTpl
 0009:806F5970       aLeft
 0009:806F5978       aRight_0
 0009:806F5988       aBoxarrowl
 0009:806F5994       aBoxarrowr_0
 0009:806F59A8       aSeSyFileSelMii
 0009:806F59C8       aTxtpage
 0009:806F6BF8       aSaveicon
 0009:806F6C04       aIconsave
 0009:806F6C10       aRotate_2
 0009:806F6C18       aSaveiconpositi
 0009:806F6C68       aStar1
 0009:806F6C70       aStar2
 0009:806F6C78       aStar3
 0009:806F6C80       aStar4
 0009:806F6C88       aStar5
 0009:806F6C90       aStar6
 0009:806F6C98       aNewstar
 0009:806F6CA0       aNewcomet
 0009:806F6CAC       aNewgreencomet1
 0009:806F6CBC       aNewgreencomet2
 0009:806F6CCC       aNewgreencomet3
 0009:806F6CDC       aMokumokuvalley
 0009:806F6CF4       aHoneybeevillag
 0009:806F6D0C       aUndergrounddan_0
 0009:806F6D28       aTwistertowerga_0
 0009:806F6D3C       aKachikochilava
 0009:806F6D58       aWhitesnowgalax
 0009:806F75C4       aStaffrolltitle
 0009:806F75D4       aStaffroll
 0009:806F7610       aMbgmSmg2Staffr
 0009:806F7624       aThankyouluigi
 0009:806F7634       aThankyoumario
 0009:806F86BC       jpt_8049CF30
 0009:806F86E0       aHold
 0009:806F86E8       jpt_8049D1AC
 0009:806F870C       aSeSyDpdBReleas
 0009:806F8720       aRelease
 0009:806F8728       jpt_8049D7B0
 0009:806F874C       aHandarrow
 0009:806F8758       aBlink_0
 0009:806F8760       jpt_8049E644
 0009:806F8784       aPicplayer1
 0009:806F8790       aPicplayer2
 0009:806F879C       aHandtype
 0009:806F87A8       aDpdpointernumb
 0009:806F87C0       aCsContConnect
 0009:806F87D0       aSeSyCsContConn
 0009:806F87E8       aPosition
 0009:806F8A50       aStorybook_0
 0009:806F90B8       aI_0
 0009:806F90FC       aSystemwipe_0
 0009:806F9688       aWatercamerafil
 0009:806F969C       aWatercamerafil_0
 0009:806F9A78       aColor_0
 0009:806F9A80       aWipering
 0009:806F9A8C       aRing_0
 0009:806F9E28       aBoxout
 0009:806F9E30       aZoomoutbutton
 0009:806F9F70       aSeSyTalkFocusI
 0009:806F9F88       aSeSyTalkSelect
 0009:806F9FA0       aSeSyTalkSelect_0
 0009:806FA190       aInstageflagnam
 0009:806FA1A8       aFlagname
 0009:806FA258       _27FunctionAsyncExecutorThread::`vtbl'
 0009:806FA268       aN
 0009:806FA300       aInformationspe
 0009:806FA318       aInformationgre
 0009:806FACE0       aGamesystem
 0009:806FACF8       aOIo
 0009:806FAD0C       aLogo_0
 0009:806FAD28       _10GameSystem::`vtbl'
 0009:806FAE78       aDisc01
 0009:806FAE80       aDisc02
 0009:806FAE88       aDisc03
 0009:806FAE90       aCont01
 0009:806FAE98       aCont10
 0009:806FAEA0       aCont102
 0009:806FAEAC       aErrorwatcher
 0009:806FAEBC       aErrormessageim
 0009:806FAED4       aFreestyleunpla
 0009:806FAF38       aErrormessagear_0
 0009:806FB030       aErrormessagear
 0009:806FB190       aIntermission_0
 0009:806FB1F8       aDestroySceneS
 0009:806FB238       aInitializeScen
 0009:806FB424       aMarioanimeArc
 0009:806FB434       aMarioArc
 0009:806FB440       aMario_0
 0009:806FB448       aLuigiArc
 0009:806FB454       aLuigi_0
 0009:806FB560       aHeapmemorywatc
 0009:806FB578       aHbmcreaterso
 0009:806FB588       aHbminitrso
 0009:806FB594       aHbmcalcrso
 0009:806FB5A0       aHbmdrawrso
 0009:806FB5AC       aHbmgetselectbt
 0009:806FB5C4       aHbmsetadjustfl
 0009:806FB5D8       aHbmstartblacko
 0009:806FB628       aModuledataProd
 0009:806FB640       aModuledataHome
 0009:806FB670       aJpjapanese
 0009:806FB67C       aUsenglish
 0009:806FB688       aUsspanish
 0009:806FB694       aUsfrench
 0009:806FB6A0       aEuenglish
 0009:806FB6AC       aEuspanish
 0009:806FB6B8       aEufrench
 0009:806FB6C4       aEugerman
 0009:806FB6D0       aEuitalian
 0009:806FB6E0       aEudutch
 0009:806FB6E8       aCnsimpchinese
 0009:806FB6F8       aCntradchinese
 0009:806FB708       aKrkorean
 0009:806FB718       aEnglish
 0009:806FB720       aBrlyt
 0009:806FB728       aBrlan
 0009:806FB730       aBrfnt
 0009:806FB738       aMessagefont26B
 0009:806FB74C       aMenufont64Brfn
 0009:806FB760       aNumberfontBrfn
 0009:806FB774       aPicturefontBrf
 0009:806FB788       aMenufont96Brfn
 0009:806FB79C       aStafffont18Brf
 0009:806FB7B0       aSSS_0
 0009:806FB7B8       aSS_2
 0009:806FB7C0       aBrlyt_0
 0009:806FB7C8       aBrlan_0
 0009:806FB7D0       LayoutHolder::`vtbl'
 0009:806FBC28       aMessagedataSys
 0009:806FBC48       aMessagedataLay
 0009:806FBC68       aMessagedataSce
 0009:806FBC8C       aMsbt
 0009:806FBC98       aSMsbf
 0009:806FBCA0       aEmbeddedmessag
 0009:806FBCB4       aEmbeddedmessag_0
 0009:806FBCCC       aMessagedataSAr
 0009:806FBCE0       aSMsbt
 0009:806FBCE8       aNanderror
 0009:806FBCF8       aNand03
 0009:806FBD00       aNand02
 0009:806FBD08       aNand12
 0009:806FBD10       aNand11
 0009:806FBD18       aNand08
 0009:806FBD20       aNand07
 0009:806FBD28       aSystemSave05
 0009:806FBD38       aSystemSave04
 0009:806FBD48       aSeSySaveConfir
 0009:806FBF28       aOverwriteCpp
 0009:806FBF38       aNw4rPointerErr_3
 0009:806FBF6C       aCharwriterSetu
 0009:806FC3B8       aAudioresInfoAc_0
 0009:806FC3D8       aActionsoundBcs_0
 0009:806FC3EC       aParticledataEf
 0009:806FC408       aAutoeffectlist_0
 0009:806FC41C       aParticledataEf_0
 0009:806FC438       aObjname_0
 0009:806FC440       aGroupname_1
 0009:806FC450       aInOnOff
 0009:806FC46C       jpt_804CD82C
 0009:806FC4E0       aStagedata
 0009:806FC4F0       aObjectdataMari_12
 0009:806FC50C       aObjectdataBone_2
 0009:806FC528       aObjectdataClou_5
 0009:806FC544       aObjectdataClou_6
 0009:806FC564       aObjectdataMari_13
 0009:806FC57C       aObjectdataMari_14
 0009:806FC598       aObjectdataMari_15
 0009:806FC5B4       aObjectdataMari_16
 0009:806FC5D0       aObjectdataMari_17
 0009:806FC604       aObjectdataBone_1
 0009:806FC620       aObjectdataClou_3
 0009:806FC63C       aObjectdataClou_4
 0009:806FC65C       aObjectdataLuig_7
 0009:806FC674       aObjectdataLuig_8
 0009:806FC690       aObjectdataLuig_9
 0009:806FC6AC       aObjectdataLuig_10
 0009:806FC6C8       aObjectdataLuig_11
 0009:806FC6FC       aObjectdataMari_11
 0009:806FC718       aObjectdataMari_10
 0009:806FC734       aObjectdataMari_9
 0009:806FC754       aObjectdataMari_8
 0009:806FC770       aObjectdataMari_7
 0009:806FC78C       aObjectdataSpin
 0009:806FC7A8       aObjectdataWate_0
 0009:806FC7C4       aObjectdataPowe
 0009:806FC7E0       aObjectdataKour
 0009:806FC7F8       aObjectdataShad
 0009:806FC81C       aObjectdataStar
 0009:806FC838       aObjectdataStar_0
 0009:806FC858       aObjectdataSear
 0009:806FC878       aLayoutdataScen
 0009:806FC898       aLayoutdataBack
 0009:806FC8B4       aObjectdataScen
 0009:806FC8D8       aObjectdataWipe
 0009:806FC8F8       aObjectdataWipe_0
 0009:806FC918       aObjectdataWipe_1
 0009:806FC938       aLightdataLight
 0009:806FE77C       aOA
 0009:806FF2E8       aAppearpowersta
 0009:806FF2FC       aPurple
 0009:806FF97C       aIsopenscenario
 0009:806FF99C       aIsopenscenario_0
 0009:806FF9C0       aIsopenscenario_1
 0009:806FF9E4       aIsopenscenario_2
 0009:806FFA0C       aIsopenscenario_3
 0009:806FFA38       aIsopenscenario_4
 0009:806FFA60       aIsopenscenario_5
 0009:806FFC50       aNwc24messenger
 0009:806FFDB4       aHomecentergala
 0009:806FFDC8       aMarioonmarioga
 0009:806FFDDC       aCloudgardengal
 0009:806FFDF0       aMimic
 0009:806FFDF8       aHomecentergala_0
 0009:806FFE0C       aPurple_0
 0009:806FFE14       aDimensionbigca
 0009:806FFE30       aBannercreator
 0009:806FFE40       aTmpBannerBin
 0009:806FFE50       aTitleMain
 0009:806FFE5C       aTitleSub
 0009:806FFE68       aSaveiconbanner
 0009:806FFE7C       aSavebannerBti
 0009:806FFE8C       aSaveicon02dBti
 0009:807000A8       aUser
 0009:807000B0       aConfig
 0009:807000B8       aSysconf
 0009:807000C0       aSavedatahandle
 0009:807000D0       aS1d
 0009:80700158       a2bytesFlag
 0009:80700A38       aGalaxy
 0009:80700A40       aMiniflowerhigh
 0009:80700A5C       aGalaxy_1
 0009:80700A64       aStagename_1
 0009:80700A70       aMiniaturename
 0009:80700A80       aStagetype
 0009:80700A8C       aBossgalaxylv3
 0009:80700A9C       aIconoffsetx
 0009:80700AA8       aIconoffsety
 0009:80700D34       aGrandgalaxymap
 0009:80700D5C       aWorldmapnewsan
 0009:80701094       aMinigreencomet
 0009:807010A4       aMinigreencomet_0
 0009:8070145C       aEarthenpipeout
 0009:8070146C       aTurnendl
 0009:80701478       aTurnendr
 0009:80701484       aFlash
 0009:80701EE4       aObjectdataWorl_6
 0009:80701F04       aMariofaceshipg_2
 0009:80701F18       aScenario2
 0009:80701F24       aResourcename_0
 0009:80701F38       aGalaxy_2
 0009:80701F40       aMinigalaxy
 0009:80701F4C       aHidegalaxy
 0009:80701F58       aBossgalaxylv1
 0009:80701F68       aBossgalaxylv2
 0009:80701F78       aBossgalaxylv3_0
 0009:80701F88       aObjectdataSArc
 0009:80701F9C       aMiniflowerhigh_0
 0009:80701FB8       aMinigalaxyshad
 0009:80701FCC       aMiniflag
 0009:80702170       aGalaxy_0
 0009:80702178       aMiniflowerhigh_1
 0009:80702194       aGalaxy_3
 0009:8070219C       aStagename_2
 0009:807021A8       aMiniaturename_0
 0009:807021B8       aPointposindex
 0009:807021C8       aStagetype_0
 0009:807021D4       aScalemin
 0009:807021E0       aScalemax
 0009:807021EC       aPosoffsetx
 0009:807021F8       aPosoffsety
 0009:80702204       aPosoffsetz
 0009:80702210       aNameplateposx
 0009:80702220       aNameplateposy
 0009:80702230       aNameplateposz
 0009:80702440       aPointlink
 0009:807024D8       aPointparts
 0009:807024E4       aWorldwarppoint
 0009:807024F4       aStarroadwarppo
 0009:80702508       aStarcheckpoint
 0009:80702518       aStarpiecemine
 0009:80702528       aEarthenpipe
 0009:80702534       aTicoroutecreat
 0009:80702548       aPartstypename
 0009:80702558       aPointindex
 0009:80702564       aPartsindex
 0009:80702570       aParam00_0
 0009:80702578       aParam01_0
 0009:80702580       aParam02_0
 0009:80702588       aPointpos
 0009:80702594       aValid
 0009:8070259C       aSubpoint
 0009:807025A8       aColorchange_4
 0009:807025B4       aPointpos_0
 0009:807025C0       aLayerno
 0009:807025C8       aClose_2
 0009:80702DE0       aDemointogalaxy
 0009:80702DF0       aDemointobosslv
 0009:80702E00       aDemointobosslv_0
 0009:80702E10       aDemointobosslv_1
 0009:80702F18       aReturnmariopla
 0009:80703094       aWorld02dS
 0009:807033A8       aWorldmapevents
 0009:807033CC       aWorldmapevents_0
 0009:807038F8       aWorldmapnewsst
 0009:80703914       aWorldmapnewsst_0
 0009:80703930       aWorldmapnewsst_1
 0009:8070394C       aWorldmapnewsst_2
 0009:80703968       aWorldmapnewsst_3
 0009:80703984       aWorldmapnewsst_4
 0009:807039A0       aWorldmapnewsst_5
 0009:807039BC       aWorldmapnewsno
 0009:80703C90       jpt_804FF458
 0009:80703D58       aWc2409
 0009:80703D60       aWc2408
 0009:80703D68       aWc2410
 0009:80703D70       aWc24Sendlimit
 0009:80703FC8       aOriginalArenal
 0009:80703FEC       aAbort
 0009:80703FF4       aJkrheapCpp
 0009:80704940       aBadSequence
 0009:80704954       aJkraramarchive
 0009:80704CA8       aSystemReset
 0009:80704CB8       aMachineCheck
 0009:80704CC8       aExternalInterr
 0009:80704CDC       aAlignment
 0009:80704CE8       aProgram
 0009:80704CF0       aFloatingPoint
 0009:80704D00       aDecrementer
 0009:80704D0C       aSystemCall
 0009:80704D18       aTrace
 0009:80704D20       aPerformaceMoni
 0009:80704D34       aBreakPoint
 0009:80704D40       aSystemInterrup
 0009:80704D54       aThermalInterru
 0009:80704D68       aProtection
 0009:80704DB8       aSInSOnLineD
 0009:80704DD0       aF02dNan
 0009:80704DE8       aF02dInf
 0009:80704DF8       aF02dInf_0
 0009:80704E08       aF02d00
 0009:80704E1C       aF02d3e
 0009:80704E28       aFpr
 0009:80704E50       aTrace_0
 0009:80704E78       aAddressBackcha
 0009:80704E98       aSuppressTrace
 0009:80704EAC       a08x08x08x
 0009:80704EC4       aContext08xhSEx
 0009:80704EE4       aContext08xh
 0009:80704EF4       aFpeInvalidOper
 0009:80704F10       aSnan
 0009:80704F18       aInfinityInfini
 0009:80704F30       aInfinityInfini_0
 0009:80704F48       a00
 0009:80704F50       aInfinity0
 0009:80704F60       aInvalidCompare
 0009:80704F74       aSoftwareReques
 0009:80704F88       aInvalidSquareR
 0009:80704FA0       aInvalidInteger
 0009:80704FC0       aFpeOverflow
 0009:80704FD0       aFpeUnderflow
 0009:80704FE4       aFpeZeroDivisio
 0009:80704FFC       aFpeInexactResu
 0009:80705014       aSrr008xhSrr108
 0009:80705030       aDsisr08xhDar08
 0009:8070504C       aGpr
 0009:80705074       aR02d08xhR02d08
 0009:8070509C       aR02d08xhR02d08_0
 0009:807050B8       aSSXSectionD
 0009:807050D0       aGprmap
 0009:807050FC       aR02d08xh
 0009:8070510C       aNoInformation
 0009:80705120       aNoRegisterWhic
 0009:80705148       aSrr0map
 0009:80705174       aSrr008xh
 0009:80705180       aMsr08xhFpscr08
 0009:8070519C       aExceptionOccur
 0009:807051D4       aUserHaltFramem
 0009:80705228       aMap
 0009:80705230       a08xS08xXhS
 0009:80705780       jpt_805181F8
 0009:807057C4       jpt_80518520
 0009:80705A20       jpt_8051C3EC
 0009:80705A50       jpt_8051C150
 0009:80705C68       jpt_80525AA0
 0009:80705C98       jpt_80525C70
 0009:80705CC8       jpt_80525DD8
 0009:80705CF8       jpt_80525F28
 0009:80706768       jpt_805281D4
 0009:807067F8       jpt_805284C4
 0009:80706FE0       jpt_8053C310
 0009:8070700C       jpt_8053BFB4
 0009:80707038       jpt_8053D5C0
 0009:80707230       jpt_805417FC
 0009:807072C8       jpt_805441F8
 0009:80707330       jpt_80544BD0
 0009:80707398       aRvlSdkKpadRele
 0009:807073E0       jpt_80548928
 0009:807074C8       aInvalidVersion
 0009:807074F8       aWarrningCtorsS
 0009:80707520       aWarrningDtorsS
 0009:80707548       aWarrningUnknow
 0009:807075A8       aOslinkUnknownR
 0009:807075D0       aSdaBase
 0009:807075DC       aSda2Base
 0009:807075E8       aErrorIncorrect
 0009:80707610       aRvlSdkRflRelea
 0009:80707658       aShared2Facelib
 0009:80707678       aShared2MenuFac
 0009:8070769C       aShared2MenuFac_0
 0009:807076C0       jpt_80552EB4
 0009:80707700       aRexPpc242550Re
 0009:80707738       jpt_8055BE04
 0009:807077C0       jpt_8055C28C
 0009:807077F0       aShared2Wc24Mbo
 0009:80707804       aShared2Wc24Nwc
 0009:80707820       aShared2Wc24Nwc_0
 0009:8070783C       aNwc24configC
 0009:8070784C       aStopped
 0009:80707858       aRvlSdkNwc24Rel
 0009:807078A4       jpt_8055DF04
 0009:80707968       aWc24sendCtl
 0009:80707978       aWc24recvCtl
 0009:80707988       aWc24recvMbx
 0009:80707998       aWc24sendMbx
 0009:807079A8       aShared2Wc24Mbo_0
 0009:807079C8       aShared2Wc24Mbo_1
 0009:807079E8       a24MbS07dMsg
 0009:807079FC       a24MbR07dMsg
 0009:80707A10       aAbcdefghijklmn
 0009:80707A58       aApplicationOct
 0009:80707A74       aApplicationXWi
 0009:80707A90       aApplicationXWi_0
 0009:80707AAC       aImageJpeg
 0009:80707AB8       aImageXWiiPictu
 0009:80707ACC       aMultipartAlter
 0009:80707AE8       aMultipartMixed
 0009:80707AF8       aMultipartRelat
 0009:80707B0C       aTextHtml
 0009:80707B18       aTextPlain
 0009:80707BA0       aIso2022Jp
 0009:80707BAC       aIso88591
 0009:80707BB8       aIso885910
 0009:80707BC4       aIso885915
 0009:80707BD0       aIso88592
 0009:80707BDC       aIso88593
 0009:80707BE8       aIso88595
 0009:80707BF4       aIso88597
 0009:80707C00       aIso88599
 0009:80707C0C       aShiftJis
 0009:80707C18       aUsAscii
 0009:80707C24       aUtf16be
 0009:80707C30       aUtf32be
 0009:80707C3C       aWindows1252
 0009:80707CE0       aQuotedPrintabl
 0009:80707E88       aDate02dSD02d02
 0009:80707EB0       aXWiiAppid
 0009:80707EC0       aD08x04x
 0009:80707ED0       aXWiiface
 0009:80707EDC       aXWiiAltname
 0009:80707EEC       aContentTypeSNa
 0009:80707F14       aContentTransfe
 0009:80707F38       aContentDisposi
 0009:80707F74       aContentTypeTex
 0009:80707F9C       aContentTransfe_0
 0009:80707FC0       aDevNetKdReques
 0009:80707FD4       aNwc24isetscrip
 0009:80707FE8       aNwc24irequestg
 0009:80708008       aExectrysuspend
 0009:80708020       aShared2Wc24Nwc_1
 0009:80708040       aShared2Wc24Nwc_2
 0009:80708060       aNwc24igettimed
 0009:80708078       aDevNetKdTime
 0009:8070808C       aNwc24isetrtcco
 0009:807080A0       aShared2Wc24Nwc_3
 0009:807080C0       aNwc24iprepares
 0009:807080D8       aDevNetKdReques_0
 0009:807080EC       aNwc24irequests
 0009:80708108       aNoName
 0009:807081B8       jpt_8057EBC4
 0009:807081D8       aSetuparamheapX
 0009:80708220       jpt_80587E5C
 0009:80708248       jpt_80587F58
 0009:80709860       jpt_80588598
 0009:80709934       jpt_80588758
 0009:80709A08       jpt_80589634
 0009:80709A34       aJastrack8xDump
 0009:80709A6C       aBase0x08xCur0x
 0009:80709A90       aRegA0x04xRegB0
 0009:80709ABC       aRegX0x04xRegY0
 0009:80709AE8       aPort030x04x0x0
 0009:80709B10       aPort470x04x0x0
 0009:80709B38       aPort8B0x04x0x0
 0009:80709B60       aPortCF0x04x0x0
 0009:80709CD1       aAudioresWaves
 0009:8070C0A8       aAnonymous_0
 0009:8070C358       aNw4rLytFinalBu
 0009:8070C418       _Q34nw4r3lyt5Group::`vtbl'
 0009:8070C7A0       aRvlSdkOsReleas
 0009:8070C7E8       aRevolutionOs
 0009:8070C7F8       aKernelBuiltSS
 0009:8070C810       aDec112009_0
 0009:8070C81C       a155832
 0009:8070C828       aConsoleType
 0009:8070C838       aPreProductionB
 0009:8070C850       aPreProductionB_0
 0009:8070C86C       aPreProductionB_1
 0009:8070C888       aRetailD
 0009:8070C894       aNdev21
 0009:8070C8A0       aNdev20
 0009:8070C8AC       aNdev12
 0009:8070C8B8       aNdev11
 0009:8070C8C4       aNdev10
 0009:8070C8D0       aRevolutionEmul
 0009:8070C8E8       aEmulationPlatf
 0009:8070C904       aTdevBasedEmula
 0009:8070C920       aFirmwareDDD
 0009:8070C93C       aDDD
 0009:8070C948       aMemoryDMb
 0009:8070C958       aMem1Arena0xX0x
 0009:8070C974       aMem2Arena0xX0x
 0009:8070C990       aOsErrorBootPro
 0009:8070C9E0       aFailedToRunApp
 0009:8070C9F8       aOsErrorAppload
 0009:8070CA50       aOsErrorThisFir
 0009:8070CAB0       aError002AnErro
 0009:8070CC40       aMachineCheckRe
 0009:8070CC58       aHid20xXSrr10xX
 0009:8070CC78       aMachineCheckWa
 0009:8070CCA8       aDmaerrorhandle
 0009:8070CCE4       aTheFollowingEr
 0009:8070CD1D       aRequestedALock
 0009:8070CD5D       aDmaAttemptedTo
 0009:8070CD89       aDmaMissedInDat
 0009:8070D260       aDiscErrorOccur
 0009:8070D279       aTimeoutErrorOc
 0009:8070D295       aUnexpectedErro
 0009:8070D2B5       aTheSpecifiedGa
 0009:8070D2E5       aOsexecFailedTo
 0009:8070D308       aOslaunchdiskYo
 0009:8070D34C       aOsexecC
 0009:8070D358       aOslaunchdiskYo_0
 0009:8070D3A0       aOslaunchdiskSp
 0009:8070D3F4       a00000000000000
 0009:8070E100       aOsresetC
 0009:8070E10C       aOshotresetFali
 0009:8071A208       aDevStmImmediat
 0009:8071A21C       aDevStmEventhoo
 0009:8071A230       aOsstatetmC
 0009:8071A23C       aErrorTheFirmwa
 0009:8071A274       aErrorTheFirmwa_0
 0009:8071A2AC       aErrorOnStmStat
 0009:8071A2D0       aTitle000000010_0
 0009:8071A2FC       jpt_805BEBBC
 0009:8071A318       aTitle000000010
 0009:8071A340       aFailedToRegist
 0009:8071A374       aFailedToSuspen
 0009:8071A3A8       aFailedToSynchr
 0009:8071A3E8       aNwc24iprepares_0
 0009:8071A400       aDevNetKdReques_1
 0009:8071A414       aNwc24suspendsc
 0009:8071A42C       aNwc24resumesch
 0009:8071A444       aNwc24irequests_0
 0009:8071A45C       aNwc24shutdownG
 0009:8071A478       aNwc24isetrtcco_0
 0009:8071A490       aDevNetKdTime_0
 0009:8071A4A8       aShared2SysNand
 0009:8071A4C8       aShared2Expired
 0009:8071A4DC       aOsplaytimeC
 0009:8071A4EC       aPlaytimeDSecon
 0009:8071A508       aRvlSdkExiRelea
 0009:8071A550       aRvlSdkSiReleas
 0009:8071A658       aRvlSdkViReleas
 0009:8071A844       taps
 0009:8071A940       jpt_805C372C
 0009:8071A964       jpt_805C3CAC
 0009:8071A9F0       jpt_805C4440
 0009:8071AA40       aCAUTION
 0009:8071AA6C       aThisTvFormatDe
 0009:8071AA98       aTemporarySolut
 0009:8071AAC4       aIsAvailablePle
 0009:8071AAF0       aModeInRealGame
 0009:8071AB1C       aViconfigureTri
 0009:8071AB68       jpt_805C57C4
 0009:8071AB8C       jpt_805C5BA0
 0009:8071B1C0       aRvlSdkGxReleas
 0009:8071B430       jpt_805CAEFC
 0009:8071B498       jpt_805CB39C
 0009:8071B4DC       jpt_805CB554
 0009:8071B520       jpt_805CB7D8
 0009:8071B6A8       jpt_805CDD1C
 0009:8071B79C       jpt_805CDE4C
 0009:8071B890       jpt_805CE030
 0009:8071B968       jpt_805D0F9C
 0009:8071B9C0       jpt_805D0B78
 0009:8071BA50       aDvdconvertentr
 0009:8071BB18       aWarningDvdopen
 0009:8071BB50       aDvdreadasyncSp
 0009:8071BB84       aDvdreadSpecifi
 0009:8071BBB4       aWarningDvdopen_0
 0009:8071BBF0       aRvlSdkDvdRelea
 0009:8071BC38       aDvdchangediskF
 0009:8071BC6C       jpt_805D3FE4
 0009:8071BD18       jpt_805D4EFC
 0009:8071BDC4       jpt_805D4E54
 0009:8071BE7C       jpt_805D6280
 0009:8071BF28       jpt_805D618C
 0009:8071BF60       jpt_805D6538
 0009:8071BFFC       jpt_805D6788
 0009:8071C038       aShared2Test2Dv
 0009:8071C054       aShared2Test2
 0009:8071C0F8       aAnErrorHasOccu
 0009:8071C45C       aErIsEenFoutOpg
 0009:8071C4F0       aAnErrorHasOccu_0
 0009:8071C788       aError104AnErro
 0009:8071C86C       aError001Unauth
 0009:8071C920       aError001SeHaDe
 0009:8071C95C       aErrore001Rilev
 0009:8071C998       aFout001Ongeoor
 0009:8071C9C8       aDotransactionc
 0009:8071C9FC       aDocovercallbac
 0009:8071CA28       aDvdlowfinishEr
 0009:8071CA50       aIpccltinitRetu
 0009:8071CA70       aDdrallocaligne
 0009:8071CAAC       aAllocationOfDi
 0009:8071CAD4       aAllocationOfPa
 0009:8071CAF4       aDvdlowinitErro
 0009:8071CB40       aDvdlowinitErro_0
 0009:8071CB88       aDvdlowinitErro_1
 0009:8071CBD4       aDvdlowinitIosO
 0009:8071CC08       aNewcontextErro
 0009:8071CC40       aNewcontextNowS
 0009:8071CC70       aNewcontextSome
 0009:8071CCB0       aWarningCalling
 0009:8071CCEC       aDvdlowreaddisk
 0009:8071CD28       aDvdlowopenpart
 0009:8071CD60       aDvdlowopenpart_0
 0009:8071CD98       aDvdlowopenpart_1
 0009:8071CDD8       aDvdlowopenpart_2
 0009:8071CDFC       aSEticketMemory
 0009:8071CE20       aSTmdParameterC
 0009:8071CE44       aSTmdMemoryIsUn
 0009:8071CE64       aSEticketParame
 0009:8071CE90       aDvdlowopenpart_3
 0009:8071CEB8       aSEticketviewPa
 0009:8071CEE4       aSEticketviewMe
 0009:8071CF0C       aDvdlowgetnodis
 0009:8071CF28       aSErrorNullPoin
 0009:8071CF4C       aSNumtmdbytesMe
 0009:8071CF74       aSCertificatesM
 0009:8071CF9C       aSIosIoctlvasyn
 0009:8071CFCC       aDvdlowgetnodis_0
 0009:8071CFF0       aSPointerArgume
 0009:8071D014       aDvdlownodiscop
 0009:8071D030       aDvdlowclosepar
 0009:8071D070       aDvdlowunencryp
 0009:8071D0B0       aDvdlowstopmoto
 0009:8071D0EC       aDvdlowwaitforc
 0009:8071D130       aDvdlowinquiryI
 0009:8071D168       aDvdlowrequeste
 0009:8071D1A4       aDvdlowsetspinu
 0009:8071D1EC       aDvdlownotifyre
 0009:8071D228       aDvdlowresetIos
 0009:8071D260       aDvdlowaudiobuf
 0009:8071D2A4       aDvdlowgetcover
 0009:8071D2EC       aDvdlowgetcover_0
 0009:8071D328       aDvdlowreaddvdI
 0009:8071D360       aDvdlowreaddvdc
 0009:8071D3A0       aDvdlowreaddvdc_0
 0009:8071D3E0       aDvdlowreaddvdp
 0009:8071D420       aDvdlowreaddvdd
 0009:8071D460       aDvdlowreportke
 0009:8071D49C       aDvdlowoffsetIo
 0009:8071D4D4       aDvdlowstoplase
 0009:8071D510       aDvdlowreaddisk_0
 0009:8071D54C       aDvdlowsermeasc
 0009:8071D58C       aDvdlowrequestd
 0009:8071D5D0       aDvdlowrequestr
 0009:8071D614       aDvdlowsetmaxro
 0009:8071D654       aDvdlowreadErro
 0009:8071D694       aDvdlowreadIosI
 0009:8071D6C8       aDvdlowseekIosI
 0009:8071D6FC       aDvdlowgetcover_1
 0009:8071D740       aDvdlowgetcover_2
 0009:8071D778       aDvdlowpreparec
 0009:8071D7BC       aDvdlowprepares
 0009:8071D804       aDvdlowpreparec_0
 0009:8071D84C       aDvdlowclearcov
 0009:8071D890       aDvdlowenabledv
 0009:8071D8D0       aRvlSdkAiReleas
 0009:8071DAB8       aRvlSdkDspRelea
 0009:8071DB00       aDspinitBuildDa
 0009:8071DB20       aDec112009
 0009:8071DB2C       a155555
 0009:8071DB38       aDspIsBootingTa
 0009:8071DB58       aDspBootTaskIra
 0009:8071DB88       aDspBootTaskIra_0
 0009:8071DBB8       aDspBootTaskIra_1
 0009:8071DBE8       aDspBootTaskDra
 0009:8071DC18       aDspBootTaskSta
 0009:8071DC48       aDspAddTaskAdde
 0009:8071DC78       aTmpSys
 0009:8071DC84       aS08xS
 0009:8071DC90       jpt_805DEC4C
 0009:8071DCC0       aRvlSdkNandRele
 0009:8071FB38       aRvlSdkScReleas
 0009:8071FB80       aIplEula
 0009:8071FB8C       aIplSadr
 0009:8071FB98       aNetCtpc
 0009:8071FBA4       aNetProf
 0009:8071FBB0       aNetWcpc
 0009:8071FBBC       aNetWcfg
 0009:8071FBC8       aMplsMovie
 0009:8071FD08       jpt_805E247C
 0009:8071FE28       aRvlSdkWpadRele
 0009:8071FE80       jpt_805E80F0
 0009:8071FEC4       jpt_805E84C0
 0009:8071FF04       aNintendoRvlWbc
 0009:8071FF18       aNintendoRvlCnt
 0009:8071FF2C       aWarningOverwri
 0009:8071FF60       aPleaseCallKpad
 0009:8071FFB8       aPleaseCallKpad_0
 0009:80720008       jpt_805EF0C0
 0009:8072002C       jpt_805F0694
 0009:8072007C       jpt_805F1858
 0009:80720130       jpt_805F3EFC
 0009:80720160       jpt_805F3E18
 0009:80722598       jpt_80608128
 0009:807225C0       jpt_806080B8
 0009:807225E8       aCtrlDataReceiv
 0009:8072260C       aInvalidTransac
 0009:80722644       jpt_80608410
 0009:8072266C       jpt_8060832C
 0009:80722698       aInvalidCommand
 0009:807226A8       aHidHostwritede
 0009:807226C4       aBtaHhWriteDevA
 0009:807226EC       aHidHdevEvtOpen
 0009:80722700       aHidHdevEvtClos
 0009:80722714       aHidHdevEvtRetr
 0009:8072272C       aHidHdevEvtIntr
 0009:80722744       aHidHdevEvtIntr_0
 0009:8072275C       aHidHdevEvtCtrl
 0009:80722774       aHidHdevEvtCtrl_0
 0009:8072278C       aHidHdevEvtHand
 0009:807227A4       aHidHdevEvtVcUn
 0009:807227BC       aUnknownHidEven
 0009:807227D0       aBtaHhCbackHidE
 0009:807227F0       jpt_80608C00
 0009:80722814       jpt_80608B88
 0009:80722838       aNoResourceToSe
 0009:80722868       aWrongDeviceHan
 0009:80722884       aBtaHhNullSt
 0009:80722894       aBtaHhIdleSt
 0009:807228A4       aBtaHhW4ConnSt
 0009:807228B8       aBtaHhConnSt
 0009:807228C8       aUnknownHidHost
 0009:807228E0       aBtaHhSmExecute
 0009:80722914       aHhStateChangeS
 0009:80722944       aBtaHhHdlEventH
 0009:80722970       aBtaHhApiDisabl
 0009:80722988       aBtaHhApiEnable
 0009:807229A0       aBtaHhApiOpenEv
 0009:807229B4       aBtaHhApiCloseE
 0009:807229CC       aBtaHhIntOpenEv
 0009:807229E0       aBtaHhIntCloseE
 0009:807229F8       aBtaHhIntHandsk
 0009:80722A10       aBtaHhIntDataEv
 0009:80722A24       aBtaHhIntCtrlDa
 0009:80722A3C       aBtaHhApiWriteD
 0009:80722A58       aBtaHhSdpCmplEv
 0009:80722A6C       aBtaHhDiscCmplE
 0009:80722A84       aBtaHhApiMaintD
 0009:80722AA0       aBtaHhApiGetDsc
 0009:80722AB8       aBtaHhOpenCmplE
 0009:80722AD0       aBtaHhApiGetAcl
 0009:80722AEC       aUnknownHidHost_0
 0009:80722B08       jpt_80609658
 0009:80722B48       aFoundKdevCbDHi
 0009:80722B6C       aInUseDKdevDHid
 0009:80722BA0       aBtaHhFindCbInd
 0009:80722BCC       aSubclass0x2x
 0009:80722BE0       aBtaHhParseKeyb
 0009:80722C20       aAltKeyPressed
 0009:80722C30       aAltKeyNotPress
 0009:80722C44       aThisChar02x
 0009:80722C58       aBtaHhparsekeyb
 0009:80722CA0       aBtaHhParseMice
 0009:80722CFC       aMiceButton0x2x
 0009:80722D10       aMiceMoveXDYD
 0009:80722D2C       aBtaHhTraceDevD
 0009:80722D68       aKdevDInUseDHan
 0009:80722D8C       aAttrMask04xSta
 0009:80722E08       aDuplicateBtmAc
 0009:80722E48       aSetpackettypeM
 0009:80722E68       aRoleChangeRequ
 0009:80722EC4       aBtmSetlinkpoli
 0009:80722F00       aBtmSetlinkpoli_0
 0009:80722F38       aBtmSetlinkpoli_1
 0009:80722F78       aBtmSetlinkpoli_2
 0009:80722FB0       aBtmReadlinkpol
 0009:80722FE8       aBtmReadclockof
 0009:80723024       aRoleSwitchEven
 0009:8072305C       aBtmSetqosBdadd
 0009:8072308C       aBtmPFlowDelayV
 0009:807230B4       aBtmReadrssiRem
 0009:807230E8       aBtmReadlinkqua
 0009:80723124       aBtmRssiComplet
 0009:80723154       aBtmLinkQuality
 0009:80723194       aBtmBeforeScoSe
 0009:807231C4       aBtmLastScoRemo
 0009:807231F4       aBtmLastScoRemo_0
 0009:80723228       aBtmSetafhchann
 0009:80723258       aBtmResetComple
 0009:8072326C       aLocalSupported
 0009:80723298       aLocalSupported_0
 0009:807232C4       aBtmBtmVendorsp
 0009:80723304       aBtmUnableToSen
 0009:80723348       aBtmEventReceiv
 0009:80723388       aBtmBtmWritepag
 0009:807233B0       aBtmBtmWritevoi
 0009:807233E0       aBtmBtmEnablete
 0009:807233F8       aBtmBtmReadstor
 0009:80723424       aBtmBtmWritesto
 0009:80723450       aBtmBtmDeletest
 0009:80723488       aBtmSetdiscover
 0009:807234E4       aBtmSetconnecta
 0009:80723538       aBtmCancelinqui
 0009:80723554       aBtmStartinquir
 0009:8072358C       aBtmReadremoted
 0009:807235CC       aBtmCancelremot
 0009:807235EC       aBtmInqdbreadBd
 0009:80723620       aBtmWarningSetE
 0009:8072365C       aBtmInqComplCal
 0009:80723698       aBtmModeChangeA
 0009:807236D8       aBtmEscoConnRsp
 0009:807236FC       aTcsAcceptScoPa
 0009:80723720       aBtmCreatescoES
 0009:80723764       aTxbw0xXRxbw0xX
 0009:807237B4       aBtmScoChkPendU
 0009:80723804       aBtmScoConnReqN
 0009:80723848       aBtmSetescomode
 0009:80723864       aBtmSetescomode_0
 0009:80723898       aTxbw0x08xRxbw0
 0009:807238F8       aBtmReadescolin
 0009:80723920       aBtmChangeescol
 0009:80723964       aBtmChangeescol_0
 0009:8072399C       aBtmEscoProcCon
 0009:807239D8       aBtmSecApplicat
 0009:807239F8       aBtmSetsecurity
 0009:80723A18       aBtmSetsecurity_0
 0009:80723A44       aBtmSetsecurity_1
 0009:80723A70       aBtmSetpintypeP
 0009:80723AB8       aBtmSecRegDIdDI
 0009:80723B00       aSec0xXServiceN
 0009:80723B48       aBtmSecRegOutOf
 0009:80723B78       aSecurityManage
 0009:80723BD8       aSecurityManage_0
 0009:80723C08       aBtmSecbondBda0
 0009:80723C38       aBtmSecbondIlle
 0009:80723C58       aBtmSecbondNoDe
 0009:80723C78       aBtmSecbondAlre
 0009:80723C98       aBtmSecbondAuth
 0009:80723CBC       aBtmSecbondNoBu
 0009:80723CD4       aBtmRestoreMode
 0009:80723CFC       aSecurityManage_1
 0009:80723D30       aSecurityManage_2
 0009:80723D68       aSecurityManage_3
 0009:80723D98       aSecurityManage_4
 0009:80723DE8       aSecurityManage_5
 0009:80723E20       aSecurityManage_6
 0009:80723E64       aSecurityManage_7
 0009:80723EA8       aSecurityManage_8
 0009:80723F00       aSecurityManage_9
 0009:80723F30       aSecurityManage_10
 0009:80723F70       aSecurityManage_11
 0009:80723FAC       aSecurityManage_12
 0009:80723FE4       aSecurityManage_13
 0009:80724018       aSecurityManage_14
 0009:80724048       aSecurityManage_15
 0009:8072407C       aSecurityManage_16
 0009:807240C0       aBtmSecLinkKeyN
 0009:80724104       aTypeD
 0009:80724130       aBtmSecLinkKeyR
 0009:80724170       aBtmSecPinCodeR
 0009:80724194       aBtmSecPinCodeR_0
 0009:807241D4       aBtmSecPinCodeR_1
 0009:80724204       aBtmSecPinCodeR_2
 0009:80724234       aBtmSecPinCodeR_3
 0009:80724284       aBtmSecExecuteP
 0009:807242C4       aL2capNoLcbForL
 0009:807242E8       aSecurityManage_17
 0009:8072430C       aSecurityManage_18
 0009:80724334       aSecurityManage_19
 0009:80724358       aSecurityManage_20
 0009:80724380       aSecurityManage_21
 0009:807243A8       aSecurityManage_22
 0009:807243CC       aBtmSecCollisio
 0009:807243E8       aCtlrHWErrorEve
 0009:80724400       aEventMismatchO
 0009:80724428       aCmdTimeoutNoCm
 0009:80724448       aBtuHciCommandT
 0009:80724478       aWarningGapConn
 0009:807244BC       aGapConnRcvdL2c
 0009:807244E8       aGapConnRcvdL2c_0
 0009:80724510       aGapConnRcvdL2c_1
 0009:80724548       aGapInquiryComp
 0009:80724584       aGapDiscoveryCo
 0009:807245B8       aGapDiscoverySu
 0009:807245E0       aGapRemoteNameC
 0009:80724614       jpt_80615F58
 0009:80724638       aGapInquiryResu
 0009:8072467C       aCod02x02x02xCl
 0009:807246C0       aGapFindaddrbyn
 0009:80724704       aGapFindaddrbyn_0
 0009:80724740       jpt_806161B0
 0009:80724764       jpt_80616118
 0009:80724788       aGapFindaddrbyn_1
 0009:807247CC       jpt_80616364
 0009:807247F0       jpt_806162F4
 0009:80724814       jpt_80616408
 0009:80724838       aHidOriginateSt
 0009:80724850       aHidOriginateFa
 0009:80724868       aHiddProcRepage
 0009:80724888       aHidErrNotRegis
 0009:807248A0       aHidErrInvalidP
 0009:807248B8       aHidErrNoConnec
 0009:807248DC       aSecurityRegist
 0009:807248FC       aSecurityRegist_0
 0009:8072491C       aSecurityRegist_1
 0009:8072493C       aSecurityRegist_2
 0009:8072495C       aSecurityRegist_3
 0009:8072497C       aSecurityRegist_4
 0009:807249A0       aHidControlRegi
 0009:807249C0       aHidInterruptRe
 0009:807249E4       aHidDisconnect
 0009:807249F8       aHidRcvdL2capCo
 0009:80724A2C       aHidRcvdIntrL2c
 0009:80724A60       aHidRcvdIntrL2c_0
 0009:80724A90       aHidRcvdCtlL2ca
 0009:80724AC0       aHidRcvdL2capCo_0
 0009:80724B04       aHidOriginateFa_0
 0009:80724B20       aHidOriginatorS
 0009:80724B40       aHidIntrOrigina
 0009:80724B5C       aHidRcvdUnexpec
 0009:80724B88       aHidGotCtrlConn
 0009:80724BBC       aHidRcvdL2capCf
 0009:80724BE8       aHidRcvdCfgIndS
 0009:80724C14       aHidRcvdCfgCfmC
 0009:80724C40       aHidRcvdL2capDi
 0009:80724C6C       aHidRcvdL2capDi_0
 0009:80724C90       aHidRcvdL2capDi_1
 0009:80724CC0       aHidRcvdL2capDi_2
 0009:80724CE8       aHidRcvdL2capCo_1
 0009:80724D20       aHidRcvdL2capCo_2
 0009:80724D58       aHidRcvdL2capDa
 0009:80724D88       aL2capL2caRegis
 0009:80724DB8       aL2capNoCbRegis
 0009:80724DE0       aL2capInvalidPs
 0009:80724E08       aL2capNoRcbAvai
 0009:80724E30       aL2capL2caDereg
 0009:80724E64       aL2capPsm0x04xN
 0009:80724E98       aL2caConnectreq
 0009:80724EB8       aL2caConnectreq_0
 0009:80724EF0       aL2capConnectRe
 0009:80724F14       aL2capNoRcbForL
 0009:80724F44       aL2capNoLcbForL_0
 0009:80724F68       aL2capApiL2caCo
 0009:80724FA0       aL2capNoCcbForL
 0009:80724FC4       aL2capL2caConnR
 0009:80724FF4       aL2caConnectrsp
 0009:8072502C       aL2caConnectrsp_0
 0009:80725064       aL2capNoLcbForL_1
 0009:80725088       aL2capNoCcbForL_0
 0009:807250AC       aL2capBadIdInL2
 0009:807250E0       aL2caConfigreqC
 0009:80725100       aL2capNoCcbForL_1
 0009:8072512C       aL2caConfigrspC
 0009:80725158       aL2capNoCcbForL_2
 0009:80725184       aL2caDisconnect
 0009:807251A8       aL2capNoCcbForL_3
 0009:807251D4       aL2caDisconnect_0
 0009:807251F8       aL2capNoCcbForL_4
 0009:80725224       aL2caDatawriteC
 0009:8072524C       aL2capNoCcbForL_5
 0009:80725278       aL2capCannotSen
 0009:807252B0       aL2caPingBda02x
 0009:807252E0       aL2capNoLcbForL_2
 0009:80725300       aL2capRejectedS
 0009:80725328       aL2capL2caPingR
 0009:80725358       aL2capNoCcbForL_6
 0009:80725388       aL2caSetaclprio
 0009:807253C0       aL2capNoLcbForL_3
 0009:807253E8       aL2caSetcompres
 0009:80725448       aL2capNoCcbForL_7
 0009:80725470       aL2caFlushCid0x
 0009:807254A0       aL2caGetnumqueu
 0009:807254E0       aL2caGetnumqueu_0
 0009:80725518       jpt_8061CA80
 0009:8072553C       aL2capStClosedE
 0009:80725558       aL2capCallingDi
 0009:8072559C       aL2capCallingCo
 0009:807255D8       jpt_8061CB24
 0009:80725654       aL2capStOrigW4S
 0009:8072567C       jpt_8061CDBC
 0009:807256E8       aL2capStTermW4S
 0009:80725710       aL2capCallingCo_0
 0009:80725740       jpt_8061CF1C
 0009:807257AC       aL2capStW4L2cap
 0009:807257D4       aL2capCallingCo_1
 0009:8072580C       aL2capCallingCo_2
 0009:80725830       aL2capCallingCo_3
 0009:80725870       aL2capCallingCo_4
 0009:807258A8       jpt_8061D094
 0009:80725918       aL2capStW4L2caC
 0009:8072593C       jpt_8061D2D0
 0009:807259AC       aL2capStConfigE
 0009:807259C8       aL2capCallingCo_5
 0009:807259F8       aL2capCallingCo_6
 0009:80725A28       aL2capCallingCo_7
 0009:80725A64       aL2capCallingDi_0
 0009:80725AA4       aL2capCallingDa
 0009:80725AD0       jpt_8061D4AC
 0009:80725B40       aL2capStOpenEvt
 0009:80725B5C       jpt_8061D874
 0009:80725BC8       aL2capStW4L2cap_0
 0009:80725BF0       aL2capCallingDi_1
 0009:80725C20       jpt_8061DAD4
 0009:80725C90       aL2capStW4L2caD
 0009:80725CB8       jpt_8061DCB0
 0009:80725D28       aL2capCannotSen_0
 0009:80725D50       aL2capFailedToA
 0009:80725D70       aL2capGotConnRe
 0009:80725D98       aL2capGotConnCo
 0009:80725DC0       aL2capGotConnCo_0
 0009:80725DF4       aL2capGotSecCom
 0009:80725E1C       aL2capPingTimeo
 0009:80725E34       aL2capCongested
 0009:80725E60       aL2capCallingCo_8
 0009:80725EA0       aL2capBufferDro
 0009:80725EC0       aL2capCallingCo_9
 0009:80725F00       aLcbDPriorityDX
 0009:80725F48       aL2capDroppingI
 0009:80725F68       aL2capDroppingT
 0009:80725F88       aL2capRcvdSegme
 0009:80725FC0       aL2capExpectedP
 0009:80725FE4       aL2capHoldingAc
 0009:80726038       aL2capUnknownCi
 0009:80726050       aL2capGotIncorr
 0009:80726074       aL2capBadLength
 0009:807260A0       aGotConnectionl
 0009:807260C0       aCommandLenBadP
 0009:807260F4       aL2capMtuRejHan
 0009:80726118       aL2capRejWithCi
 0009:80726148       aL2capRcvdConnR
 0009:80726174       aL2capUnableToA
 0009:80726194       aL2capNoCcbForC
 0009:807261C4       aL2capConRspBad
 0009:807261F0       aL2capCfgRspBad
 0009:8072621C       aL2capRcvdCfgRs
 0009:80726248       aL2capBadCmdCod
 0009:80726264       jpt_8061F5D4
 0009:80726294       aL2capHoldConti
 0009:807262A8       aL2capHoldTimeo
 0009:807262C0       aL2capNoBufferC
 0009:807262DC       aL2capNoBufferF
 0009:807262FC       aL2capNoBufferF_0
 0009:8072631C       aL2capNoBufferF_1
 0009:8072633C       aL2cuCreateConn
 0009:80726380       aL2capNoBufferF_2
 0009:807263A8       aPortOpenContin
 0009:807263BC       aPortOpenContin_0
 0009:807263E0       aPortStartcnfRe
 0009:807263F8       aPortStartcnfFa
 0009:80726418       aPortStartind
 0009:80726428       aPortParnegindD
 0009:80726448       aPortParnegindP
 0009:80726468       aPortParnegcnfD
 0009:80726494       aPortDlcestabli
 0009:807264B8       aPortDlcestabli_0
 0009:807264E8       aPortPortnegind
 0009:807264F8       aPortPortnegcnf
 0009:80726508       aPortPortnegcnf_0
 0009:80726520       aPortPortnegcnf_1
 0009:80726548       aPortControlind
 0009:80726558       aPortControlind_0
 0009:80726598       aPortControlcnf
 0009:807265A8       aPortLinestatus
 0009:807265BC       aPortDlcrelease
 0009:807265D0       aPortCloseind
 0009:807265E0       aPortTimeoutclo
 0009:807265F8       aPortDataindWit
 0009:8072661C       aPortDataindBuf
 0009:80726650       aPortFlowindFcD
 0009:80726664       aSendingRfcommD
 0009:8072667C       aPortRfcClosedI
 0009:807266A8       aPortRfcClosedS
 0009:807266D8       aPortSelectMtuB
 0009:807266F8       aPortSelectMtuS
 0009:80726730       aPortSelectMtuS_0
 0009:80726768       aPortSelectMtuA
 0009:80726790       aPortSelectMtuC
 0009:807267D8       aRfcPortClosedD
 0009:807267F0       aPortDataindDat
 0009:80726820       aRfcFindLcidMcb
 0009:8072683C       aRfcFindLcidMcb_0
 0009:80726874       aRfcommConnectc
 0009:80726890       aRfcommConfigin
 0009:807268AC       aRfcommConfigcn
 0009:807268C8       aRfcommDisconne
 0009:807268E8       aRfcommBufdatai
 0009:80726904       aRfcommCongesti
 0009:80726934       aRfcommCongesti_0
 0009:80726960       jpt_80624334
 0009:8072697C       aRfcMxSmStateId
 0009:8072699C       aMxErrorStateDE
 0009:807269B8       aRfcMxSendConfi
 0009:807269D0       aRfcommMxIgnore
 0009:807269F8       jpt_806243CC
 0009:80726A2C       aRfcMxSmStateWa
 0009:80726A54       aRfcMxSmStateCo
 0009:80726A78       jpt_806247A0
 0009:80726A9C       aRfcMxSmSabmeWa
 0009:80726AC0       jpt_806248C4
 0009:80726AFC       aRfcMxSmStateWa_0
 0009:80726B20       aRfcMxSmStateCo_0
 0009:80726B44       jpt_80624B4C
 0009:80726B74       aRfcMxSmStateDi
 0009:80726B9C       jpt_80624C68
 0009:80726BD8       aRfcMxConfCnfPC
 0009:80726BFC       aRfcMxConfIndPC
 0009:80726C18       aNullPortEventD
 0009:80726C2C       aPortErrorState
 0009:80726C4C       aPortStateClose
 0009:80726C70       jpt_80625020
 0009:80726CAC       aPortStateSabme
 0009:80726CD8       jpt_80625194
 0009:80726D14       aPortErrorState_0
 0009:80726D40       aPortStateTermW
 0009:80726D70       jpt_80625338
 0009:80726DB0       aPortErrorState_1
 0009:80726DE0       aPortStateOrigW
 0009:80726E10       jpt_806254F4
 0009:80726E50       aPortStateOpene
 0009:80726E74       jpt_8062563C
 0009:80726EB0       aPortStateDiscW
 0009:80726EDC       jpt_80625824
 0009:80726F18       aMxPnWhileDisco
 0009:80726F40       aBadLength1D
 0009:80726F50       aBadLength2DD
 0009:80726F64       aBadSabme
 0009:80726F70       aBadDisc
 0009:80726F7C       aBadUihInvalidD
 0009:80726F94       aBadUihFcs
 0009:80726FA4       aBadUihResponse
 0009:80726FB8       aIllegalMxFrame
 0009:80726FD8       aBadMxFrame
 0009:80726FE8       aBadPnFrame
 0009:80726FF8       aBadMscFrame
 0009:80727008       aBadRpnFrame
 0009:80727018       aRfcTimerStop
 0009:80727028       aRfcTimerStartT
 0009:80727048       aRfcPortTimerSt
 0009:8072706C       aRfcPortTimerSt_0
 0009:80727080       aRfcPortClosed
 0009:80727090       aRfcIncCreditD
 0009:807270A8       aSdpInitdiscove
 0009:807270F8       aSdpAddattribut
 0009:80727134       aSdpAdduuidsequ
 0009:80727168       aDeletingAttrId
 0009:80727190       aSdpUnexpPduDIn
 0009:807271B8       aSdpRcvdService
 0009:807271E0       aSdpWrongType0x
 0009:80727208       aSdpBadLenInAtt
 0009:80727228       aSdpDbFull
 0009:80727238       aSdpBadType0x02
 0009:80727268       aSdpAttrNesting
 0009:80727284       aSdpBadLenInUui
 0009:807272A4       aSdpBadLenInBoo
 0009:807272C8       jpt_8062AD28
 0009:807272F0       aServiceDiscove
 0009:80727304       aSecurityRegist_5
 0009:80727328       aSecurityRegist_6
 0009:80727350       aSdpRegistratio
 0009:80727368       aSdpRcvdL2capCo
 0009:807273A0       aSdpRcvdConnCnf
 0009:807273CC       aSdpGotConnCnfS
 0009:807273F8       aSdpRcvdConnCnf_0
 0009:80727428       aSdpRcvdL2capCf
 0009:80727454       aSdpRcvdCfgIndS
 0009:80727480       aSdpRcvdCfgCfmC
 0009:807274AC       aSdpDisconnectC
 0009:807274C8       aSdpRcvdL2capDi
 0009:807274F4       aSdpRcvdL2capDi_0
 0009:80727518       aSdpIgnoredL2ca
 0009:80727550       aSdpRcvdL2capDa
 0009:8072757C       aSdpNoSpareCcbF
 0009:80727598       aSdpOriginateSt
 0009:807275B0       aSdpOriginateFa
 0009:807275C8       aSdpRcvdL2capDi_1
 0009:807275F8       aSdpRcvdL2capDi_2
 0009:80727620       aSdpCcbTimeoutI
 0009:80727650       aSdpServerGotUn
 0009:80727674       aSdpNoBufForSea
 0009:80727690       jpt_8062CE28
 0009:807276D4       aSdpSdpuBuildNS
 0009:8072770C       aSdpNoBufForErr
 0009:80727728       jpt_8062D128
 0009:80727748       jpt_8062D054
 0009:80727768       jpt_8062D5D4
 0009:807278C8       jpt_8062F548
 0009:80727C28       jpt_80631C60
 0009:80727D08       jpt_80633108
 0009:80727E58       jpt_80634064
 0009:80727F38       jpt_8063498C
 0009:80727F58       jpt_806347F4
 0009:80727F78       jpt_806346A8
 0009:807280C8       jpt_80637C60
 0009:807281A8       jpt_806391BC
 0009:80728368       jpt_8063EAA8
 0009:80728520       aMetrotrkForRev
 0009:807285D8       jpt_80640C78
 0009:807285F4       jpt_80640E88
 0009:80728610       aMetrotrkOption
 0009:8072862F       aEnable
 0009:80728637       aDisable
 0003:807286B0       sMutex__Q22MR14MutexHolder_1_
 0003:8072B870       sMutex__Q22MR14MutexHolder_2_
 0003:8072B894       MainLoopFrameworkAlarm::sList(void)
 0003:8072C360       J3DSys::mCurrentMtx(void)
 0003:8077E4C0       __OSRebootParams
 0003:8077E530       __OSErrorTable
 0003:807CCE30       jpt_806352FC
 0003:807CD370       gDBCommTable
 0003:807CEE38       gTRKState
 0001:807CF360       aS_5
 0001:807CF364       a4x3
 0001:807CF378       aFur_0
 0001:807CF381       aUr
 0001:807CF388       aSx
 0001:807CF38C       aSy
 0001:807CF390       aSz
 0001:807CFAD8       aId_0
 0001:807CFAE0       aEye
 0001:807CFAF8       aIce
 0001:807CFAFC       aWet
 0001:807CFB00       aOil
 0001:807CFB04       aFur
 0001:807CFB08       aMud
 0001:807CFE80       aMoc
 0001:807CFEB8       aNpc
 0001:807CFEC4       aFly
 0001:807CFEC8       aJoy
 0001:807CFEE8       aMoc_0
 0001:807D0408       aJp
 0001:807D040C       aUs
 0001:807D0410       aEu
 0001:807D0414       aCn
 0001:807D0418       aKr
 0001:807D05BC       ARALT_AramStartAdr
 0001:807D05C0       aS_3
 0001:807D05E0       aDsi
 0001:807D05E4       aIsi
 0001:807D05F8       aS_4
 0001:807D06F0       aTplC
 0001:807D06F8       __RFLVersion
 0001:807D06FC       sRFLLastErrCode
 0001:807D0710       NETRexPPCVersionPrintableString
 0001:807D0740       aSS_3
 0001:807D0748       a24
 0001:807D0770       aEucJp
 0001:807D0778       aEucKr
 0001:807D0780       aGb2312
 0001:807D0788       aUtf8
 0001:807D0790       a7bit
 0001:807D0798       a8bit
 0001:807D07A0       aBase64
 0001:807D07B0       aData
 0001:807D07C4       aS
 0001:807D07D8       aCSS
 0001:807D07E0       aS_0
 0001:807D07E4       aFrom
 0001:807D07EC       aTo
 0001:807D07F4       aJan
 0001:807D07F8       aFeb
 0001:807D07FC       aMar
 0001:807D0800       aApr
 0001:807D0804       aMay
 0001:807D0808       aJun
 0001:807D080C       aJul
 0001:807D0810       aAug
 0001:807D0814       aSep
 0001:807D0818       aOct
 0001:807D081C       aNov
 0001:807D0820       aDec
 0001:807D092C       aRva1
 0001:807D0934       a08x
 0001:807D093C       aS_1
 0001:807D0940       aOsC
 0001:807D0948       aHaea
 0001:807D0958       __OSCurrHeap
 0001:807D0960       __OSArenaLo
 0001:807D0964       s_mem2ArenaLo
 0001:807D0968       __OSFpscrEnableBits
 0001:807D0970       a016llx
 0001:807D0978       aD
 0001:807D0980       aS_2
 0001:807D0998       IpcBufferLo
 0001:807D09A0       PlayRecordState
 0001:807D09A8       aExpired
 0001:807D09C0       __VIVersion
 0001:807D09D8       aViC
 0001:807D0A60       __DVDLongFileNameFlag
 0001:807D0A68       aDvdfsC
 0001:807D0A7C       aDvdC
 0001:807D0AA0       aDevDi
 0001:807D0AC8       aS08x
 0001:807D0AD0       aSS_4
 0001:807D0AF0       aSS_5
 0001:807D0B1C       aIplCb
 0001:807D0B24       aIplAr
 0001:807D0B30       aIplArn
 0001:807D0B38       aIplCd
 0001:807D0B40       aIplCd2
 0001:807D0B48       aIplDh
 0001:807D0B50       aIplE60
 0001:807D0B58       aIplFrc
 0001:807D0B60       aIplIdl
 0001:807D0B68       aIplInc
 0001:807D0B70       aIplLng
 0001:807D0B78       aIplNik
 0001:807D0B80       aIplPc
 0001:807D0B88       aIplPgs
 0001:807D0B90       aIplSsv
 0001:807D0B98       aIplSnd
 0001:807D0BA0       aIplUpt
 0001:807D0BA8       aNetCnf
 0001:807D0BB0       aDevBtm
 0001:807D0BB8       aDevVim
 0001:807D0BC0       aDevCtc
 0001:807D0BC8       aDevDsm
 0001:807D0BD0       aBtDinf
 0001:807D0BD8       aBtCdif
 0001:807D0BE0       aBtSens
 0001:807D0BE8       aBtSpkv
 0001:807D0BF0       aBtMot
 0001:807D0BF8       aBtBar
 0001:807D0C00       aDvdCnf
 0001:807D0C08       aWwwRst
 0001:807D0C10       aIplTid
 0001:807D0C18       aScv0
 0001:807D0C20       aSced
 0001:807D0C28       aArea
 0001:807D0C30       aGame_2
 0001:807D0C38       aArcC
 0001:807D0C40       __esFd
 0001:807D0C48       aDevEs
 0001:807D0C60       aDevFs
 0001:807D0C80       aRfnj
 0001:807D0C88       aWudC
 0001:807D0C98       aUsb
 0001:807D0D04       aTrue
 0001:807D0D0C       aFalse
 0001:807D0D20       aTrue_0
 0001:807D0D28       aFalse_0
 0001:807D0D30       aBadUa
 0001:807D0D38       aBadDm
 0001:807D0D40       fragmentID
 0001:807D0D54       __float_huge
 0003:807D0DA0       gAcosTable__22_unnamed_MathUtil_cpp_
 0003:807D0DA4       sInstance__29SingletonHolder_10GameSystem_
 0003:807D0DAC       sInstance__36SingletonHolder_17HeapMemoryWatcher_
 0003:807D2208       NrvBombHei::HostTypeNrvLaunch::sInstance(void)
 0003:807D223C       NrvBombHei::HostTypeNrvExplode::sInstance(void)
 0003:807D2240       NrvBombHei::HostTypeNrvBindStarPointer::sInstance(void)
 0003:807D4810       sInstance__34SingletonHolder_15NameObjRegister_
 0003:807D5C50       NrvGameSystem::GameSystemInitializeAudio::sInstance(void)
 0003:807D5C54       NrvGameSystem::GameSystemInitializeLogoScene::sInstance(void)
 0003:807D5C58       NrvGameSystem::GameSystemLoadStationedArchive::sInstance(void)
 0003:807D5C5C       GameSystem::isPreparedReset(const(void))
 0003:807D5C60       NrvGameSystem::GameSystemNormal::sInstance(void)
 0003:807D5C64       sInstance__49SingletonHolder_30GameSystemResetAndPowerProcess_
 0003:807D5CA0       NrvGameSystemSceneController::GameSystemSceneControllerNotInitialized::sInstance(void)
 0003:807D5D08       HBMCreateRSO
 0003:807D5D28       MainLoopFramework::sManager(void)
 0003:807D5D60       sInstance__Q231_unnamed_NANDErrorSequence_cpp_40NANDErrorSequenceLessBlockOrInodeConfirm
 0003:807D5D98       WPadRumble::sInstanceForCallback(void)
 0003:807D6114       JKRHeap::sCurrentHeap(void)
 0003:807D6118       JKRHeap::sRootHeap(void)
 0003:807D611C       JKRHeap::mErrorHandler(void)
 0003:807D6288       JUTVideo::sManager(void)
 0003:807D628C       JUTVideo::sVideoLastTick(void)
 0003:807D6290       JUTVideo::sVideoInterval(void)
 0003:807D62A0       JUTXfb::sManager(void)
 0003:807D62F0       J3DShape::sOldVcdVatCmd(void)
 0003:807D6388       sRFLManager
 0003:807D638C       sRFLLastReason
 0003:807D63A4       WrBufferMutex
 0003:807D63A8       InstanceIdGen
 0003:807D65DC       nw4r::db::sAssertionConsole(void)
 0003:807D65E8       nw4r::lyt::Pane::typeInfo(void)
 0003:807D65F0       nw4r::lyt::Layout::mspAllocator(void)
 0003:807D6624       __OSInNandBoot
 0003:807D6640       AreWeInitialized
 0003:807D6650       BI2DebugFlagHolder
 0003:807D6654       BI2DebugFlag
 0003:807D6658       BootInfo
 0003:807D6680       __OSArenaHi
 0003:807D6684       s_mem2ArenaHi
 0003:807D6688       __OSNextPartitionType
 0003:807D6690       DVDLowIntType
 0003:807D66B0       __OSLastInterruptSrr0
 0003:807D66E8       Reschedule
 0003:807D66EC       RunQueueHint
 0003:807D66F0       RunQueueBits
 0003:807D66F8       IpcBufferHi
 0003:807D6700       ResetDown
 0003:807D6704       StmReady
 0003:807D6708       StmImDesc
 0003:807D6710       StmEhRegistered
 0003:807D6714       StmVdInUse
 0003:807D6718       PowerCallback
 0003:807D671C       ResetCallback
 0003:807D6728       PlayRecordGet
 0003:807D6730       PlayRecordTerminate
 0003:807D6734       PlayRecordTerminated
 0003:807D6738       PlayRecordRetry
 0003:807D673C       PlayRecordLastError
 0003:807D6790       IsInitialized
 0003:807D679C       __VIDimming_All_Clear
 0003:807D67A0       THD_TIME_TO_DIMMING
 0003:807D67A4       NEW_TIME_TO_DIMMING
 0003:807D67A8       THD_TIME_TO_DVD_STOP
 0003:807D67AC       _gIdleCount_dimming
 0003:807D67B0       _gIdleCount_dvd
 0003:807D67B4       __VIDimmingState
 0003:807D67C0       changeMode
 0003:807D67D0       shdwChangeMode
 0003:807D6800       CurrTvMode
 0003:807D6828       g_current_time_to_dim
 0003:807D682C       __VIDVDStopFlag_Enable
 0003:807D6830       __VIDimmingFlag_Enable
 0003:807D6834       flushFlag3in1
 0003:807D6838       flushFlag
 0003:807D68C0       currentDirectory
 0003:807D68D0       MaxEntryNum
 0003:807D68D4       FstStringStart
 0003:807D68D8       FstStart
 0003:807D68DC       BootInfo_1
 0003:807D68FC       FirstTimeInBootrom
 0003:807D6918       __DVDLayoutFormat
 0003:807D6950       MotorState
 0003:807D6968       bootInfo
 0003:807D6988       FatalFunc
 0003:807D6A40       s_libState
 0003:807D6A64       ItemIDMaxPlus1
 0003:807D6A68       ItemIDOffsetTblOffset
 0003:807D6A74       IPCCurrentBufferLo
 0003:807D6A78       IPCCurrentBufferHi
 0003:807D6A7C       IPCBufferLo
 0003:807D6A80       IPCBufferHi
 0003:807D6AB4       hId_1
 0003:807D6AB8       __PADSpec
 0003:807D6BE0       __global_destructor_chain
 0003:807D6BF0       errno
 0003:807D6C20       gIsInitialized
 0003:807D6C28       TRK_mainError
 0003:807D6C48       gTRKInputPendingPtr
 0003:807D6C70       __DBMtrCallback
 0003:807D6C74       __DBDbgCallback
 0003:807D6C7C       __DBRecvMail
 0003:807D6C80       __DBRecvDataSize
 0001:807D6E98       aId
 0001:807D6FF8       aB6Ac4
 0001:807D73FC       aFff_2
 0001:807D89B8       aFffbh
 0001:807D8B5C       aB6Aa
 0001:807D94FC       aFffa
 0001:807D9504       aC4
 0001:807D9540       a333
 0001:807D95F8       aS33c4
 0001:807D9928       aC6A
 0001:807D9A64       aFffa_0
 0001:807D9A6C       aB4
 0001:807D9B40       aFff
 0001:807DA0EC       a333bp
 0001:807DA4D0       a333_0
 0001:807DA6C8       aFff_0
 0001:807DA944       aS33dz
 0001:807DA94C       aIt
 0001:807DA950       aCh
 0001:807DAD14       a333bh
 0001:807DAD70       aFff_1
 0001:807DAE50       a333_1
 0001:807DB0B8       aFffa_1
 0001:807DB26C       a333a
 0001:807DB758       aB6A
 0001:807DB7D4       aFff_3
 0001:807DB7E0       aA
 0001:807DB818       aS33333
 0001:807DB8CC       aFffa_2
 0001:807DB8D4       aB
 0001:807DBAF4       aB6A_0
 0001:807DC0A8       aB6AFff
 0001:807DC150       aFffdz
 0001:807DC1DC       aFff_4
 0001:807DC544       aFff_5
 0001:807DC684       a333_2
 0001:807DC9D8       aB6Aap
 0001:807DCBDC       aB6Abh
 0001:807DD154       a333_3
 0001:807DD590       a333_4
 0001:807DD634       a333bh_0
 0001:807DD7FC       a333ch
 0001:807DD894       aB6Aa_0
 0001:807DD9F0       a333_5

Program entry point at 0001:00000050
