
 Start         Length     Name                   Class
 0001:00000000 000002720H .init                  CODE
 0004:00000000 000000300H extab                  DATA
 0005:00000000 000000480H extabindex             DATA
 0002:00000000 00063CE80H .text                  CODE
 0006:00000000 000000E80H .ctors                 DATA
 0007:00000000 000000020H .dtors                 DATA
 0008:00000000 000017BC0H .rodata                DATA
 0009:00000000 0000CBEE0H .data                  DATA
 0003:00000000 0000A6CA0H .bss                   BSS
 0001:00000000 000001A60H .sdata                 DATA
 0003:00000000 000005F20H .sbss                  DATA
 0001:00000000 00000C320H .sdata2                DATA
 0003:00000000 0000001C8H .sbss2                 DATA


  Address         Publics by Value

 0001:80004050       __start
 0001:80004210       __init_registers
 0001:800042A0       __init_data
 0001:80004360       __init_hardware
 0001:80004744       aMetrowerksTarg
 0002:80006EA0       nullsub_27
 0002:80006EC0       identity__Q29JGeometry38TMatrix34<Q29JGeometry13SMatrix34C<f>>Fv
 0002:80006F00       mult__Q29JGeometry38TMatrix34<Q29JGeometry13SMatrix34C<f>>CFRCQ29JGeometry8TVec3<f>RQ29JGeometry8TVec3<f>
 0002:80006F90       set<f>__Q29JGeometry8TVec3<f>Ffff_v
 0002:80007060       invert__Q29JGeometry38TMatrix34<Q29JGeometry13SMatrix34C<f>>FRCQ29JGeometry38TMatrix34<Q29JGeometry13SMatrix34C<f>>
 0002:80007380       concat__Q29JGeometry38TMatrix34<Q29JGeometry13SMatrix34C<f>>FRCQ29JGeometry13SMatrix34C<f>RCQ29JGeometry13SMatrix34C<f>
 0002:80007930       getQuat__Q29JGeometry64TRotation3<Q29JGeometry38TMatrix34<Q29JGeometry13SMatrix34C<f>>>CFRQ29JGeometry9TQuat4<f>
 0002:80007B60       sqrt__Q29JGeometry8TUtil<f>Ff
 0002:80007BA0       set<f>__Q29JGeometry8TVec4<f>Fffff_v
 0002:80007BC0       setEuler__Q29JGeometry9TQuat4<f>Ffff
 0002:80007D10       setRotate__Q29JGeometry9TQuat4<f>FRCQ29JGeometry8TVec3<f>RCQ29JGeometry8TVec3<f>
 0002:80007E30       slerp__Q29JGeometry9TQuat4<f>FRCQ29JGeometry9TQuat4<f>f
 0002:80008390       startLevelSound__2MRFPC9LiveActorPCclll
 0002:800086A0       changeBckForEffectKeeper__27@unnamed@LiveActorUtil_cpp@FPC9LiveActor
 0002:80008810       startBck__2MRFPC9LiveActorPCcPCc
 0002:80008C70       tryStartAllAnim__2MRFPC9LiveActorPCc
 0002:80008CD0       isActionEnd__2MRFPC9LiveActor
 0002:80008FA0       startBckNoInterpole__2MRFPC9LiveActorPCc
 0002:80009090       tryStartBck__2MRFPC9LiveActorPCcPCc
 0002:800098F0       isBrkStopped__2MRFPC9LiveActor
 0002:800099E0       setBckFrameAtRandom__2MRFPC9LiveActor
 0002:80009B50       setBtkFrameAndStop__2MRFPC9LiveActorf
 0002:80009BB0       setBrkFrameAndStop__2MRFPC9LiveActorf
 0002:80009CD0       setBvaFrameAndStop__2MRFPC9LiveActorf
 0002:8000A000       startBtk__2MRFPC9LiveActorPCc
 0002:8000A010       startBrk__2MRFPC9LiveActorPCc
 0002:8000A020       startBtp__2MRFPC9LiveActorPCc
 0002:8000A030       startBpk__2MRFPC9LiveActorPCc
 0002:8000A040       startBva__2MRFPC9LiveActorPCc
 0002:8000A4E0       stopBck__2MRFPC9LiveActor
 0002:8000A510       stopBtk__2MRFPC9LiveActor
 0002:8000A5F0       setBrkRate__2MRFPC9LiveActorf
 0002:8000A730       setBckFrame__2MRFPC9LiveActorf
 0002:8000AD40       isExistBck__2MRFPC9LiveActorPCc
 0002:8000AFA0       getBtkCtrl__2MRFPC9LiveActor
 0002:8000AFB0       getBrkCtrl__2MRFPC9LiveActor
 0002:8000AFC0       getBtpCtrl__2MRFPC9LiveActor
 0002:8000AFD0       getBpkCtrl__2MRFPC9LiveActor
 0002:8000AFE0       getBvaCtrl__2MRFPC9LiveActor
 0002:8000AFF0       updateMaterial__2MRFP9LiveActor
 0002:8000B000       createActorCameraName__29@unnamed@ActorCameraUtil_cpp@FPcUlPC9LiveActorPC15ActorCameraInfo
 0002:8000B040       createMultiActorCameraName__29@unnamed@ActorCameraUtil_cpp@FPcUlPC9LiveActorPC15ActorCameraInfoPCc
 0002:8000B140       initActorCamera__2MRFPC9LiveActorRC12JMapInfoIterPP15ActorCameraInfo
 0002:8000B150       initMultiActorCamera__2MRFPC9LiveActorRC12JMapInfoIterPP15ActorCameraInfoPCc
 0002:8000B1D0       initMultiActorCameraNoInit__2MRFPC9LiveActorP15ActorCameraInfoPCc
 0002:8000B260       initActorCameraProgrammable__2MRFPC9LiveActor
 0002:8000B270       startActorCameraNoTarget__2MRFPC9LiveActorPC15ActorCameraInfol
 0002:8000B2D0       __ct__15CameraTargetArgFv
 0002:8000B440       startMultiActorCameraNoTarget__2MRFPC9LiveActorPC15ActorCameraInfoPCcl
 0002:8000B5D0       startMultiActorCameraTargetOther__2MRFPC9LiveActorPC15ActorCameraInfoPCcRC15CameraTargetArgl
 0002:8000B900       endActorCameraAtLanding__2MRFPC9LiveActorPC15ActorCameraInfol
 0002:8000BAC0       initAnimCamera__2MRFPC9LiveActorPC15ActorCameraInfoPCcP14ResourceHolder
 0002:8000BCE0       getMultiActorCameraFrames__2MRFPC9LiveActorPC15ActorCameraInfoPCc
 0002:8000BD90       startRumbleWithShakeCameraWeak__2MRFPC9LiveActorPCcPCcff
 0002:8000C000       getValue<f>__12JMapInfoIterCFPCcPf_b
 0002:8000C080       getValue<l>__12JMapInfoIterCFPCcPl_b
 0002:8000C150       __ct__Q29JGeometry8TVec3<f>FRCQ29JGeometry8TVec3<f>
 0002:8000C200       initModelManagerWithAnm__9LiveActorFPCcPCc
 0002:8000CE80       initDefaultPos__2MRFP9LiveActorRC12JMapInfoIter
 0002:8000CFB0       isValid__12JMapInfoIterCFv
 0002:8000D680       __ct__10JUTTextureFPC7ResTIMGUc
 0002:8000D750       dot__Q29JGeometry8TVec3<f>CFRCQ29JGeometry8TVec3_f_
 0002:8000D770       scale__Q29JGeometry8TVec3<f>FfRCQ29JGeometry8TVec3<f>
 0002:8000D7A0       inv_sqrt__Q29JGeometry8TUtil<f>Ff
 0002:8000DAD0       calcDistance__2MRFPC9HitSensorPC9HitSensorPQ29JGeometry8TVec3<f>
 0002:8000DB80       PSVECSubtract__14JMathInlineVECFPC3VecPC3VecP3Vec
 0002:8000DBB0       zero__Q29JGeometry8TVec3<f>Fv
 0002:8000DDA0       calcDistanceToPlayer__2MRFPC9LiveActor
 0002:8000DF50       squared__Q29JGeometry8TVec3<f>CFRCQ29JGeometry8TVec3<f>
 0002:8000DFD0       isNear__2MRFPC9LiveActorRCQ29JGeometry8TVec3<f>f
 0002:8000E020       isNearPlayer__2MRFPC9LiveActorf
 0002:8000E080       isNearPlayerAnyTime__2MRFPC9LiveActorf
 0002:8000E0E0       isNearPlayer__2MRFRCQ29JGeometry8TVec3<f>f
 0002:8000E240       squared__Q29JGeometry8TVec3<f>CFv
 0002:8000E340       calcFrontVec__2MRFPQ29JGeometry8TVec3<f>PC9LiveActor
 0002:8000E3A0       calcUpVec__2MRFPQ29JGeometry8TVec3<f>PC9LiveActor
 0002:8000E400       calcSideVec__2MRFPQ29JGeometry8TVec3<f>PC9LiveActor
 0002:8000E6E0       scale__Q29JGeometry8TVec3<f>Ff
 0002:8000E710       add__Q29JGeometry8TVec3<f>FRCQ29JGeometry8TVec3<f>
 0002:8000E740       __as__Q29JGeometry8TVec3<f>FRCQ29JGeometry8TVec3<f>
 0002:8000E9C0       set<f>__Q29JGeometry8TVec3<f>FRCQ29JGeometry8TVec3<f>_v
 0002:8000F020       __ct<f>__Q29JGeometry8TVec3<f>Ffff_Pv
 0002:8000F440       negateInternal__9JGeometryFPCfPf
 0002:8000F460       isInWater__2MRFPC9LiveActorRCQ29JGeometry8TVec3<f>
 0002:8000F4B0       isInDeath__2MRFPC9LiveActorRCQ29JGeometry8TVec3<f>
 0002:8000F540       makeMtxTR__2MRFPA4_fPC9LiveActor
 0002:8000F560       makeMtxTRS__2MRFPA4_fPC9LiveActor
 0002:8000F5B0       makeMtxTransRotateY__2MRFPA4_fPC9LiveActor
 0002:8000F6D0       calcMtxFromGravityAndZAxis__2MRFPQ29JGeometry64TPosition3<Q29JGeometry38TMatrix34<Q29JGeometry13SMatrix34C<f>>>PC9LiveActorRCQ29JGeometry8TVec3<f>RCQ29JGeometry8TVec3<f>
 0002:8000FB00       getXDir__Q29JGeometry64TRotation3<Q29JGeometry38TMatrix34<Q29JGeometry13SMatrix34C<f>>>CFRQ29JGeometry8TVec3<f>
 0002:8000FB20       calcActorAxisY__2MRFPQ29JGeometry8TVec3<f>PC9LiveActor
 0002:80010070       makeQuatAndFrontFromRotate__2MRFPQ29JGeometry9TQuat4<f>PQ29JGeometry8TVec3<f>PC9LiveActor
 0002:800100C0       getZDir__Q29JGeometry9TQuat4<f>CFRQ29JGeometry8TVec3<f>
 0002:80010690       resetPosition__2MRFP9LiveActor
 0002:80010710       resetPosition__2MRFP9LiveActorRCQ29JGeometry8TVec3<f>
 0002:80010970       calcVelocityMoveToDirection__2MRFPQ29JGeometry8TVec3<f>PC9LiveActorRCQ29JGeometry8TVec3<f>f
 0002:80010F00       addVelocityMoveToTarget__2MRFP9LiveActorRCQ29JGeometry8TVec3<f>f
 0002:80011100       addVelocityAwayFromTarget__2MRFP9LiveActorRCQ29JGeometry8TVec3<f>f
 0002:800114D0       addVelocityToGravity__2MRFP9LiveActorf
 0002:80011670       addVelocityKeepHeight__2MRFP9LiveActorRCQ29JGeometry8TVec3<f>fff
 0002:80011BB0       setLength__Q29JGeometry8TVec3<f>Ff
 0002:80012270       reboundVelocityFromCollision__2MRFP9LiveActorfff
 0002:80012400       zeroVelocity__2MRFP9LiveActor
 0002:80012430       attenuateVelocity__2MRFP9LiveActorf
 0002:80012850       sendMsgPushAndKillVelocityToTarget__2MRFP9LiveActorP9HitSensorP9HitSensor
 0002:80012F60       turnDirectionDegree__2MRFPC9LiveActorPQ29JGeometry8TVec3<f>RCQ29JGeometry8TVec3<f>f
 0002:80012FB0       cosDegree__2MRFf
 0002:80013070       turnDirectionToTargetDegree__2MRFPC9LiveActorPQ29JGeometry8TVec3<f>RCQ29JGeometry8TVec3<f>f
 0002:80013990       __ct<i>__Q29JGeometry8TVec3<f>Fiii_Pv
 0002:80013DF0       atan2__3stdFff
 0002:80013F70       moveAndTurnToPlayer__2MRFP9LiveActorffff
 0002:80014700       addHitSensor__2MRFP9LiveActorPCcUlUsfRCQ29JGeometry8TVec3<f>
 0002:80014800       addHitSensorMapObj__2MRFP9LiveActorPCcUsfRCQ29JGeometry8TVec3<f>
 0002:800148C0       addHitSensorEnemy__2MRFP9LiveActorPCcUsfRCQ29JGeometry8TVec3<f>
 0002:80014940       addHitSensorNpc__2MRFP9LiveActorPCcUsfRCQ29JGeometry8TVec3<f>
 0002:80014980       addHitSensorEye__2MRFP9LiveActorPCcUsfRCQ29JGeometry8TVec3<f>
 0002:80014A60       addHitSensorPosMapObj__2MRFP9LiveActorPCcUsfPCQ29JGeometry8TVec3<f>RCQ29JGeometry8TVec3<f>
 0002:80014B20       addHitSensorMtx__2MRFP9LiveActorPCcUlUsfPA4_fRCQ29JGeometry8TVec3<f>
 0002:80014EA0       addHitSensorAtJointEnemy__2MRFP9LiveActorPCcPCcUsfRCQ29JGeometry8TVec3<f>
 0002:80014F30       addHitSensorAtJointEnemyAttack__2MRFP9LiveActorPCcPCcUsfRCQ29JGeometry8TVec3<f>
 0002:80015200       addBodyMessageSensor__2MRFP9LiveActorUl
 0002:80015390       tryUpdateHitSensorsAll__2MRFP9LiveActor
 0002:800153D0       updateHitSensorsAll__2MRFP9LiveActor
 0002:800153E0       j_isType__9HitSensorCFUl
 0002:80015490       getTaken__2MRFPC9LiveActor
 0002:80015550       getSensor__2MRFP9LiveActorPCc
 0002:80015670       validateHitSensors__2MRFP9LiveActor
 0002:80015690       invalidateHitSensors__2MRFP9LiveActor
 0002:800156B0       j_validate__9HitSensorFv
 0002:800156C0       j_invalidate__9HitSensorFv
 0002:800156D0       validateHitSensor__2MRFP9LiveActorPCc
 0002:80015700       invalidateHitSensor__2MRFP9LiveActorPCc
 0002:80015810       clearHitSensors__2MRFP9LiveActor
 0002:80015820       nullsub_120
 0002:80015880       getSensorHost__2MRFPC9HitSensor
 0002:80015890       isSensor__2MRFPC9HitSensorPCc
 0002:800158D0       isSensorPlayer__2MRFPC9HitSensor
 0002:800158E0       isSensorBinder__2MRFPC9HitSensor
 0002:80015910       isSensorRide__2MRFPC9HitSensor
 0002:80015940       isSensorPlayerOrRide__2MRFPC9HitSensor
 0002:80015A40       isSensorEnemy__2MRFPC9HitSensor
 0002:80015A80       isSensorNpc__2MRFPC9HitSensor
 0002:80015AA0       isSensorMapObj__2MRFPC9HitSensor
 0002:80015C10       getSensor__2MRCFPCc
 0002:80015CE0       calcSensorDirectionNormalize__2MRFPQ29JGeometry8TVec3<f>PC9HitSensorPC9HitSensor
 0002:80015E20       sendArbitraryMsg__2MRFUlP9HitSensorP9HitSensor
 0002:80015E30       sendMsgPush__2MRFP9HitSensorP9HitSensor
 0002:80016190       sendMsgEnemyAttackElectric__2MRFP9HitSensorP9HitSensor
 0002:800161A0       sendMsgEnemyAttackFreeze__2MRFP9HitSensorP9HitSensor
 0002:800161B0       sendMsgEnemyAttackExplosion__2MRFP9HitSensorP9HitSensor
 0002:800161E0       sendMsgLockOnStarPieceShoot__2MRFP9HitSensorP9HitSensor
 0002:800162D0       sendSimpleMsgToActor__2MRFUlP9LiveActor
 0002:80016350       sendMsgToBindedSensor__2MRFUlP9LiveActorP9HitSensor
 0002:800166D0       sendMsgToAllLiveActor__2MRFUlP9LiveActor
 0002:80016A60       getGroundSensor__2MRFPC9LiveActor
 0002:80016A70       getRoofSensor__2MRFPC9LiveActor
 0002:80016A80       getWallSensor__2MRFPC9LiveActor
 0002:80016B10       isMsgPlayerSpinAttack__2MRFUl
 0002:80016B30       isMsgPlayerTrample__2MRFUl
 0002:80016B40       isMsgPlayerHipDrop__2MRFUl
 0002:80016BE0       isMsgJetTurtleAttack__2MRFUl
 0002:80016D80       isMsgItemGet__2MRFUl
 0002:80016E30       isMsgInhaleBlackHole__2MRFUl
 0002:80016EA0       isMsgToEnemyAttackBlow__2MRFUl
 0002:80016EC0       isMsgToEnemyAttackTrample__2MRFUl
 0002:80016F00       isMsgSpinStormRange__2MRFUl
 0002:80016F50       isMsgLockOnStarPieceShoot__2MRFUl
 0002:80016F80       isMsgItemPull__2MRFUl
 0002:80016FB0       isMsgStarPieceAttack__2MRFUl
 0002:80016FC0       isMsgStarPieceReflect__2MRFUl
 0002:800171F0       initShadowFromCSV__2MRFP9LiveActorPCcb
 0002:80017370       getShadowController__11ActorShadowFPC9LiveActorPCc
 0002:800173C0       createShadowControllerVolumeParam__11ActorShadowFP9LiveActorPCc
 0002:80017460       createShadowControllerSuefaceParam__11ActorShadowFP9LiveActorPCc
 0002:80017530       getShadowVolumeSphere__11ActorShadowFPC9LiveActorPCc
 0002:800175C0       getShadowVolumeDrawer__11ActorShadowFPC9LiveActorPCc
 0002:800175F0       getValue<PCc>__12JMapInfoIterCFPCcPPCc_b
 0002:80017980       getValue<b>__12JMapInfoIterCFPCcPb_b
 0002:80017A10       setUpShadowControlIsSyncShowFromCSV__11ActorShadowFP16ShadowControllerRC12JMapInfoIter
 0002:80018600       def_80018560
 0002:80018620       initShadowFromCSVWithInitShadowVolumeSphere__2MRFP9LiveActorPCc
 0002:80018630       initShadowFromCSVWithoutInitShadowVolumeSphere__2MRFP9LiveActorPCc
 0002:80018640       j_initShadowControllerList__9LiveActorFUl
 0002:800186F0       addShadowVolumeCylinder__2MRFP9LiveActorPCcf
 0002:800189E0       initShadowSurfaceCircle__2MRFP9LiveActorf
 0002:80018A70       initShadowVolumeSphere__2MRFP9LiveActorf
 0002:80018B00       initShadowVolumeOval__2MRFP9LiveActorRCQ29JGeometry8TVec3<f>
 0002:80018B70       initShadowVolumeCylinder__2MRFP9LiveActorf
 0002:80018C20       setShadowDropPositionPtr__2MRFP9LiveActorPCcPCQ29JGeometry8TVec3<f>
 0002:80018CB0       setShadowDropPositionAtJoint__2MRFP9LiveActorPCcPCcRCQ29JGeometry8TVec3<f>
 0002:80018E90       setShadowDropLength__2MRFP9LiveActorPCcf
 0002:80018ED0       setShadowProjection__2MRFP9LiveActorPCcRCQ29JGeometry8TVec3<f>RCQ29JGeometry8TVec3<f>b
 0002:80018FA0       setShadowVolumeSphereRadius__2MRFP9LiveActorPCcf
 0002:800190A0       setShadowVolumeEndDropOffset__2MRFP9LiveActorPCcf
 0002:800190E0       onShadowVolumeCutDropLength__2MRFP9LiveActorPCc
 0002:80019110       onCalcShadow__2MRFP9LiveActorPCc
 0002:80019150       offCalcShadow__2MRFP9LiveActorPCc
 0002:80019190       onCalcShadowOneTime__2MRFP9LiveActorPCc
 0002:800191D0       onCalcShadowAll__2MRFP9LiveActor
 0002:80019230       offCalcShadowAll__2MRFP9LiveActor
 0002:80019290       onCalcShadowOneTimeAll__2MRFP9LiveActor
 0002:80019320       onCalcShadowDropGravityOneTime__2MRFP9LiveActorPCc
 0002:80019350       onCalcShadowDropPrivateGravity__2MRFP9LiveActorPCc
 0002:80019380       onCalcShadowDropPrivateGravityOneTime__2MRFP9LiveActorPCc
 0002:80019600       invalidateShadow__2MRFP9LiveActorPCc
 0002:80019700       invalidateShadowAll__2MRFP9LiveActor
 0002:80019B20       isShadowProjected__2MRFPC9LiveActorPCc
 0002:80019BD0       getShadowProjectionLength__2MRFPC9LiveActorPCc
 0002:80019E00       clamp__2MRFlll
 0002:80019F40       nullsub_198
 0002:8001A080       updateActorStateAndNextNerve__2MRFP9LiveActorP23ActorStateBaseInterfacePC5Nerve
 0002:8001A540       useStageSwitchReadA__2MRFP9LiveActorRC12JMapInfoIter
 0002:8001A550       useStageSwitchReadB__2MRFP9LiveActorRC12JMapInfoIter
 0002:8001A570       useStageSwitchAwake__2MRFP9LiveActorRC12JMapInfoIter
 0002:8001A580       useStageSwitchWriteA__2MRFP9LiveActorRC12JMapInfoIter
 0002:8001A620       useStageSwitchWriteDead__2MRFP9LiveActorRC12JMapInfoIter
 0002:8001A670       needStageSwitchReadA__2MRFP9LiveActorRC12JMapInfoIter
 0002:8001A710       isValidSwitchA__2MRFPC9LiveActor
 0002:8001A760       isValidSwitchB__2MRFPC9LiveActor
 0002:8001A800       isValidSwitchDead__2MRFPC9LiveActor
 0002:8001A8A0       isOnSwitchB__2MRFPC9LiveActor
 0002:8001A940       onSwitchA__2MRFP9LiveActor
 0002:8001A950       onSwitchB__2MRFP9LiveActor
 0002:8001A960       onSwitchDead__2MRFP9LiveActor
 0002:8001AA10       useStageSwitchReadAppear__2MRFP9LiveActorRC12JMapInfoIter
 0002:8001AB20       listenStageSwitchOnA__2MRFP9LiveActorRCQ22MR11FunctorBase
 0002:8001AB30       listenStageSwitchOnOffA__2MRFP9LiveActorRCQ22MR11FunctorBaseRCQ22MR11FunctorBase
 0002:8001AB50       listenStageSwitchOnB__2MRFP9LiveActorRCQ22MR11FunctorBase
 0002:8001AB70       listenStageSwitchOnOffB__2MRFP9LiveActorRCQ22MR11FunctorBaseRCQ22MR11FunctorBase
 0002:8001AE90       moveVolumeStageBGM__2MRFfUl
 0002:8001B690       moveVolumeSubBGM__2MRFfUl
 0002:8001B91C       def_8001B7B4
 0002:8001C530       calcNormalizedScreenPosToScreenPos__24@unnamed@CameraUtil_cpp@FPQ29JGeometry8TVec3<f>RCQ29JGeometry8TVec3<f>
 0002:8001C5F0       getScreenHeight__2MRFv
 0002:8001C680       calcScreenPosition__2MRFPQ29JGeometry8TVec3<f>RCQ29JGeometry8TVec3<f>
 0002:8001C770       calcNormalizedScreenPositionFromView__2MRFPQ29JGeometry8TVec3<f>RCQ29JGeometry8TVec3<f>
 0002:8001C8B0       calcWorldPositionFromScreen__2MRFPQ29JGeometry8TVec3<f>RCQ29JGeometry8TVec2<f>f
 0002:8001C980       __ct<f>__Q29JGeometry8TVec2<f>Fff_Pv
 0002:8001CBF0       subtract__Q29JGeometry8TVec3<f>FRCQ29JGeometry8TVec3<f>
 0002:8001CD10       getCameraViewMtx__2MRFv
 0002:8001CD40       getCameraInvViewMtx__2MRFv
 0002:8001CD70       getCameraProjectionMtx__2MRFv
 0002:8001CDD0       getNearZ__2MRFv
 0002:8001CE30       getFovy__2MRFv
 0002:8001CEC0       setNearZ__2MRFf
 0002:8001CF90       getCamPos__2MRFv
 0002:8001D000       getCamXdir__2MRFv
 0002:8001D070       getCamYdir__2MRFv
 0002:8001D0E0       getCamZdir__2MRFv
 0002:8001D160       __mi__Q29JGeometry8TVec3<f>CFv
 0002:8001D180       isExistMirrorCamera__2MRFv
 0002:8001D190       getMirrorCameraViewMtx__2MRFv
 0002:8001D1C0       getMirrorModelTexMtx__2MRFv
 0002:8001D1F0       completeCameraParameters__2MRFv
 0002:8001D220       resetCameraMan__2MRFv
 0002:8001D250       startCameraInterpolation__2MRFUl
 0002:8001D290       declareEventCamera__2MRFPC15ActorCameraInfoPCc
 0002:8001D2E0       endEventCamera__2MRFPC15ActorCameraInfoPCcbl
 0002:8001D340       endEventCameraAtLanding__2MRFPC15ActorCameraInfoPCcl
 0002:8001D860       declareEventCameraAnim__2MRFPC15ActorCameraInfoPCcPv
 0002:8001DB90       startBlackHoleCamera__2MRFPCcRCQ29JGeometry8TVec3<f>RCQ29JGeometry8TVec3<f>
 0002:8001DE40       declareLauncherFlightCamera__2MRFv
 0002:8001DF20       endLauncherFlightCamera__2MRFv
 0002:8001DF60       isActiveLauncherCamera__2MRFv
 0002:8001DF90       isActiveLauncherFlightCamera__2MRFv
 0002:8001DFC0       startSubjectiveCamera__2MRFl
 0002:8001E040       declareEventCameraProgrammable__2MRFPCc
 0002:8001E270       createRegisterName__24@unnamed@CameraUtil_cpp@FPC7NameObjUl
 0002:8001E330       declareCameraRegisterVec__2MRFPC7NameObjUlPQ29JGeometry8TVec3<f>
 0002:8001E890       resetCameraLocalOffset__2MRFv
 0002:8001E8C0       overlayWithPreviousScreen__2MRFUl
 0002:8001E9C0       startEventCameraNoTarget__2MRFPC15ActorCameraInfoPCcl
 0002:8001EA80       startEventCamera__2MRFPC15ActorCameraInfoPCcRC15CameraTargetArgl
 0002:8001EE80       startCSSound__2MRFPCcPCcl
 0002:8001F330       do_getCurrentGroupId__7JKRHeapFv
 0002:8001F340       do_changeGroupID__7JKRHeapFUc
 0002:8001F350       dump_sort__7JKRHeapFv
 0002:8001F360       tryRegisterDemoCast__2MRFP9LiveActorRC12JMapInfoIter
 0002:8001F3B0       registerDemoActionFunctor__2MRFPC9LiveActorRCQ22MR11FunctorBasePCc
 0002:8001F3C0       registerDemoActionNerve__2MRFPC9LiveActorPC5NervePCc
 0002:8001F3D0       tryRegisterDemoActionFunctor__2MRFPC9LiveActorRCQ22MR11FunctorBasePCc
 0002:8001F5A0       j_registerDemoActionFunctorFunction__12DemoFunctionFPC9LiveActorRCQ22MR11FunctorBasePCcPCc
 0002:8001F650       registerDemoSimpleCastAll__2MRFP9LiveActor
 0002:8001F680       isDemoCast__2MRFPC9LiveActorPCc
 0002:8001F700       isRegisteredDemoActionAppear__2MRFPC9LiveActor
 0002:8001F710       isRegisteredDemoActionNerve__2MRFPC9LiveActor
 0002:8001F720       tryStartDemo__2MRFP9LiveActorPCc
 0002:8001FE70       requestStartDemo__2MRFP9LiveActorPCcPC5NervePC5Nerve
 0002:8001FF30       requestStartDemoWithoutCinemaFrame__2MRFP9LiveActorPCcPC5NervePC5Nerve
 0002:800201C0       endDemo__2MRFP7NameObjPCc
 0002:80020B40       isExistTimeKeepDemo__2MRFPCc
 0002:80020B80       isDemoActive__2MRFv
 0002:80020BB0       isDemoActive__2MRFPCc
 0002:80020C20       canStartDemo__2MRFv
 0002:80020C90       isTimeKeepDemoActive__2MRFv
 0002:80021060       isPowerStarGetDemoActive__2MRFv
 0002:80021280       __ct__Q29JGeometry8TVec3<f>Fv
 0002:80022B70       addEffect__2MRFP9LiveActorPCc
 0002:80022B90       getEffect__2MRFPC11LayoutActorPCc
 0002:80022BA0       isExistEffectKeeper__2MRFPC9LiveActor
 0002:80022BC0       emitEffect__2MRFP9LiveActorPCc
 0002:80022BD0       emitEffectWithScale__2MRFP9LiveActorPCcfl
 0002:80022E80       deleteEffect__2MRFP9LiveActorPCc
 0002:80022E90       forceDeleteEffect__2MRFP9LiveActorPCc
 0002:80022EA0       deleteEffectAll__2MRFP9LiveActor
 0002:80022EB0       forceDeleteEffectAll__2MRFP9LiveActor
 0002:80022EC0       isRegisteredEffect__2MRFPC9LiveActorPCc
 0002:80022EE0       isEffectValid__2MRFPC9LiveActorPCc
 0002:80022F20       onDrawEffect__2MRFP9LiveActor
 0002:80022F30       offDrawEffect__2MRFP9LiveActor
 0002:80022F60       pauseOffEffectAll__2MRFP9LiveActor
 0002:80023050       setEffectHostSRT__2MRFP9LiveActorPCcPCQ29JGeometry8TVec3<f>PCQ29JGeometry8TVec3<f>PCQ29JGeometry8TVec3<f>
 0002:80023110       setEffectHostMtx__2MRFP9LiveActorPCcPA4_f
 0002:80023230       setEffectBaseScale__2MRFP9LiveActorPCcf
 0002:80023270       setEffectColor__2MRFP9LiveActorPCcUcUcUcUcUcUc
 0002:80023300       setEffectPrmColor__2MRFP9LiveActorPCcUcUcUc
 0002:80023360       setEffectEnvColor__2MRFP9LiveActorPCcUcUcUc
 0002:80023400       addEffectHitNormal__2MRFP9LiveActorPCc
 0002:80023780       __ml__Q29JGeometry8TVec3<f>CFf
 0002:80023880       getPlayerLeft__2MRFv
 0002:80023950       isPlayerLuigi__2MRFv
 0002:80023960       getStarPieceNum__2MRFv
 0002:800239C0       addStarPiece__2MRFi
 0002:80023B70       getCoinNum__2MRFv
 0002:80024A60       hasPowerStarInCurrentStage__2MRFl
 0002:80024AA0       isPowerStarGreenInCurrentStage__2MRFl
 0002:80024C30       j_hasPowerStar__16GameDataFunctionFPCcl
 0002:80024D50       j_calcCurrentPowerStarNum__2MR
 0002:80025520       isFileExist__2MRFPCcb
 0002:80025570       j_isFileExist__2MRFPCcb
 0002:80025600       makeObjectArchiveFileName__2MRFPcUlPCc
 0002:80025730       makeLayoutArchiveFileName__2MRFPcUlPCc
 0002:80025800       makeLayoutArchiveFileNameFromPrefix__2MRFPcUlPCcb
 0002:80025950       makeScenarioArchiveFileName__2MRFPcUlPCc
 0002:80025B90       mountAsyncArchive__2MRFPCcP7JKRHeap
 0002:80025BD0       receiveAllRequestedFile__2MRFv
 0002:80025E80       __ct__9FootPrintFPCcll
 0002:80025EE0       __ct__9FootPrintFPCcl
 0002:80025F40       initMember__9FootPrintFll
 0002:80026030       __ct__13FootPrintInfoFv
 0002:80026040       setTexture__9FootPrintFP7ResTIMG
 0002:80026550       __apl__Q29JGeometry8TVec3<f>FRCQ29JGeometry8TVec3<f>
 0002:800269E0       unk2__7NameObjFv
 0002:800269F0       unk1__7NameObjFv
 0002:80026B30       subtract__Q29JGeometry8TVec3<f>FRCQ29JGeometry8TVec3<f>RCQ29JGeometry8TVec3<f>
 0002:80026C90       add__14FurDrawManagerFP7FurCtrlUc
 0002:800272C0       calcLayerForm__7FurCtrlFv
 0002:80027480       drawFur__7FurCtrlFv
 0002:80027740       createFurMap__7FurCtrlFv
 0002:800277C0       initFurParamFromDvd__2MRFP8FurParamP15DynamicFurParamPcUl
 0002:80027A90       getFurDrawManager__2MRFv
 0002:80027E10       update__9FurDrawerFv
 0002:80027E30       calcValue__Q29FurDrawer11CLayerParamCFll
 0002:80027EC0       setupMaterial__9FurDrawerCFP15DynamicFurParam
 0002:80028590       setupLayerMaterial__9FurDrawerCFl
 0002:800288B0       __ct__8FurMultiFP9LiveActorUl
 0002:800289A0       setLayerDirect__8FurMultiFUlUlUlUlP8FurParamP7ResTIMGP7ResTIMGP7ResTIMGP7ResTIMG
 0002:80028B90       addToManager__8FurMultiFv
 0002:80028C90       initMultiFur__2MRFP9LiveActorl
 0002:800297B0       __pl__Q29JGeometry8TVec3<f>CFRCQ29JGeometry8TVec3<f>
 0002:80029DC0       getCorePadPointingPosBasedOnScreen__2MRFPQ29JGeometry8TVec2<f>l
 0002:8002A020       testCorePadButtonA__2MRFl
 0002:8002A050       testCorePadButtonB__2MRFl
 0002:8002A370       testCorePadTriggerDown__2MRFl
 0002:8002A3A0       testCorePadTriggerLeft__2MRFl
 0002:8002A400       testCorePadTriggerA__2MRFl
 0002:8002A430       testCorePadTriggerB__2MRFl
 0002:8002AB80       testFpViewStartTrigger__2MRFv
 0002:8002B0B0       isConnectedWPad__2MRFl
 0002:8002B0E0       isOperatingWPad__2MRFl
 0002:8002B150       getWPadRumble__12WPadFunctionFl
 0002:8002B180       getJMapInfoArgPlus__25@unnamed@GravityUtil_cpp@FRC12JMapInfoIterPCcPf
 0002:8002B220       getJMapInfoArgPlus__25@unnamed@GravityUtil_cpp@FRC12JMapInfoIterPCcPl
 0002:8002B2D0       calcGravityVectorOrZero__25@unnamed@GravityUtil_cpp@FPC7NameObjRCQ29JGeometry8TVec3<f>UlPQ29JGeometry8TVec3<f>P11GravityInfoUl
 0002:8002B350       registerGravity__2MRFP13PlanetGravity
 0002:8002B390       calcGravityVector__2MRFPC9LiveActorPQ29JGeometry8TVec3<f>P11GravityInfoUl
 0002:8002B3B0       calcGravityVector__2MRFPC7NameObjRCQ29JGeometry8TVec3<f>PQ29JGeometry8TVec3<f>P11GravityInfoUl
 0002:8002B3F0       calcDropShadowVector__2MRFPC7NameObjRCQ29JGeometry8TVec3<f>PQ29JGeometry8TVec3<f>P11GravityInfoUl
 0002:8002B430       calcGravityVectorOrZero__2MRFPC9LiveActorPQ29JGeometry8TVec3<f>P11GravityInfoUl
 0002:8002B450       calcGravityVectorOrZero__2MRFPC7NameObjRCQ29JGeometry8TVec3<f>PQ29JGeometry8TVec3<f>P11GravityInfoUl
 0002:8002B4B0       calcAttractMarioLauncherOrZero__2MRFPC9LiveActorPQ29JGeometry8TVec3<f>P11GravityInfoUl
 0002:8002B4D0       isZeroGravity__2MRFPC9LiveActor
 0002:8002B510       isLightGravity__2MRFRC11GravityInfo
 0002:8002B540       getJMapInfoGravityType__2MRFRC12JMapInfoIterP13PlanetGravity
 0002:8002B600       getJMapInfoGravityPower__2MRFRC12JMapInfoIterP13PlanetGravity
 0002:8002B6B0       settingGravityParamFromJMap__2MRFP13PlanetGravityRC12JMapInfoIter
 0002:8002B7C0       __ct__13HashSortTableFUl
 0002:8002B840       add__13HashSortTableFPCcUlb
 0002:8002B8B0       add__13HashSortTableFUlUl
 0002:8002B8F0       addOrSkip__13HashSortTableFUlUl
 0002:8002B960       sort__13HashSortTableFv
 0002:8002BB10       search__13HashSortTableFUlPUl
 0002:8002BBC0       search__13HashSortTableFPCcPUl
 0002:8002BC10       search__13HashSortTableFPCcPCcPUl
 0002:8002BC70       swap__13HashSortTableFPCcPCc
 0002:8002BD00       getHashCode__2MRFPCc
 0002:8002BD30       getHashCodeLower__2MRFPCc
 0002:8002BD90       isValidInfo__2MRFRC12JMapInfoIter
 0002:8002BDA0       getObjectName__2MRFPPCcRC12JMapInfoIter
 0002:8002BE90       getJMapInfoArgNoInit__FRC12JMapInfoIterPCcPl
 0002:8002BEF0       getJMapInfoArgNoInit__FRC12JMapInfoIterPCcPf
 0002:8002BF60       getJMapInfoArgNoInit__FRC12JMapInfoIterPCcPb
 0002:8002C060       getJMapInfoTransLocal__2MRFRC12JMapInfoIterPQ29JGeometry8TVec3<f>
 0002:8002C0F0       getJMapInfoTrans__2MRFRC12JMapInfoIterPQ29JGeometry8TVec3<f>
 0002:8002C160       getJMapInfoRotateLocal__2MRFRC12JMapInfoIterPQ29JGeometry8TVec3<f>
 0002:8002C1F0       getJMapInfoRotate__2MRFRC12JMapInfoIterPQ29JGeometry8TVec3<f>
 0002:8002C360       getJMapInfoScale__2MRFRC12JMapInfoIterPQ29JGeometry8TVec3<f>
 0002:8002C470       getJMapInfoV3f__2MRFRC12JMapInfoIterPCcPQ29JGeometry8TVec3<f>
 0002:8002C540       getJMapInfoArg0WithInit__2MRFRC12JMapInfoIterPl
 0002:8002C580       getJMapInfoArg0WithInit__2MRFRC12JMapInfoIterPb
 0002:8002C5A0       getJMapInfoArg1WithInit__2MRFRC12JMapInfoIterPl
 0002:8002C600       getJMapInfoArg2WithInit__2MRFRC12JMapInfoIterPl
 0002:8002C660       getJMapInfoArg3WithInit__2MRFRC12JMapInfoIterPl
 0002:8002C680       getJMapInfoArg3WithInit__2MRFRC12JMapInfoIterPb
 0002:8002C6A0       getJMapInfoArg4WithInit__2MRFRC12JMapInfoIterPb
 0002:8002C6C0       getJMapInfoArg5WithInit__2MRFRC12JMapInfoIterPl
 0002:8002C6E0       getJMapInfoArg6WithInit__2MRFRC12JMapInfoIterPl
 0002:8002C700       getJMapInfoArg7WithInit__2MRFRC12JMapInfoIterPl
 0002:8002C720       getJMapInfoArg7WithInit__2MRFRC12JMapInfoIterPb
 0002:8002C740       getJMapInfoArg0NoInit__2MRFRC12JMapInfoIterPl
 0002:8002C750       getJMapInfoArg0NoInit__2MRFRC12JMapInfoIterPf
 0002:8002C760       getJMapInfoArg0NoInit__2MRFRC12JMapInfoIterPb
 0002:8002C770       getJMapInfoArg1NoInit__2MRFRC12JMapInfoIterPl
 0002:8002C780       getJMapInfoArg1NoInit__2MRFRC12JMapInfoIterPf
 0002:8002C790       getJMapInfoArg1NoInit__2MRFRC12JMapInfoIterPb
 0002:8002C7A0       getJMapInfoArg2NoInit__2MRFRC12JMapInfoIterPl
 0002:8002C7B0       getJMapInfoArg2NoInit__2MRFRC12JMapInfoIterPf
 0002:8002C7C0       getJMapInfoArg2NoInit__2MRFRC12JMapInfoIterPb
 0002:8002C7D0       getJMapInfoArg3NoInit__2MRFRC12JMapInfoIterPl
 0002:8002C7E0       getJMapInfoArg3NoInit__2MRFRC12JMapInfoIterPf
 0002:8002C7F0       getJMapInfoArg3NoInit__2MRFRC12JMapInfoIterPb
 0002:8002C800       getJMapInfoArg4NoInit__2MRFRC12JMapInfoIterPl
 0002:8002C820       getJMapInfoArg4NoInit__2MRFRC12JMapInfoIterPb
 0002:8002C830       getJMapInfoArg5NoInit__2MRFRC12JMapInfoIterPl
 0002:8002C840       getJMapInfoArg5NoInit__2MRFRC12JMapInfoIterPf
 0002:8002C850       getJMapInfoArg5NoInit__2MRFRC12JMapInfoIterPb
 0002:8002C860       getJMapInfoArg6NoInit__2MRFRC12JMapInfoIterPl
 0002:8002C870       getJMapInfoArg6NoInit__2MRFRC12JMapInfoIterPf
 0002:8002C880       getJMapInfoArg6NoInit__2MRFRC12JMapInfoIterPb
 0002:8002C890       getJMapInfoArg7NoInit__2MRFRC12JMapInfoIterPl
 0002:8002C8A0       getJMapInfoArg7NoInit__2MRFRC12JMapInfoIterPf
 0002:8002C8B0       getJMapInfoArg7NoInit__2MRFRC12JMapInfoIterPb
 0002:8002C8C0       getJMapInfoFollowID__2MRFRC12JMapInfoIterPl
 0002:8002C8E0       getJMapInfoGroupID__2MRFRC12JMapInfoIterPl
 0002:8002C950       getJMapInfoClippingGroupID__2MRFRC12JMapInfoIterPl
 0002:8002C970       getJMapInfoDemoGroupID__2MRFRC12JMapInfoIterPl
 0002:8002C990       getJMapInfoLinkID__2MRFRC12JMapInfoIterPl
 0002:8002C9B0       isConnectedWithRail__2MRFRC12JMapInfoIter
 0002:8002CA30       isExistStageSwitchA__2MRFRC12JMapInfoIter
 0002:8002CAA0       isExistStageSwitchB__2MRFRC12JMapInfoIter
 0002:8002CB10       isExistStageSwitchAppear__2MRFRC12JMapInfoIter
 0002:8002CBF0       isExistStageSwitchAwake__2MRFRC12JMapInfoIter
 0002:8002CD40       isEqualObjectName__2MRFRC12JMapInfoIterPCc
 0002:8002CD80       getJMapInfoCameraSetID__2MRFRC12JMapInfoIterPl
 0002:8002CED0       getParamScale__2MRFRC12JMapInfoIter
 0002:8002CF50       getDemoCastID__2MRFRC12JMapInfoIter
 0002:8002CF90       getDemoName__2MRFRC12JMapInfoIter
 0002:8002CFD0       getTimeSheetName__2MRFRC12JMapInfoIter
 0002:8002D010       getDemoGroupID__2MRFRC12JMapInfoIter
 0002:8002D050       getDemoGroupLinkID__2MRFRC12JMapInfoIter
 0002:8002D0F0       getJMapInfoRailArg__22@unnamed@JMapUtil_cpp@FRC12JMapInfoIterPCcPl
 0002:8002D150       getJMapInfoRailArg0NoInit__2MRFRC12JMapInfoIterPl
 0002:8002D160       getRailId__2MRFRC12JMapInfoIterPl
 0002:8002D180       getNextLinkRailID__2MRFRC12JMapInfoIterPl
 0002:8002D190       isEqualRailUsage__2MRFRC12JMapInfoIterPCc
 0002:8002D1E0       getRailPointPos0__2MRFRC12JMapInfoIterPQ29JGeometry8TVec3<f>
 0002:8002D270       getRailPointPos1__2MRFRC12JMapInfoIterPQ29JGeometry8TVec3<f>
 0002:8002D300       getRailPointPos2__2MRFRC12JMapInfoIterPQ29JGeometry8TVec3<f>
 0002:8002D390       isLoopRailPathIter__2MRFRC12JMapInfoIter
 0002:8002D3E0       getLinkObjID__2MRFv
 0002:8002D3F0       getMapPartsID__2MRFv
 0002:8002D400       getGeneratorID__2MRFv
 0002:8002D410       getJoint__2MRFP8J3DModelPCc
 0002:8002D460       getJoint__2MRFPC9LiveActorPCc
 0002:8002D4A0       getJoint__2MRFPC9LiveActorUs
 0002:8002D530       getJointMtx__2MRFPC9LiveActorPCc
 0002:8002D690       getJointNum__2MRFPC9LiveActor
 0002:8002D6C0       isExistJoint__2MRFPC9LiveActorPCc
 0002:8002D710       set__Q29JGeometry13SMatrix34C<f>FPA4_Cf
 0002:8002D7A0       copyJointPos__2MRFPC9LiveActorPCcPQ29JGeometry8TVec3<f>
 0002:8002DDC0       IsDerivedFrom__Q44nw4r2ut6detail15RuntimeTypeInfoCFPCQ44nw4r2ut6detail15RuntimeTypeInfo
 0002:8002DDF0       GetRuntimeTypeInfo__Q34nw4r3lyt4PaneCFv
 0002:8002DEC0       SetVisible__Q34nw4r3lyt4PaneFb
 0002:8002DEE0       GetBeginIter__Q34nw4r2ut28LinkList<Q34nw4r3lyt4Pane,4>Fv
 0002:8002DEF0       __rf__Q44nw4r2ut28LinkList<Q34nw4r3lyt4Pane,4>8IteratorCFv
 0002:8002DF40       GetEndIter__Q34nw4r2ut28LinkList<Q34nw4r3lyt4Pane,4>Fv
 0002:8002DF50       __ne__Q24nw4r2utFQ44nw4r2ut28LinkList<Q34nw4r3lyt4Pane,4>8IteratorQ44nw4r2ut28LinkList<Q34nw4r3lyt4Pane,4>8Iterator
 0002:8002DF70       hidePaneRecursive__24@unnamed@LayoutUtil_cpp@FPQ34nw4r3lyt4Pane
 0002:8002E170       j_GetBeginIter__Q34nw4r2ut28LinkList<Q34nw4r3lyt4Pane,4>Fv
 0002:8002E180       __rf__Q44nw4r2ut28LinkList<Q34nw4r3lyt4Pane,4>13ConstIteratorCFv
 0002:8002E1D0       j_GetEndIter__Q34nw4r2ut28LinkList<Q34nw4r3lyt4Pane,4>Fv
 0002:8002E1E0       __ne__Q24nw4r2utFQ44nw4r2ut28LinkList<Q34nw4r3lyt4Pane,4>13ConstIteratorQ44nw4r2ut28LinkList<Q34nw4r3lyt4Pane,4>13ConstIterator
 0002:8002E3A0       DynamicCast<PCQ34nw4r3lyt7TextBox,CQ34nw4r3lyt4Pane>__Q24nw4r2utFPCQ34nw4r3lyt4Pane_PCQ34nw4r3lyt7TextBox
 0002:8002E410       getTextLineNumMaxRecursiveSub__24@unnamed@LayoutUtil_cpp@FPCQ34nw4r3lyt4Pane
 0002:8002E500       createAndAddLayoutHolder__2MRFPCc
 0002:8002E520       createAndAddPaneCtrl__2MRFP11LayoutActorPCcUl
 0002:8002E5C0       isExistPaneCtrl__2MRFP11LayoutActorPCc
 0002:8002E640       setInfluencedAlphaToChild__2MRFPC11LayoutActor
 0002:8002E750       clamp__2MRFfff
 0002:8002E780       executeTextBoxRecursive__2MRFP11LayoutActorPCcRC25TextBoxRecursiveOperation
 0002:8002E8B0       setTextBoxGameMessageRecursive__2MRFP11LayoutActorPCcPCc
 0002:8002E900       setTextBoxNumberRecursive__2MRFP11LayoutActorPCcl
 0002:8002E920       setTextBoxMessageRecursive__2MRFP11LayoutActorPCcPCw
 0002:8002E960       __dt__26TextBoxRecursiveSetMessageFv
 0002:8002E9A0       setTextBoxFormatRecursive__2MRFP11LayoutActorPCcPCwe
 0002:8002EA60       setTextBoxArgNumberRecursive__2MRFP11LayoutActorPCcll
 0002:8002EAF0       setTextBoxArgStringRecursive__2MRFP11LayoutActorPCcPCwl
 0002:8002EC20       clearTextBoxMessageRecursive__2MRFP11LayoutActorPCc
 0002:8002ECD0       setTextBoxFontRecursive__2MRFP11LayoutActorPCcPQ34nw4r2ut4Font
 0002:8002ED50       showPane__2MRFP11LayoutActorPCc
 0002:8002ED90       showPaneRecursive__2MRFP11LayoutActorPCc
 0002:8002EDD0       hidePane__2MRFP11LayoutActorPCc
 0002:8002EE10       hidePaneRecursive__2MRFP11LayoutActorPCc
 0002:8002EEA0       showScreen__2MRFP11LayoutActor
 0002:8002EED0       hideScreen__2MRFP11LayoutActor
 0002:8002EF00       setFollowPos__2MRFPCQ29JGeometry8TVec2<f>PC11LayoutActorPCc
 0002:8002EF90       setFollowTypeAdd__2MRFPC11LayoutActorPCc
 0002:8002EFD0       copyPaneTrans__2MRFPQ29JGeometry8TVec2<f>PC11LayoutActorPCc
 0002:8002F330       setLayoutScalePosAtPaneScaleTransIfExecCalcAnim__2MRFP11LayoutActorPC11LayoutActorPCc
 0002:8002F3A0       getResOther__12LayoutHolderCFPCc
 0002:8002F640       replacePaneTexture__2MRFP11LayoutActorPCcPCQ34nw4r3lyt6TexMapUc
 0002:8002F720       startAnim__2MRFP11LayoutActorPCcUl
 0002:8002F7E0       startPaneAnim__2MRFP11LayoutActorPCcPCcUl
 0002:8002F9F0       setAnimFrameAndStop__2MRFP11LayoutActorfUl
 0002:8002FAD0       setAnimFrameAndStopAdjustTextWidth__2MRFP11LayoutActorPCcUl
 0002:8002FBF0       setPaneAnimFrameAndStop__2MRFP11LayoutActorPCcfUl
 0002:8002FC60       setAnimFrame__2MRFP11LayoutActorfUl
 0002:8002FD10       setAnimRate__2MRFP11LayoutActorfUl
 0002:8002FE50       isAnimStopped__2MRFPC11LayoutActorUl
 0002:8002FEE0       getAnimFrame__2MRFPC11LayoutActorUl
 0002:8002FF20       getPaneAnimFrame__2MRFPC11LayoutActorPCcUl
 0002:8002FFB0       getPaneAnimFrameMax__2MRFPC11LayoutActorPCcUl
 0002:80030040       getAnimCtrl__2MRFPC11LayoutActorUl
 0002:800300F0       forceDeleteEffect__2MRFP11LayoutActorPCc
 0002:80030120       setEffectHostMtx__2MRFP11LayoutActorPCcPA4_f
 0002:80030160       setEffectRate__2MRFP11LayoutActorPCcf
 0002:800301E0       pauseOffEffectAll__2MRFP11LayoutActor
 0002:80030260       isRegisteredEffect__2MRFPC11LayoutActorPCc
 0002:80030350       isStep__2MRFPC11LayoutActorl
 0002:80030390       isFirstStep__2MRFPC11LayoutActor
 0002:80030400       isGreaterStep__2MRFPC11LayoutActorl
 0002:80030440       isGreaterEqualStep__2MRFPC11LayoutActorl
 0002:80030480       isIntervalStep__2MRFPC11LayoutActorl
 0002:800308A0       isDead__2MRFPC11LayoutActor
 0002:800308C0       showLayout__2MRFP11LayoutActor
 0002:800308D0       hideLayout__2MRFP11LayoutActor
 0002:800309B0       createSimpleLayout__2MRFPCcPCcUl
 0002:80030A90       createAndSetupIconAButton__2MRFP11LayoutActorbb
 0002:80030B10       getPane__2MRFPC11LayoutActorPCc
 0002:80030B50       getPane__13LayoutManagerCFPCc
 0002:80030D10       invalidateParentAnim__2MRFP11LayoutActor
 0002:80030E60       execute__26TextBoxRecursiveSetMessageCFPQ34nw4r3lyt7TextBox
 0002:80030E70       loadLight__2MRFl
 0002:80031520       isValidDraw__2MRFPC9LiveActor
 0002:80031560       calcAnimDirect__2MRFP9LiveActor
 0002:80031610       setClippingTypeSphere__2MRFP9LiveActorfPCQ29JGeometry8TVec3<f>
 0002:800316E0       setClippingFar50m__2MRFP9LiveActor
 0002:80031720       setClippingFar100m__2MRFP9LiveActor
 0002:80031760       setClippingFar200m__2MRFP9LiveActor
 0002:800317A0       setClippingFar300m__2MRFP9LiveActor
 0002:800317E0       setClippingFarMax__2MRFP9LiveActor
 0002:80031820       setClippingFar__2MRFP9LiveActorf
 0002:80031970       setGroupClipping__2MRFP9LiveActorRC12JMapInfoIteri
 0002:800319C0       validateClipping__2MRFP9LiveActor
 0002:80031A10       invalidateClipping__2MRFP9LiveActor
 0002:80031A80       changeShowModelFlagSyncNearClipping__2MRFP9LiveActorf
 0002:80031AE0       isClipped__2MRFPC9LiveActor
 0002:80031B00       setBaseTRMtx__2MRFP9LiveActorPA4_f
 0002:80031B40       setBaseTRMtx__2MRFP9LiveActorRCQ29JGeometry64TPosition3<Q29JGeometry38TMatrix34<Q29JGeometry13SMatrix34C<f>>>
 0002:80031B80       setBaseTRMtx__2MRFP9LiveActorRCQ29JGeometry9TQuat4<f>
 0002:80031C70       j_setBaseTRMtx__2MRFP9LiveActorRCQ29JGeometry9TQuat4<f>
 0002:80031CD0       getResourceHolder__2MRFPC9LiveActor
 0002:80031CF0       getModelResourceHolder__2MRFPC9LiveActor
 0002:80031D10       getTexFromModel__2MRFPCcPC9LiveActor
 0002:80031D80       getTexFromArc__2MRFPCcPC9LiveActor
 0002:80031DF0       isExistTexture__2MRFPC9LiveActorPCc
 0002:80031F10       initDLMakerChangeTex__2MRFP9LiveActorPCc
 0002:80032090       initMirrorReflection__2MRFP9LiveActor
 0002:80032160       setMirrorReflectionInfoFromModel__2MRFP9LiveActor
 0002:800321A0       changeModelDataTexAll__2MRFP9LiveActorPCcRC7ResTIMG
 0002:80032360       initJointTransform__2MRFPC9LiveActor
 0002:80032370       getJointTransform__2MRFPC9LiveActorPCc
 0002:80032380       getBckFrame__2MRFPC9LiveActor
 0002:800325E0       getBtkFrameMax__2MRFPC9LiveActor
 0002:800329E0       initLightCtrl__2MRFP9LiveActor
 0002:80032A20       initLightCtrlForPlayer__2MRFP9LiveActor
 0002:80032A70       updateLightCtrl__2MRFP9LiveActor
 0002:80032A80       updateLightCtrlDirect__2MRFP9LiveActor
 0002:80032A90       loadActorLight__2MRFPC9LiveActor
 0002:80032AD0       getLightCtrl__2MRFPC9LiveActor
 0002:80032AE0       isStep__2MRFPC9LiveActorl
 0002:80032B20       isFirstStep__2MRFPC9LiveActor
 0002:80032B30       isLessStep__2MRFPC9LiveActorl
 0002:80032B70       isLessEqualStep__2MRFPC9LiveActorl
 0002:80032BB0       isGreaterStep__2MRFPC9LiveActorl
 0002:80032BF0       isGreaterEqualStep__2MRFPC9LiveActorl
 0002:80032C30       isIntervalStep__2MRFPC9LiveActorl
 0002:80032C70       isNewNerve__2MRFPC9LiveActor
 0002:80032CA0       calcNerveRate__2MRFPC9LiveActorl
 0002:80032D20       calcNerveRate__2MRFPC9LiveActorll
 0002:80032DB0       calcNerveEaseInRate__2MRFPC9LiveActorl
 0002:80032E40       calcNerveEaseOutRate__2MRFPC9LiveActorl
 0002:80032ED0       calcNerveEaseOutRate__2MRFPC9LiveActorll
 0002:80032F70       calcNerveEaseInOutRate__2MRFPC9LiveActorl
 0002:80033000       calcNerveEaseInOutRate__2MRFPC9LiveActorll
 0002:800330A0       calcNerveValue__2MRFPC9LiveActorlff
 0002:80033160       calcNerveValue__2MRFPC9LiveActorllff
 0002:80033850       isOnGround__2MRFPC9LiveActor
 0002:800338E0       isOnGroundCos__2MRFPC9LiveActorf
 0002:80033960       isBindedGround__2MRFPC9LiveActor
 0002:80033990       isBindedWall__2MRFPC9LiveActor
 0002:80033A80       isBindedRoof__2MRFPC9LiveActor
 0002:80033AB0       isBinded__2MRFPC9LiveActor
 0002:80033B10       isPressedRoofAndGround__2MRFPC9LiveActor
 0002:80033D60       getGroundNormal__2MRFPC9LiveActor
 0002:80033D70       getWallNormal__2MRFPC9LiveActor
 0002:80033D80       getRoofNormal__2MRFPC9LiveActor
 0002:80033D90       getBindedNormal__2MRFPC9LiveActor
 0002:80033FB0       getBindedPlaneNum__2MRFPC9LiveActor
 0002:80033FC0       getBindedPlaneNormal__2MRFPC9LiveActori
 0002:80033FF0       getBindedPlaneSensor__2MRFPC9LiveActori
 0002:80034020       getBindedFixReactionVector__2MRFPC9LiveActor
 0002:80034030       setBinderOffsetVec__2MRFP9LiveActorPCQ29JGeometry8TVec3<f>b
 0002:80034050       setBinderRadius__2MRFP9LiveActorf
 0002:80034090       setBinderIgnoreMovingCollision__2MRFP9LiveActor
 0002:800340B0       validateExCollisionParts__2MRFP9LiveActor
 0002:800340D0       invalidateExCollisionParts__2MRFP9LiveActor
 0002:800340F0       setBinderCollisionPartsFilter__2MRFP9LiveActorP24CollisionPartsFilterBase
 0002:80034160       setBinderExceptActor__2MRFP9LiveActorPC9LiveActor
 0002:800341C0       setBindTriangleFilter__2MRFP9LiveActorP18TriangleFilterBase
 0002:800341D0       isExistBinder__2MRFPC9LiveActor
 0002:800341E0       onEntryDrawBuffer__2MRFP9LiveActor
 0002:80034240       offEntryDrawBuffer__2MRFP9LiveActor
 0002:800342A0       isDead__2MRFPC9LiveActor
 0002:800342B0       isHiddenModel__2MRFPC9LiveActor
 0002:800342C0       showModel__2MRFP9LiveActor
 0002:80034350       hideModel__2MRFP9LiveActor
 0002:80034420       showModelIfHidden__2MRFP9LiveActor
 0002:80034440       hideModelIfShown__2MRFP9LiveActor
 0002:80034460       hideModelAndOnCalcAnimIfShown__2MRFP9LiveActor
 0002:800344D0       isNoCalcAnim__2MRFPC9LiveActor
 0002:80034500       isNoCalcView__2MRFPC9LiveActor
 0002:80034510       isNoEntryDrawBuffer__2MRFPC9LiveActor
 0002:80034530       onBind__2MRFP9LiveActor
 0002:80034540       offBind__2MRFP9LiveActor
 0002:80034550       isCalcGravity__2MRFPC9LiveActor
 0002:80034560       onCalcGravity__2MRFP9LiveActor
 0002:800345A0       offCalcGravity__2MRFP9LiveActor
 0002:80034960       joinToGroup__2MRFP9LiveActorPCc
 0002:800349B0       joinToGroupArray__2MRFP9LiveActorRC12JMapInfoIterPCcl
 0002:80034CF0       callRequestMovementOnAllGroupMember__2MRFPC9LiveActor
 0002:80034D00       callInvalidateClippingAllGroupMember__2MRFPC9LiveActor
 0002:80034D10       callValidateClippingAllGroupMember__2MRFPC9LiveActor
 0002:80034D20       addToAttributeGroupSearchTurtle__2MRFPC9LiveActor
 0002:80034D60       isExistInAttributeGroupSearchTurtle__2MRFPC9LiveActor
 0002:80034DA0       calcGravity__2MRFP9LiveActor
 0002:80034E00       calcGravity__2MRFP9LiveActorRCQ29JGeometry8TVec3<f>
 0002:80034E60       calcGravityOrZero__2MRFP9LiveActor
 0002:80034F50       initCollisionParts__2MRFP9LiveActorPCcP9HitSensorPA4_f
 0002:80035120       createCollisionPartsFromLiveActor__2MRFP9LiveActorPCcP9HitSensorQ22MR18CollisionScaleType
 0002:80035190       createCollisionPartsFromLiveActor__2MRFP9LiveActorPCcP9HitSensorPA4_fQ22MR18CollisionScaleType
 0002:80035200       createCollisionPartsFromResourceHolder__2MRFP14ResourceHolderPCcP9HitSensorRCQ29JGeometry64TPosition3<Q29JGeometry38TMatrix34<Q29JGeometry13SMatrix34C<f>>>Q22MR18CollisionScaleType
 0002:80035450       validateCollisionParts__2MRFP9LiveActor
 0002:800354D0       validateCollisionParts__2MRFP14CollisionParts
 0002:80035520       invalidateCollisionParts__2MRFP9LiveActor
 0002:80035530       invalidateCollisionParts__2MRFP14CollisionParts
 0002:800355C0       onUpdateCollisionPartsOnetimeImmediately__2MRFP9LiveActor
 0002:80035640       offUpdateCollisionParts__2MRFP9LiveActor
 0002:800357D0       setCollisionMtx__2MRFP9LiveActor
 0002:800357E0       setCollisionMtx__2MRFP9LiveActorP14CollisionParts
 0002:80035B10       createModelObjMapObj__2MRFPCcPCcPA4_f
 0002:80035B90       createModelObjMapObjStrongLight__2MRFPCcPCcPA4_f
 0002:80035C10       createModelObjNoSilhouettedMapObj__2MRFPCcPCcPA4_f
 0002:80035E10       createModelObjEnemy__2MRFPCcPCcPA4_f
 0002:80035FA0       createSubModelObjName__27@unnamed@LiveActorUtil_cpp@FPC9LiveActorPCc
 0002:80036690       createPartsModelNoSilhouettedMapObj__2MRFP9LiveActorPCcPCcPA4_f
 0002:80036710       createPartsModelEnemy__2MRFP9LiveActorPCcPCcPA4_f
 0002:80036BC0       tryCreateMirrorActor__2MRFP9LiveActorPCc
 0002:80036C60       stopSceneAtStep__2MRFPC9LiveActorll
 0002:80037040       max__2MRFff
 0002:80037060       __mi__Q29JGeometry8TVec3<f>CFRCQ29JGeometry8TVec3<f>
 0002:800371B0       getJMapInfoArgNoInit__26@unnamed@MapPartsUtil_cpp@FRC12JMapInfoIterPCcPl
 0002:80037240       getJMapInfoArgNoInit__26@unnamed@MapPartsUtil_cpp@FRC12JMapInfoIterPCcPf
 0002:800372B0       getMapPartsArgMoveConditionType__2MRFPlRC12JMapInfoIter
 0002:800372D0       getMapPartsArgRotateSpeed__2MRFPfRC12JMapInfoIter
 0002:800372F0       getMapPartsArgRotateTime__2MRFPlRC12JMapInfoIter
 0002:80037310       getMapPartsArgRotateAngle__2MRFPfRC12JMapInfoIter
 0002:80037330       getMapPartsArgRotateAxis__2MRFPlRC12JMapInfoIter
 0002:80037350       getMapPartsArgRotateAccelType__2MRFPlRC12JMapInfoIter
 0002:80037370       getMapPartsArgRotateStopTime__2MRFPlRC12JMapInfoIter
 0002:80037390       getMapPartsArgRotateType__2MRFPlRC12JMapInfoIter
 0002:800373B0       getMapPartsArgShadowType__2MRFPlRC12JMapInfoIter
 0002:800373D0       getMapPartsArgSignMotionType__2MRFPlRC12JMapInfoIter
 0002:800373F0       getMapPartsArgMovePosture__2MRFPlPC9LiveActor
 0002:80037400       getMapPartsArgMoveStopType__2MRFPlPC9LiveActor
 0002:80037410       getMapPartsArgRailGuideType__2MRFPlPC9LiveActor
 0002:80037420       getMapPartsArgRailInitPosType__2MRFPlPC9LiveActor
 0002:80037430       getMapPartsArgStopTime__2MRFPlPC9LiveActor
 0002:80037440       getMapPartsArgMoveSpeed__2MRFPfPC9LiveActor
 0002:80037460       getMapPartsArgAccelTime__2MRFPlPC9LiveActor
 0002:80037470       getMapPartsArgSpeedCalcType__2MRFPlPC9LiveActor
 0002:800375E0       isMapPartsShadowTypeNone__2MRFl
 0002:800375F0       hasMapPartsShadow__2MRFl
 0002:80037600       isMoveStartTypeUnconditional__2MRFl
 0002:80037E30       getFirstPolyOnLineToMap__2MRFPQ29JGeometry8TVec3<f>P8TriangleRCQ29JGeometry8TVec3<f>RCQ29JGeometry8TVec3<f>
 0002:80038030       getFirstPolyOnLineToMapExceptActor__2MRFPQ29JGeometry8TVec3<f>P8TriangleRCQ29JGeometry8TVec3<f>RCQ29JGeometry8TVec3<f>PC9LiveActor
 0002:80038E80       sin__2MRFf
 0002:80039270       isBindedGroundDamageFire__2MRFPC9LiveActor
 0002:800393B0       isBindedGroundWater__2MRFPC9LiveActor
 0002:80039420       isBindedGroundSinkDeath__2MRFPC9LiveActor
 0002:80039460       isBindedGroundAreaMove__2MRFPC9LiveActor
 0002:800394E0       isBindedGroundBrake__2MRFPC9LiveActor
 0002:800399C0       isGroundCodeWaterIter__2MRFRC12JMapInfoIter
 0002:80039A70       isGroundCodeDeath__2MRFPC8Triangle
 0002:80039B10       isGroundCodeDamage__2MRFPC8Triangle
 0002:80039BB0       isGroundCodeDamageFire__2MRFPC8Triangle
 0002:80039C00       isGroundCodeFireDance__2MRFPC8Triangle
 0002:80039CA0       isGroundCodeDamageElectric__2MRFPC8Triangle
 0002:80039E30       isGroundCodeSinkDeath__2MRFPC8Triangle
 0002:80039ED0       isGroundCodeAreaMove__2MRFPC8Triangle
 0002:80039FA0       isGroundCodeSinkDeathMud__2MRFPC8Triangle
 0002:80039FF0       isGroundCodeBrake__2MRFPC8Triangle
 0002:8003AFA0       checkStrikeLineToSunshade__9CollisionFRCQ29JGeometry8TVec3<f>RCQ29JGeometry8TVec3<f>lPC24CollisionPartsFilterBasePC18TriangleFilterBase
 0002:8003B1A0       JMAAcosRadian__Ff
 0002:8003B250       initAcosTable__2MRFv
 0002:8003B350       acosEx__2MRFf
 0002:8003B3F0       getRandom__2MRFv
 0002:8003B440       getRandom__2MRFff
 0002:8003B4A0       getRandom__2MRFll
 0002:8003B540       getRandomDegree__2MRFv
 0002:8003B690       addRandomVector__2MRFPQ29JGeometry8TVec3<f>RCQ29JGeometry8TVec3<f>f
 0002:8003B820       getInterpolateValue__2MRFfff
 0002:8003B830       getLinerValue__2MRFffff
 0002:8003B850       getLinerValueFromMinMax__2MRFfffff
 0002:8003B8E0       clamp__Q29JGeometry8TUtil<f>Ffff
 0002:8003B9C0       getEaseInValue__2MRFffff
 0002:8003BA30       JMACosRadian__Ff
 0002:8003BA80       getEaseOutValue__2MRFffff
 0002:8003BAF0       JMASinRadian__Ff
 0002:8003BB60       getEaseInOutValue__2MRFffff
 0002:8003BF50       makeAxisFrontUp__2MRFPQ29JGeometry8TVec3<f>PQ29JGeometry8TVec3<f>RCQ29JGeometry8TVec3<f>RCQ29JGeometry8TVec3<f>
 0002:8003C110       makeAxisVerticalZX__2MRFPQ29JGeometry8TVec3<f>RCQ29JGeometry8TVec3<f>
 0002:8003C220       makeAxisCrossPlane__2MRFPQ29JGeometry8TVec3<f>PQ29JGeometry8TVec3<f>RCQ29JGeometry8TVec3<f>
 0002:8003C8C0       calcReboundVelocity__2MRFPQ29JGeometry8TVec3<f>RCQ29JGeometry8TVec3<f>ff
 0002:8003CB50       makeQuatRotateDegree__2MRFPQ29JGeometry9TQuat4<f>RCQ29JGeometry8TVec3<f>
 0002:8003CCB0       blendQuatUpFront__2MRFPQ29JGeometry9TQuat4<f>RCQ29JGeometry8TVec3<f>RCQ29JGeometry8TVec3<f>ff
 0002:8003CEB0       setRotate__Q29JGeometry9TQuat4<f>FRCQ29JGeometry8TVec3<f>RCQ29JGeometry8TVec3<f>f
 0002:8003D680       turnQuatXDirRad__2MRFPQ29JGeometry9TQuat4<f>RCQ29JGeometry9TQuat4<f>RCQ29JGeometry8TVec3<f>f
 0002:8003DB10       fixed16ToFloat__2MRFPQ29JGeometry8TVec3<f>RCQ29JGeometry8TVec3<s>Uc
 0002:8003E1E0       rotateVecDegree__2MRFPQ29JGeometry8TVec3<f>RCQ29JGeometry8TVec3<f>RCQ29JGeometry8TVec3<f>f
 0002:8003E500       normalize__2MRFPQ29JGeometry8TVec3<f>
 0002:8003E530       normalize__2MRFRCQ29JGeometry8TVec3<f>PQ29JGeometry8TVec3<f>
 0002:8003E570       normalizeOrZero__2MRFPQ29JGeometry8TVec2<f>
 0002:8003E5D0       normalizeOrZero__2MRFPQ29JGeometry8TVec3<f>
 0002:8003E630       normalizeOrZero__2MRFRCQ29JGeometry8TVec3<f>PQ29JGeometry8TVec3<f>
 0002:8003E670       normalize__2MRFfff
 0002:8003EAD0       turnVecToVecCosOnPlane__2MRFPQ29JGeometry8TVec3<f>RCQ29JGeometry8TVec3<f>RCQ29JGeometry8TVec3<f>RCQ29JGeometry8TVec3<f>f
 0002:8003EC00       turnVecToVecCosOnPlane__2MRFPQ29JGeometry8TVec3<f>RCQ29JGeometry8TVec3<f>RCQ29JGeometry8TVec3<f>f
 0002:8003EC20       turnVecToVecRadian__2MRFPQ29JGeometry8TVec3<f>RCQ29JGeometry8TVec3<f>RCQ29JGeometry8TVec3<f>fRCQ29JGeometry8TVec3<f>
 0002:8003F070       isSameDirection__2MRFRCQ29JGeometry8TVec3<f>RCQ29JGeometry8TVec3<f>f
 0002:8003F170       isNearZero__2MRFff
 0002:8003F1A0       isNearZero__2MRFRCQ29JGeometry8TVec3<f>f
 0002:8003F440       lerp__2MRFUcUcf
 0002:8003F4D0       lerp__2MRF8_GXColor8_GXColorf
 0002:8003F620       sortSmall__2MRFlPUlPl
 0002:8003F6D0       PSVECKillElement__FPC3VecPC3VecPC3Vec
 0002:8003FA70       blendColor__2MRFP8_GXColorRC8_GXColorRC8_GXColorf
 0002:8003FED0       getMaxAbsElementIndex__2MRFRCQ29JGeometry8TVec3<f>
 0002:8003FF50       diffAngleAbs__2MRFRCQ29JGeometry8TVec3<f>RCQ29JGeometry8TVec3<f>
 0002:80040100       diffAngleSigned__2MRFRCQ29JGeometry8TVec3<f>RCQ29JGeometry8TVec3<f>RCQ29JGeometry8TVec3<f>
 0002:80040190       diffAngleAbsHorizontal__2MRFRCQ29JGeometry8TVec3<f>RCQ29JGeometry8TVec3<f>RCQ29JGeometry8TVec3<f>
 0002:800401F0       diffAngleSignedHorizontal__2MRFRCQ29JGeometry8TVec3<f>RCQ29JGeometry8TVec3<f>RCQ29JGeometry8TVec3<f>
 0002:80040830       vecKillElement__2MRFRCQ29JGeometry8TVec3<f>RCQ29JGeometry8TVec3<f>PQ29JGeometry8TVec3<f>
 0002:80040B20       mod__2MRFff
 0002:80040C60       __ct__Q22MR19CurrentHeapRestorerFP7JKRHeap
 0002:80040CC0       __dt__Q22MR19CurrentHeapRestorerFv
 0002:80040D30       alloc__Q22MR18NewDeleteAllocatorFP12MEMAllocatorUl
 0002:80040D40       free__Q22MR18NewDeleteAllocatorFP12MEMAllocatorPv
 0002:80040D70       getCurrentHeap__2MRFv
 0002:80040D80       getStationedHeapNapa__2MRFv
 0002:80040D90       getStationedHeapGDDR3__2MRFv
 0002:80040DB0       getSceneHeapGDDR3__2MRFv
 0002:80040E10       becomeCurrentHeap__2MRFP7JKRHeap
 0002:80040E70       isEqualCurrentHeap__2MRFP7JKRHeap
 0002:80040E90       adjustHeapSize__2MRFP10JKRExpHeapPCc
 0002:80040EA0       isBinaryInitialized__16KCollisionServerFPCv
 0002:800410A0       copyMemory__2MRFPvPCvUl
 0002:800411B0       fillMemory__2MRFPvUcUl
 0002:800411D0       zeroMemory__2MRFPvUl
 0002:800412D0       calcCheckSum__2MRFPCvUl
 0002:80041310       allocFromWPadHeap__2MRFUl
 0002:80041330       freeFromWPadHeap__2MRFPv
 0002:80041360       alloc__Q22MR19JKRHeapAllocator<0>FP12MEMAllocatorUl
 0002:80041380       getSystemMessageDirect__2MRFPCc
 0002:800413C0       getGameMessageDirect__2MRFPCc
 0002:80041480       getGalaxyNameOnCurrentLanguage__2MRFPCc
 0002:800414C0       getGalaxyNameShortOnCurrentLanguage__2MRFPCc
 0002:80041500       getCurrentGalaxyNameOnCurrentLanguage__2MRFv
 0002:80041690       getLayoutMessageID__2MRFPcPCcPCc
 0002:800416B0       isExistGameMessage__2MRFPCc
 0002:80041900       isGroupTagId__23MessageEditorMessageTagCFii
 0002:80041930       countMessageLine__2MRFPCw
 0002:80041B10       countMessageFigure__2MRFl
 0002:80041B40       getNextMessagePage__2MRFPCw
 0002:80042C70       getJ3DModel__2MRFPC9LiveActor
 0002:80042C90       calcJ3DModel__2MRFP9LiveActor
 0002:80042CF0       getJ3DModelData__2MRFPC9LiveActor
 0002:80042E30       isBckPlaying__2MRFP12XanimePlayerPCc
 0002:80042F80       getMaterialNo__2MRFP8J3DModelPCc
 0002:800430F0       showMaterial__2MRFP8J3DModelPCc
 0002:80043140       showMaterial__2MRFPC9LiveActorPCc
 0002:800432E0       isUseTex__2MRFP11J3DMaterialUs
 0002:80043640       isUseTexMtxEnvMap__2MRFP11J3DMaterial
 0002:80043A40       getResTIMG__2MRFPC9LiveActori
 0002:80043A80       getResTIMG__2MRFPC12J3DModelDatai
 0002:80043AA0       getTexture__2MRFP14ResourceHolderPCc
 0002:80043D60       copyJointAnimation__2MRFP9LiveActorPC9LiveActor
 0002:80043E90       syncMaterialAnimation__2MRFP9LiveActorPC9LiveActor
 0002:800442B0       calcModelBoundingBox__2MRFPQ29JGeometry8TBox3<f>PC9LiveActor
 0002:80044550       __ct__Q29JGeometry8TVec3<f>FRC3Vec
 0002:800445A0       calcModelBoundingRadius__2MRFPfPC9LiveActor
 0002:80044680       isExistCollisionResource__2MRFPC9LiveActorPCc
 0002:800446E0       isExistModel__2MRFPCc
 0002:80044730       isExistSubModel__2MRFPCcPCc
 0002:80044860       makeMtxRotate__2MRFPA4_ffff
 0002:800448C0       makeMtxRotate__2MRFPA4_fRCQ29JGeometry8TVec3<f>
 0002:800448D0       makeMtxRotateY__2MRFPA4_ff
 0002:80044950       makeMtxTR__2MRFPA4_fffffff
 0002:80044AE0       makeMtxTR__2MRFPA4_fRCQ29JGeometry8TVec3<f>RCQ29JGeometry8TVec3<f>
 0002:80044B00       makeMtxTransRotateY__2MRFPA4_fffff
 0002:80044B60       rotateMtxLocalX__2MRFPA4_ff
 0002:80044C40       rotateMtxLocalY__2MRFPA4_ff
 0002:80044D20       rotateMtxLocalZ__2MRFPA4_ff
 0002:80044E00       rotateMtxLocalXDegree__2MRFPA4_ff
 0002:80044E10       rotateMtxLocalYDegree__2MRFPA4_ff
 0002:80044E20       rotateMtxLocalZDegree__2MRFPA4_ff
 0002:80044E30       preScaleMtx__2MRFPA4_ff
 0002:80044E40       preScaleMtx__2MRFPA4_fRCQ29JGeometry8TVec3<f>
 0002:80044E50       preScaleMtx__2MRFPA4_ffff
 0002:80044FB0       setTrans__Q29JGeometry64TPosition3<Q29JGeometry38TMatrix34<Q29JGeometry13SMatrix34C<f>>>FRCQ29JGeometry8TVec3<f>
 0002:800450E0       setXYZDir__Q29JGeometry64TRotation3<Q29JGeometry38TMatrix34<Q29JGeometry13SMatrix34C<f>>>FRCQ29JGeometry8TVec3<f>RCQ29JGeometry8TVec3<f>RCQ29JGeometry8TVec3<f>
 0002:80045130       zeroTrans__Q29JGeometry64TPosition3<Q29JGeometry38TMatrix34<Q29JGeometry13SMatrix34C<f>>>Fv
 0002:80045770       getXYZDir__Q29JGeometry64TRotation3<Q29JGeometry38TMatrix34<Q29JGeometry13SMatrix34C<f>>>CFRQ29JGeometry8TVec3<f>RQ29JGeometry8TVec3<f>RQ29JGeometry8TVec3<f>
 0002:80045A80       makeRTFromMtxPtr__2MRFPQ29JGeometry8TVec3<f>PQ29JGeometry8TVec3<f>PA4_fb
 0002:80045DB0       makeMtxUpFront__2MRFPQ29JGeometry64TPosition3<Q29JGeometry38TMatrix34<Q29JGeometry13SMatrix34C<f>>>RCQ29JGeometry8TVec3<f>RCQ29JGeometry8TVec3<f>
 0002:80045E30       makeMtxUpFrontPos__2MRFPQ29JGeometry64TPosition3<Q29JGeometry38TMatrix34<Q29JGeometry13SMatrix34C<f>>>RCQ29JGeometry8TVec3<f>RCQ29JGeometry8TVec3<f>RCQ29JGeometry8TVec3<f>
 0002:80046060       makeMtxUpNoSupport__2MRFPQ29JGeometry64TPosition3<Q29JGeometry38TMatrix34<Q29JGeometry13SMatrix34C<f>>>RCQ29JGeometry8TVec3<f>
 0002:80046120       makeMtxUpNoSupportPos__2MRFPQ29JGeometry64TPosition3<Q29JGeometry38TMatrix34<Q29JGeometry13SMatrix34C<f>>>RCQ29JGeometry8TVec3<f>RCQ29JGeometry8TVec3<f>
 0002:80046300       orthogonalize__2MRFPQ29JGeometry64TPosition3<Q29JGeometry38TMatrix34<Q29JGeometry13SMatrix34C<f>>>
 0002:80046B00       setMtxTrans__2MRFPA4_ffff
 0002:80046B50       addTransMtxLocal__2MRFPA4_fRCQ29JGeometry8TVec3<f>
 0002:80046D30       extractMtxTrans__2MRFPA4_fPQ29JGeometry8TVec3<f>
 0002:80046F30       isSameMtx__2MRFPA4_fPA4_f
 0002:80047510       __ct__16MultiEventCameraFv
 0002:80047580       setUp__16MultiEventCameraFPCcPC15ActorCameraInfol
 0002:800475F0       setEndCameraTypeAtLanding__16MultiEventCameraFv
 0002:800478D0       declareEventCamera__16MultiEventCameraFl
 0002:80047A50       isStep__2MRFPC13NerveExecutorl
 0002:80047A90       isFirstStep__2MRFPC13NerveExecutor
 0002:80047AA0       isLessStep__2MRFPC13NerveExecutorl
 0002:80047AE0       isLessEqualStep__2MRFPC13NerveExecutorl
 0002:80048580       set__6Color8FUcUcUcUc
 0002:80048BA0       startNPCTalkCamera__2MRFPC15TalkMessageCtrlPA4_ffl
 0002:80048C00       startNPCTalkCamera__2MRFPC15TalkMessageCtrlPA4_fPA4_ffl
 0002:8004A148       def_8004A068
 0002:8004AA20       isJudgedToClipFrustum__2MRFRCQ29JGeometry8TVec3<f>f
 0002:8004AAC0       isJudgedToClipFrustum300m__2MRFRCQ29JGeometry8TVec3<f>f
 0002:8004AB10       isJudgedToNearClip__2MRFRCQ29JGeometry8TVec3<f>f
 0002:8004ABD0       isInWater__2MRFRCQ29JGeometry8TVec3<f>
 0002:8004AC10       isInDeath__2MRFRCQ29JGeometry8TVec3<f>
 0002:8004AC20       isInDarkMatter__2MRFRCQ29JGeometry8TVec3<f>
 0002:8004AC30       j_registerNameObjToExecuteHolder__2MRFP7NameObjiiii
 0002:8004AC40       connectToScene__2MRFP7NameObjiiii
 0002:8004AC80       connectToSceneCollisionMapObj__2MRFP9LiveActor
 0002:8004ACA0       connectToSceneCollisionMapObjWeakLight__2MRFP9LiveActor
 0002:8004ACC0       connectToSceneCollisionMapObjStrongLight__2MRFP9LiveActor
 0002:8004AD00       connectToSceneCollisionEnemyStrongLight__2MRFP9LiveActor
 0002:8004AD20       connectToSceneCollisionEnemyNoShadowedMapObjStrongLight__2MRFP9LiveActor
 0002:8004AD40       connectToSceneNpc__2MRFP9LiveActor
 0002:8004AD60       connectToSceneNpcMovement__2MRFP9LiveActor
 0002:8004ADA0       connectToSceneEnemy__2MRFP9LiveActor
 0002:8004ADC0       connectToSceneEnemyMovement__2MRFP7NameObj
 0002:8004AE10       connectToSceneMapObj__2MRFP9LiveActor
 0002:8004AE30       connectToSceneMapObjMovement__2MRFP7NameObj
 0002:8004AE80       connectToSceneMapObjMovementCalcAnim__2MRFP7NameObj
 0002:8004AED0       connectToSceneMapObjNoMovement__2MRFP9LiveActor
 0002:8004AF30       connectToSceneMapObjDecoration__2MRFP9LiveActor
 0002:8004AFC0       connectToSceneMapObjStrongLight__2MRFP9LiveActor
 0002:8004B0B0       connectToSceneEnemyDecoration__2MRFP9LiveActor
 0002:8004B0D0       connectToSceneEnemyDecorationMovement__2MRFP7NameObj
 0002:8004B190       connectToSceneItemStrongLight__2MRFP9LiveActor
 0002:8004B1D0       connectToSceneIndirectNpc__2MRFP9LiveActor
 0002:8004B280       connectToSceneAreaObj__2MRFP7NameObj
 0002:8004B2F0       connectToSceneLayout__2MRFP7NameObj
 0002:8004B480       connectToSceneTalkLayout__2MRFP7NameObj
 0002:8004B570       connectToSceneLayoutMovement__2MRFP7NameObj
 0002:8004B5C0       connectToSceneMirrorMapObj__2MRFP9LiveActor
 0002:8004B670       connectToSceneNoShadowedMapObjStrongLight__2MRFP9LiveActor
 0002:8004B6B0       connectToSceneNoSilhouettedMapObjStrongLight__2MRFP9LiveActor
 0002:8004B730       connectToSceneSky__2MRFP9LiveActor
 0002:8004B7F0       j_requestMovementOn__15NameObjFunctionFP7NameObj
 0002:8004B800       requestMovementOn__2MRFP9LiveActor
 0002:8004B850       requestMovementOn__2MRFP11LayoutActor
 0002:8004B860       requestMovementOff__2MRFP7NameObj
 0002:8004B8C0       j_requestMovementOff__15NameObjFunctionFP7NameObj_0
 0002:8004B8D0       joinToNameObjGroup__2MRFP7NameObjPCc
 0002:8004B920       registerPreDrawFunction__2MRFRCQ22MR11FunctorBasei
 0002:8004B9E0       createDrawAdaptor__2MRFPCcRCQ22MR11FunctorBase
 0002:8004BA70       createAdaptorAndConnectToDrawBloomModel__2MRFPCcRCQ22MR11FunctorBase
 0002:8004BB70       listenNameObjStageSwitchOnOffAppear__2MRFPC7NameObjPC15StageSwitchCtrlRCQ22MR11FunctorBaseRCQ22MR11FunctorBase
 0002:8004BE40       createAndAddResourceHolder__2MRFPCc
 0002:8004BF10       loadTexFromArc__2MRFPCcPCc
 0002:8004BF20       loadTexFromArc__2MRFPCc
 0002:8004C090       tryCreateCsvParserLocal__21@unnamed@ObjUtil_cpp@FPC14ResourceHolderPCcP16__va_list_struct
 0002:8004C160       createCsvParser__2MRFPC14ResourceHolderPCce
 0002:8004C1F0       createCsvParser__2MRFPCcPCce
 0002:8004C330       tryCreateCsvParser__2MRFPC14ResourceHolderPCce
 0002:8004C6D0       getCsvDataElementNum__2MRFPC8JMapInfo
 0002:8004C6F0       getCsvDataStr__2MRFPPCcPC8JMapInfoPCcl
 0002:8004C710       getValue<PCc>__8JMapInfoCFiPCcPPCc_Cb
 0002:8004C780       getCsvDataStrOrNULL__2MRFPPCcPC8JMapInfoPCcl
 0002:8004C7D0       getCsvDataS32__2MRFPlPC8JMapInfoPCcl
 0002:8004C7F0       getValue<l>__8JMapInfoCFiPCcPl_Cb
 0002:8004C920       getCsvDataU8__2MRFPUcPC8JMapInfoPCcl
 0002:8004C970       getCsvDataF32__2MRFPfPC8JMapInfoPCcl
 0002:8004C9F0       getCsvDataBool__2MRFPbPC8JMapInfoPCcl
 0002:8004CA80       getCsvDataVec__2MRFP3VecPC8JMapInfoPCcl
 0002:8004CB40       getCsvDataColor__2MRFP8_GXColorPC8JMapInfoPCcl
 0002:8004CD00       __eq__12JMapInfoIterCFRC12JMapInfoIter
 0002:8004CD50       end__8JMapInfoCFv
 0002:8004CE30       findElement<l>__8JMapInfoCFPCcli_12JMapInfoIter
 0002:8004D2E0       declarePowerStar__2MRFPC7NameObj
 0002:8004D2F0       declarePowerStar__2MRFPC7NameObjl
 0002:8004D300       declarePowerStarCoin100__2MRFv
 0002:8004D430       requestAppearPowerStar__2MRFPC7NameObjPC9LiveActorf
 0002:8004D500       requestAppearPowerStarCoin100__2MRFv
 0002:8004D520       isEndPowerStarAppearDemo__2MRFPC7NameObj
 0002:8004D5D0       declareCoin__2MRFPC7NameObjl
 0002:8004D740       appearCoinPopToDirection__2MRFPC7NameObjRCQ29JGeometry8TVec3<f>RCQ29JGeometry8TVec3<f>l
 0002:8004D8A0       declareStarPiece__2MRFPC7NameObjl
 0002:8004DA50       appearStarPiece__2MRFPC7NameObjRCQ29JGeometry8TVec3<f>lffb
 0002:8004DAD0       appearStarPieceToDirection__2MRFPC7NameObjRCQ29JGeometry8TVec3<f>RCQ29JGeometry8TVec3<f>lffb
 0002:8004DCF0       __dt__9LiveActorFv
 0002:8004E070       tryRumblePad__2MRFPCvPCcl
 0002:8004E100       tryRumblePadStrong__2MRFPCvl
 0002:8004E140       tryRumblePadMiddle__2MRFPCvl
 0002:8004E180       tryRumblePadWeak__2MRFPCvl
 0002:8004E1C0       tryRumblePadVeryWeak__2MRFPCvl
 0002:8004E2B0       tryRumbleDefaultHit__2MRFPCvl
 0002:8004E2F0       shakeCameraVeryStrong__2MRFv
 0002:8004E380       shakeCameraNormal__2MRFv
 0002:8004E3B0       shakeCameraNormalWeak__2MRFv
 0002:8004E3E0       shakeCameraWeak__2MRFv
 0002:8004E410       shakeCameraVeryWeak__2MRFv
 0002:8004E440       shakeCameraInfinity__2MRFP7NameObjff
 0002:8004E4B0       stopShakingCamera__2MRFP7NameObj
 0002:8004E4F0       isName__2MRFPC7NameObjPCc
 0002:8004E520       isSame__2MRFPC7NameObjPC7NameObj
 0002:8004E530       tryRegisterNamePosLinkObj__2MRFPC7NameObjRC12JMapInfoIterPCc
 0002:8004E970       receiveMsgEnemyAttack__9LiveActorFUlP9HitSensorP9HitSensor
 0002:8004E980       receiveMsgPush__9LiveActorFP9HitSensorP9HitSensor
 0002:8004E990       updateHitSensor__9LiveActorFP9HitSensor
 0002:8004F040       isPlayerDead__2MRFv
 0002:8004F0B0       isPlayerInAreaObj__2MRFPCc
 0002:8004F0F0       getPlayerPos__2MRFv
 0002:8004F140       getPlayerCenterPos__2MRFv
 0002:8004F1D0       getPlayerRotate__2MRFv
 0002:8004F320       getPlayerGravity__2MRFv
 0002:8004F360       checkPlayerSwingTrigger__2MRFv
 0002:8004F3D0       getPlayerUpVec__2MRFPQ29JGeometry8TVec3<f>
 0002:8004F410       getPlayerFrontVec__2MRFPQ29JGeometry8TVec3<f>
 0002:8004FE90       getStarPiecePlayer__2MRFv
 0002:8004FEA0       notifyDirectGetStarPiecePlayer__2MRFv
 0002:8004FF50       isPlayerInBind__2MRFv
 0002:80050120       isPlayerElementModeIce__2MRFv
 0002:80050210       isPlayerElementModeNormal__2MRFv
 0002:800504B0       endBindAndPlayerJump__2MRFP9LiveActorRCQ29JGeometry8TVec3<f>Ul
 0002:80050590       endBindAndPlayerForceWeakGravityJump__2MRFP9LiveActorRCQ29JGeometry8TVec3<f>
 0002:800508DC       def_8005086C
 0002:80050EB0       stopSoundPlayer__2MRFPCcUl
 0002:800514A0       getPlayerBaseMtx__2MRFv
 0002:80051510       j_getPlayerActor__11MarioAccessFv
 0002:80051640       isPlayerHidden__2MRFv
 0002:80051F60       moveCoord__2MRFP9LiveActorf
 0002:80052170       moveCoordAndFollowTrans__2MRFP9LiveActorf
 0002:80052230       moveCoordToStartPos__2MRFP9LiveActor
 0002:80052290       moveCoordToEndPos__2MRFP9LiveActor
 0002:80052400       moveCoordAndTransToRailStartPoint__2MRFP9LiveActor
 0002:800524D0       setRailDirectionToEnd__2MRFP9LiveActor
 0002:800527C0       calcRailClippingInfo__2MRFPQ29JGeometry8TVec3<f>PfPC9LiveActorff
 0002:80052AD0       calcNearestRailPos__2MRFPQ29JGeometry8TVec3<f>PC9LiveActorRCQ29JGeometry8TVec3<f>
 0002:80053000       calcRailPosAtCoord__2MRFPQ29JGeometry8TVec3<f>PC9LiveActorf
 0002:80053340       calcRailPointPos__2MRFPQ29JGeometry8TVec3<f>PC9LiveActori
 0002:800537A0       isExistRail__2MRFPC9LiveActor
 0002:800537B0       getRailPointNum__2MRFPC9LiveActor
 0002:800537C0       getCurrentRailPointNo__2MRFPC9LiveActor
 0002:800537D0       getNextRailPointNo__2MRFPC9LiveActor
 0002:800537E0       getRailTotalLength__2MRFPC9LiveActor
 0002:80053800       getRailPointCoord__2MRFPC9LiveActori
 0002:80053810       getRailPos__2MRFPC9LiveActor
 0002:80053820       getRailPointPosStart__2MRFPC9LiveActor
 0002:80053830       getRailPointPosEnd__2MRFPC9LiveActor
 0002:80053840       getRailDirection__2MRFPC9LiveActor
 0002:80053850       getRailCoord__2MRFPC9LiveActor
 0002:80053860       getRailCoordSpeed__2MRFPC9LiveActor
 0002:80053870       setRailCoord__2MRFP9LiveActorf
 0002:80053880       setRailCoordSpeed__2MRFP9LiveActorf
 0002:80053960       v
 0002:80053A10       isRailReachedEdge__2MRFPC9LiveActor
 0002:80053A20       isRailGoingToEnd__2MRFPC9LiveActor
 0002:80053A30       isRailReachedNearNextPoint__2MRFPC9LiveActorf
 0002:80053BC0       getRailArg0NoInit__2MRFPC9LiveActorPl
 0002:80053BE0       getRailArg1NoInit__2MRFPC9LiveActorPl
 0002:80053C00       getRailArg2NoInit__2MRFPC9LiveActorPl
 0002:80053C20       getRailArg3NoInit__2MRFPC9LiveActorPl
 0002:80053C40       getRailArg4NoInit__2MRFPC9LiveActorPl
 0002:80053C60       getRailArg5NoInit__2MRFPC9LiveActorPl
 0002:80053C90       getRailPathArgName__22@unnamed@RailUtil_cpp@Fl
 0002:80053CF8       def_80053CB4
 0002:80053E20       getRailCurrentPointArgF32NoInit__22@unnamed@RailUtil_cpp@FPC9LiveActorlPf
 0002:80054120       getRailPointArg0NoInit__2MRFPC9LiveActorlPl
 0002:800543C0       getCurrentRailPointArg0NoInit__2MRFPC9LiveActorPl
 0002:80054410       getCurrentRailPointArg1NoInit__2MRFPC9LiveActorPl
 0002:80054460       getCurrentRailPointArg5NoInit__2MRFPC9LiveActorPl
 0002:800544B0       getCurrentRailPointArg7NoInit__2MRFPC9LiveActorPl
 0002:80054500       getCurrentRailPointArg0NoInit__2MRFPC9LiveActorPf
 0002:80054510       getCurrentRailPointArg1NoInit__2MRFPC9LiveActorPf
 0002:80054520       getCurrentRailPointArg2NoInit__2MRFPC9LiveActorPf
 0002:80054860       nullsub_20
 0002:80054A50       nullsub_59
 0002:80054CC0       nullsub_60
 0002:80054CD0       nullsub_61
 0002:80055750       mult33__Q29JGeometry64TRotation3<Q29JGeometry38TMatrix34<Q29JGeometry13SMatrix34C<f>>>CFRQ29JGeometry8TVec3<f>
 0002:80056470       getRailInfoFromRailId__23@unnamed@SceneUtil_cpp@FP12JMapInfoIterPPC8JMapInfoPC15StageDataHolderi
 0002:800564C0       getCurrentScenarioNo__2MRFv
 0002:80056510       setCurrentScenarioNo__2MRFll
 0002:80056530       isScenarioDecided__2MRFv
 0002:80056550       getCurrentStageName__2MRFv
 0002:80056560       isEqualSceneName__2MRFPCc
 0002:80056570       isEqualStageName__2MRFPCc
 0002:80056590       nullsub_139
 0002:800567C0       isStageStaffRoll__2MR
 0002:800567D0       isStageStarPieceFollowGroupLimit__2MRFv
 0002:80056830       isStageFileSelect__2MR
 0002:80056A20       isStageMarioFaceShip__2MRFv
 0002:80056A30       isStageWorldMap__2MRFv
 0002:80056AF0       isStageMarioFaceShipOrWorldMap__2MRFv
 0002:80057420       setInitializeStatePlacementPlayer__2MRFv
 0002:80057430       setInitializeStatePlacementHighPriority__2MRFv
 0002:80057440       setInitializeStatePlacement__2MRFv
 0002:80057450       setInitializeStateAfterPlacement__2MRFv
 0002:80057560       getCurrentMarioStartIdInfo__2MRFv
 0002:800575D0       getCurrentStartZoneId__2MRFv
 0002:80057600       getInitializeStartIdInfo__2MRFv
 0002:80057610       getGeneralPosNum__2MRFv
 0002:80057640       getGeneralPosData__2MRFPPCcPQ29JGeometry8TVec3<f>PQ29JGeometry8TVec3<f>PP12JMapLinkInfoi
 0002:80057840       getChildObjNum__2MRFRC12JMapInfoIter
 0002:80057880       getChildObjName__2MRFPPCcRC12JMapInfoIteri
 0002:80057B40       initChildObj__2MRFP7NameObjRC12JMapInfoIteri
 0002:80057BF0       getCurrentStagePowerStarNum__2MRFv
 0002:80057C20       getZoneNum__2MRFv
 0002:80057C50       getZoneNameFromZoneId__2MRFl
 0002:80057CD0       getPlacedHiddenStarScenarioNo__2MRFPCcl
 0002:80057D80       getRailInfo__2MRFP12JMapInfoIterPPC8JMapInfoRC12JMapInfoIter
 0002:80057DF0       getNextLinkRailInfo__2MRFP12JMapInfoIterPPC8JMapInfoRC12JMapInfoIter
 0002:80057E70       getCurrentStartCameraId__2MRFv
 0002:80057EA0       getStartCameraIdInfoFromStartDataIndex__2MRFP10JMapIdInfoi
 0002:80057EF0       getPlacedRailNum__2MRFl
 0002:80057F50       getCameraRailInfo__2MRFP12JMapInfoIterPPC8JMapInfoll
 0002:80057FB0       getCameraRailInfoFromRailDataIndex__2MRFP12JMapInfoIterPPC8JMapInfoil
 0002:80058030       getStageCameraData__2MRFPPvPll
 0002:800580B0       getCurrentScenarioStartAnimCameraData__2MRFPPvPl
 0002:80058190       isPlacementLocalStage__2MRFv
 0002:800581C0       getPlacedZoneId__2MRFRC12JMapInfoIter
 0002:80058200       getZonePlacementMtx__2MRFRC12JMapInfoIter
 0002:80058240       getZonePlacementMtx__2MRFl
 0002:80058310       setCurrentPlacementZoneId__2MRFl
 0002:800583F0       __ct__Q22MR30ProhibitSchedulerAndInterruptsFb
 0002:80058430       __dt__Q22MR30ProhibitSchedulerAndInterruptsFv
 0002:80058490       getCaptureScreenDirector__24@unnamed@ScreenUtil_cpp@Fv
 0002:80058560       getScreenWidth__2MRFv
 0002:800589E0       getScreenResTIMG__2MRFv
 0002:80058A10       closeWipeCircle__2MRFl
 0002:80058A20       forceOpenWipeCircle__2MRFv
 0002:80058E70       openSystemWipeFade__2MRFl
 0002:800594E0       turnOffDOFInSubjective__2MRFv
 0002:80059510       turnOnDOFInSubjective__2MRFv
 0002:80059890       createCenterScreenBlur__2MRFv
 0002:800598A0       startCenterScreenBlur__2MRFlfUcll
 0002:80059AD0       deactivateDefaultGameLayout__2MRFv
 0002:8005A240       createPurpleCoinCounter__2MRFv
 0002:8005A430       isExecScenarioStarter__2MRFv
 0002:8005A440       isStageStateScenarioOpeningCamera__2MRFv
 0002:8005A640       actorSoundMovement__2MRFP9LiveActor
 0002:8005A6E0       j_startBas__2MRFPC9LiveActorPCcbff
 0002:8005A6F0       startBas__2MRFPC9LiveActorPCcbff
 0002:8005A830       getMapSoundCodeFoot__2MRFPC9LiveActor
 0002:8005AE40       startSystemSE__2MRFPCcll
 0002:8005AED0       startSystemSE__2MRF10JAISoundIDll
 0002:8005AF20       startSystemLevelSE__2MRFPCcll
 0002:8005AFD0       stopSystemSE__2MRFPCcUl
 0002:8005B020       stopSystemSE__2MRF10JAISoundIDUl
 0002:8005B060       startAtmosphereSE__2MRFPCcll
 0002:8005B0B0       startAtmosphereLevelSE__2MRFPCcll
 0002:8005B150       startSoundObject__2MRFP14AudSoundObjectPCc
 0002:8005B1E0       startSoundObjectLevel__2MRFP14AudSoundObjectPCcl
 0002:8005B240       updateLifeTime__8JAISoundFUl
 0002:8005B3A0       startSound__2MRFPC9LiveActorPCcll
 0002:8005B600       stopSound__2MRFPC9LiveActorPCcUl
 0002:8005B8B0       nullsub_26
 0002:8005BCB0       getStarPointerOnOffController__29@unnamed@StarPointerUtil_cpp@Fv
 0002:8005C0D0       initStarPointerTarget__2MRFP9LiveActorfRCQ29JGeometry8TVec3<f>
 0002:8005C240       addStarPointerTargetCircle__2MRFP11LayoutActorPCcfRCQ29JGeometry8TVec2<f>PCc
 0002:8005C270       isStarPointerValid__2MRFl
 0002:8005C340       isStarPointerPointing__2MRFPC9LiveActorlbPCc
 0002:8005C360       tryStarPointerCheckWithoutRumble__2MRFP9LiveActorb
 0002:8005C370       isStarPointerPointingPane__2MRFPC11LayoutActorPCclbPCc
 0002:8005C3F0       isStarPointerPointingPaneForMeterLayout__2MRFPC11LayoutActorPCclbPCc
 0002:8005C580       __ct__Q29JGeometry8TVec2<f>FRCQ29JGeometry8TVec2<f>
 0002:8005C750       isStarPointerPointing1P__2MRFPC9LiveActorPCcbb
 0002:8005C8D0       isStarPointerPointing2P__2MRFPC9LiveActorPCcbb
 0002:8005CB60       isStarPointerPointing1Por2P__2MRFPC9LiveActorPCcbb
 0002:8005D2A0       getStarPointerScreenPositionOrEdge__2MRFl
 0002:8005D350       isOnScreenEdge__19StarPointerFunctionFl
 0002:8005D440       getStarPointerLastPointedPort__2MRFPC9LiveActor
 0002:8005D4C0       getStarPointerWorldPosUsingDepth__2MRFl
 0002:8005D7C0       set<f>__Q29JGeometry8TVec2<f>FRCQ29JGeometry8TVec2<f>_v
 0002:8005DA20       calcPointRadius2D__2MRFRCQ29JGeometry8TVec3<f>f
 0002:8005E2B0       startStarPointerModeScenarioSelectScene__2MRFPv
 0002:8005E330       startStarPointerModePowerStarGetDemo__2MRFPv
 0002:8005E4B0       endStarPointerMode__2MRFPv
 0002:8005E620       isStarPointerModeStarPieceTarget__2MRFv
 0002:8005ED20       isEnableStarPointerShootStarPiece__2MRFl
 0002:8005ED80       isStarPointer2PTransparencyMode__2MRFv
 0002:8005EEA0       isStarPointer1PInvalid2PValidMode__2MRFv
 0002:8005EED0       setStarPointerDrawSyncToken__2MRFv
 0002:8005F000       addFilePrefix__2MRFPcUlPCcPCc
 0002:8005F030       makeDateString__2MRFPwllll
 0002:8005F0A0       makeTimeString__2MRFPwlll
 0002:8005F110       isViewNormalEnding__8UserFileCFv
 0002:8005F400       copyString__2MRFPcPCcUl
 0002:8005F410       copyString__2MRFPwPCwUl
 0002:8005F420       addPictureFontCode__2MRFPwi
 0002:8005F430       addNewLine__2MRFPw
 0002:8005F450       getBasename__2MRFPCc
 0002:8005F4A0       removeExtensionString__2MRFPcUlPCc
 0002:8005F530       extractString__2MRFPcPCcUlUl
 0002:8005F570       convertUTF16ToASCII__2MRFPcPCwl
 0002:8005F5C0       strcasecmp__2MRFPCcPCc
 0002:8005F5D0       isEqualString__2MRFPCcPCc
 0002:8005F600       isEqualStringCase__2MRFPCcPCc
 0002:8005F630       isEqualSubString__2MRFPCcPCc
 0002:8005F7C0       isNullOrEmptyString__2MRFPCc
 0002:8005F810       isMessageEditorNextTag__2MRFPCw
 0002:8005F890       getStringLengthWithMessageTag__2MRFPCw
 0002:8005F920       scan32__2MRFPCcPCcPl
 0002:8005F980       scanf32__2MRFPCcPCcPf
 0002:8005F9E0       scanu8x4__2MRFPCcPCcPUc
 0002:8005FA70       scanf32x4__2MRFPCcPCcPf
 0002:80060040       __ct__26SwitchEventFunctorListenerFv
 0002:80060060       setOnFunctor__26SwitchEventFunctorListenerFRCQ22MR11FunctorBase
 0002:800600B0       setOffFunctor__26SwitchEventFunctorListenerFRCQ22MR11FunctorBase
 0002:80060100       listenSwitchOnEvent__26SwitchEventFunctorListenerFv
 0002:80060120       listenSwitchOffEvent__26SwitchEventFunctorListenerFv
 0002:80060170       getFontOnCurrentLanguage__2MRFv
 0002:80060180       getPictureFontNW4R__2MRFv
 0002:80060190       getMenuFontNW4R__2MRFv
 0002:800601A0       getNumberFontNW4R__2MRFv
 0002:800601B0       getCinemaFontNW4R__2MRFv
 0002:80060220       getParticleResourceHolder__2MRFv
 0002:80060250       requestChangeArchivePlayer__2MRFb
 0002:80060260       waitEndChangeArchivePlayer__2MRFv
 0002:80060370       getSceneNameObjHolder__24@unnamed@SystemUtil_cpp@Fv
 0002:80060380       suspendAllSceneNameObj__2MRFv
 0002:800603B0       resumeAllSceneNameObj__2MRFv
 0002:800603E0       syncWithFlagsAllSceneNameObj__2MRFv
 0002:80060410       setRandomSeedFromStageName__2MRFv
 0002:80060490       startFunctionAsyncExecute__2MRFRCQ22MR11FunctorBaseiPCc
 0002:800604E0       startFunctionAsyncExecuteOnMainThread__2MRFRCQ22MR11FunctorBasePCc
 0002:80060530       waitForEndFunctionAsyncExecute__2MRFPCc
 0002:80060570       isEndFunctionAsyncExecute__2MRFPCc
 0002:80060610       suspendAsyncExecuteThread__2MRFPCc
 0002:80060720       isScreen16Per9__2MRFv
 0002:80060810       setLayoutDefaultAllocator__2MRFv
 0002:800615B0       getAreaObjManager__2MRFPCc
 0002:800615F0       getAreaObj__2MRFPCcRCQ29JGeometry8TVec3<f>
 0002:80061690       isInAreaObj__2MRFPCcRCQ29JGeometry8TVec3<f>
 0002:80061780       def_8006173C
 0002:80061790       nullsub_35
 0002:80061830       getWaterAreaObj__2MRFP9WaterInfoRCQ29JGeometry8TVec3<f>
 0002:80061EF0       __ami__Q29JGeometry8TVec3<f>FRCQ29JGeometry8TVec3<f>
 0002:80062C30       __ct__18BaseMatrixFollowerFP7NameObjRC12JMapInfoIter
 0002:80062CC0       getFollowTargetActor__18BaseMatrixFollowerCFv
 0002:80062CD0       calcFollowMatrix__18BaseMatrixFollowerCFPQ29JGeometry64TPosition3<Q29JGeometry38TMatrix34<Q29JGeometry13SMatrix34C<f>>>
 0002:80062D60       isValid__18BaseMatrixFollowerCFv
 0002:80062EA0       __ct__28BaseMatrixFollowTargetHolderFPCcll
 0002:80063100       setFollowTargetInfo__28BaseMatrixFollowTargetHolderFP9LiveActorRC12JMapInfoIterPCQ29JGeometry64TPosition3<Q29JGeometry38TMatrix34<Q29JGeometry13SMatrix34C<f>>>P25BaseMatrixFollowValidater
 0002:800632A0       isValidFollowID__2MRFRC12JMapInfoIter
 0002:80063300       addBaseMatrixFollower__2MRFP18BaseMatrixFollower
 0002:80063350       addBaseMatrixFollowTarget__2MRFP9LiveActorRC12JMapInfoIterPCQ29JGeometry64TPosition3<Q29JGeometry38TMatrix34<Q29JGeometry13SMatrix34C<f>>>P25BaseMatrixFollowValidater
 0002:80063510       __ct__Q22MR14BothDirPtrLinkFPv
 0002:800636A0       append__Q22MR14BothDirPtrListFPQ22MR14BothDirPtrLink
 0002:80063750       remove__Q22MR14BothDirPtrListFPQ22MR14BothDirPtrLink
 0002:800639B0       setup__6TDDrawFUlUlUc
 0002:80065320       cameraInit3D__6TDDrawFv
 0002:80065EC0       __ct__13FixedPositionFPA4_fRCQ29JGeometry8TVec3<f>RCQ29JGeometry8TVec3<f>
 0002:800674B0       __ct__10JMapIdInfoFlRC12JMapInfoIter
 0002:80067610       __ct__8JMapInfoFv
 0002:80067630       __dt__8JMapInfoFv
 0002:80067670       attach__8JMapInfoFPCv
 0002:800676A0       getName__8JMapInfoCFv
 0002:800676B0       searchItemInfo__8JMapInfoCFPCc
 0002:80067790       getValueFast__8JMapInfoCFiiPPCc
 0002:80067810       getValueFast__8JMapInfoCFiiPUl
 0002:800678A0       getValueFast__8JMapInfoCFiiPl
 0002:80067970       __ct__12JMapLinkInfoFRC12JMapInfoIterb
 0002:80067A90       isValid__12JMapLinkInfoCFv
 0002:80067BE0       __ct__15JointControllerFv
 0002:80067C00       calcJointMatrix__15JointControllerFPQ29JGeometry64TPosition3<Q29JGeometry38TMatrix34<Q29JGeometry13SMatrix34C<f>>>RC19JointControllerInfo
 0002:80067C10       calcJointMatrixAfterChild__15JointControllerFPQ29JGeometry64TPosition3<Q29JGeometry38TMatrix34<Q29JGeometry13SMatrix34C<f>>>RC19JointControllerInfo
 0002:80067C20       registerCallBack__15JointControllerFv
 0002:80067C40       calcJointMatrixAndSetSystem__15JointControllerFP8J3DJoint
 0002:80067CE0       getAnmMtx__8J3DModelFi
 0002:80067D00       calcJointMatrixAfterChildAndSetSystem__15JointControllerFP8J3DJoint
 0002:80067D90       staticCallBack__15JointControllerFP8J3DJointi
 0002:80067E20       setJointControllerParam__2MRFP15JointControllerPC9LiveActorPCc
 0002:80067E80       setJointControllerParam__2MRFP15JointControllerPC9LiveActorUs
 0002:80067EE0       __ct__12JointRumblerFP9LiveActorPCcffUlbl
 0002:80068000       update__12JointRumblerFv
 0002:80068070       start__12JointRumblerFv
 0002:800680B0       reset__12JointRumblerFv
 0002:80068100       isRumbling__12JointRumblerCFv
 0002:80068120       updateModelScale__12JointRumblerFf
 0002:80068190       updateScale__12JointRumblerFPQ29JGeometry8TVec3<f>f
 0002:80068B70       start__16RumbleCalculatorFUl
 0002:80068BA0       calc__16RumbleCalculatorFv
 0002:80068CB0       reset__16RumbleCalculatorFv
 0002:80068CC0       __ct__29RumbleCalculatorCosMultLinearFfffUl
 0002:80068DC0       __ct__11SpringValueFfffff
 0002:80068DE0       setParam__11SpringValueFfffff
 0002:80068E00       update__11SpringValueFv
 0002:80068E60       createTriangleFilterFunc__2MRFPFPC8Triangle_b
 0002:80068EB0       isInvalidTriangle__24TriangleFilterDangerCodeCFPC8Triangle
 0002:80068F80       __ct__14TriggerCheckerFv
 0002:80068F90       update__14TriggerCheckerFb
 0002:80068FA0       setInput__14TriggerCheckerFb
 0002:80068FB0       getLevel__14TriggerCheckerCFv
 0002:80068FC0       getOnTrigger__14TriggerCheckerCFv
 0002:80068FF0       getOffTrigger__14TriggerCheckerCFv
 0002:80069020       __ct__12ValueControlFi
 0002:80069040       setDirToOneResetFrame__12ValueControlFv
 0002:80069050       setDirToZero__12ValueControlFv
 0002:80069060       setDirToZeroResetFrame__12ValueControlFv
 0002:80069070       setMaxFrame__12ValueControlFi
 0002:800690F0       update__12ValueControlFv
 0002:80069140       setZero__12ValueControlFv
 0002:80069180       setOne__12ValueControlFv
 0002:80069210       resetFrame__12ValueControlFv
 0002:80069350       start__13AnmPlayerBaseFPCc
 0002:800693F0       nullsub_114
 0002:80069400       stop__13AnmPlayerBaseFv
 0002:80069440       nullsub_115
 0002:80069510       beginDiff__21MaterialAnmPlayerBaseFv
 0002:80069570       endDiff__21MaterialAnmPlayerBaseFv
 0002:80069590       nullsub_202
 0002:800695A0       __ct__7BckCtrlFP14ResourceHolderPCc
 0002:800697D0       __ct__11BckCtrlDataFv
 0002:80069970       overWrite__7BckCtrlFRC11BckCtrlData
 0002:8006ABC0       modifyDiffFlag<19J3DAnmTextureSRTKey>__FPUlPC19J3DAnmTextureSRTKey11J3DDiffFlagbPCcPCcPCc_v
 0002:8006AC30       offDiffFlagBtk__2MRFPUlPC19J3DAnmTextureSRTKeyPCc
 0002:8006E220       getCurrentBckName__12XanimePlayerCFv
 0002:8006E230       getNameStringPointer__12XanimePlayerCFPCc
 0002:8006E4E0       init__15XanimeGroupInfoFv
 0002:8006E540       init__19XanimeResourceTableFv
 0002:8006E570       getGroupInfo__19XanimeResourceTableCFPCc
 0002:8006E610       getSimpleIndex__19XanimeResourceTableCFPCc
 0002:8006E690       getIndexFromHash__19XanimeResourceTableCFUl
 0002:8006E6E0       getGroupInfoFromHash__19XanimeResourceTableCFUl
 0002:8006E730       getGroupIndex__19XanimeResourceTableCFPCc
 0002:8006E7B0       getSingleIndex__19XanimeResourceTableCFPCc
 0002:8006E840       search__19XanimeResourceTableCFPP14XanimeBckTablePCcUl
 0002:8006E8E0       __ct__19XanimeResourceTableFP14ResourceHolder
 0002:8006E980       swapBckName__19XanimeResourceTableCFPCcP15XanimeSwapTable
 0002:8006F0B0       updateBefore__20SyncBckEffectCheckerFv
 0002:8006F1A0       updateAfter__20SyncBckEffectCheckerFv
 0002:8006F1D0       reset__20SyncBckEffectCheckerFv
 0002:8006F810       __ct__12AreaFormCubeFi
 0002:8006FD20       getBaseSize__12AreaFormCubeFv
 0002:8006FD30       updateBoxParam__12AreaFormCubeFv
 0002:8006FE60       calcWorldMtx__12AreaFormCubeCFPQ29JGeometry64TPosition3<Q29JGeometry38TMatrix34<Q29JGeometry13SMatrix34C<f>>>
 0002:8006FEC0       __ct__14AreaFormSphereFv
 0002:80070110       __ct__12AreaFormBowlFv
 0002:800702F0       __ct__16AreaFormCylinderFv
 0002:80070730       __ct__7AreaObjFPCc
 0002:80070840       init__7AreaObjFRC12JMapInfoIter
 0002:80070A10       getManagerName__7AreaObjCFv
 0002:80070A20       Functor<7AreaObj>__2MRFP7AreaObjM7AreaObjFPCvPv_v_Q22MR39FunctorV0M<P7AreaObj,M7AreaObjFPCvPv_v>
 0002:80070AE0       isInVolume__7AreaObjCFRCQ29JGeometry8TVec3<f>
 0002:80070B60       offSwitchA__7AreaObjFv
 0002:80070B70       isOnSwitchA__7AreaObjCFv
 0002:80070B80       isOnSwitchB__7AreaObjCFv
 0002:80070BA0       isValidSwitchB__7AreaObjCFv
 0002:80070BD0       setFollowMtx__7AreaObjFPCQ29JGeometry64TPosition3<Q29JGeometry38TMatrix34<Q29JGeometry13SMatrix34C<f>>>
 0002:80070BF0       __ct__10AreaObjMgrFlPCc
 0002:80070C50       entry__10AreaObjMgrFP7AreaObj
 0002:80070D50       find_in__10AreaObjMgrCFRCQ29JGeometry8TVec3<f>
 0002:80070F90       __dt__7AreaObjFv
 0002:80070FF0       __dt__10AreaObjMgrFv
 0002:80071060       createManager<10AreaObjMgr>__30@unnamed@AreaObjContainer_cpp@FlPCc_P10AreaObjMgr
 0002:800711F0       createManager<11WarpCubeMgr>__30@unnamed@AreaObjContainer_cpp@FlPCc_P10AreaObjMgr
 0002:800713C0       j_getManager__16AreaObjContainerCFPCc
 0002:800713D0       getManager__16AreaObjContainerCFPCc
 0002:80071480       getAreaObj__16AreaObjContainerCFPCcRCQ29JGeometry8TVec3<f>
 0002:800714F0       getAreaObjContainer__2MRFv
 0002:80071650       __ct__15AreaObjFollowerFP7AreaObjRC12JMapInfoIter
 0002:80071720       addBaseMatrixFollowerAreaObj__2MRFP7AreaObjRC12JMapInfoIter
 0002:80073160       __ct__11AreaPolygonFv
 0002:800731C0       __dt__19DynamicCollisionObjFv
 0002:80073220       init__11AreaPolygonFRC12JMapInfoIter
 0002:800733C0       setSurface__11AreaPolygonFl
 0002:800738B0       receiveOtherMsg__9LiveActorFUlP9HitSensorP9HitSensor
 0002:800738D0       control__9LiveActorFv
 0002:80073CA0       setCurrentCategory__14CubeCameraAreaFl
 0002:80073CB0       getCategoryArg__14CubeCameraAreaCFv
 0002:80073D10       nullsub_15
 0002:80074580       j_init__7AreaObjFRC12JMapInfoIter
 0002:800747E0       tryFindLightID__15LightAreaHolderCFRCQ29JGeometry8TVec3<f>P11ZoneLightID
 0002:80076930       getManagerName__12SunLightAreaCFv
 0002:80076940       __dt__12SunLightAreaFv
 0002:800769F0       init__10SwitchAreaFRC12JMapInfoIter
 0002:80076A40       movement__10SwitchAreaFv
 0002:80076B20       getManagerName__10SwitchAreaCFv
 0002:80076B30       onSwitchA__7AreaObjFv
 0002:80076C80       __dt__10SwitchAreaFv
 0002:80076EC0       init__8WarpCubeFRC12JMapInfoIter
 0002:80077220       __ct__9WaterAreaFPCc
 0002:80077260       init__9WaterAreaFRC12JMapInfoIter
 0002:80077290       __ct__12WaterAreaMgrFlPCc
 0002:800772D0       __dt__9WaterAreaFv
 0002:80077330       __dt__12WaterAreaMgrFv
 0002:80077840       getHeap__14JAUSectionHeapFv
 0002:80077890       __dt__17JAUAudioArcLoaderFv
 0002:800790A0       __dt__18JASCriticalSectionFv
 0002:8007C8B0       getStageBgm__7AudWrapFv
 0002:8007C8C0       getSubBgm__7AudWrapFv
 0002:8007C960       getSystemSeObject__7AudWrapFv
 0002:8007C970       getAtmosphereSeObject__7AudWrapFv
 0002:8007C980       getSoundObjHolder__7AudWrapFv
 0002:8007C9D0       getRemixSequencer__7AudWrapFv
 0002:8007C9E0       getRemixSeqObject__7AudWrapFv
 0002:8007CC90       writePort__14AudSoundObjectFP14JAISoundHandleUlUs
 0002:8007D080       startLevelSound__14AudSoundObjectFPCc
 0002:8007D0E0       startSoundParam__14AudSoundObjectF10JAISoundIDll
 0002:8007D1C0       startLevelSoundParam__14AudSoundObjectFPCcll
 0002:80084400       nullsub_21
 0002:80084C30       initData__20AudRmxSeqNoteOnTimerFv
 0002:80084CB0       update__20AudRmxSeqNoteOnTimerFf
 0002:80084E60       getFreeSeID__20AudRmxSeqNoteOnTimerFv
 0002:80085F70       getSoundID__21AudSoundNameConverterFPiPCc
 0002:80086720       getResName__14AudSpeakerWrapFv
 0002:800873E0       getWaveBank__16JAUWaveBankTableFUl
 0002:80088BB0       setFileName__10JASWaveArcFPCc
 0002:80088C60       load__10JASWaveArcFP7JASHeap
 0002:80089280       getSoundID__20CSSoundNameConverterCFPCc
 0002:8008AD40       __dt__14LiveActorGroupFv
 0002:8008B150       __ct__6Color8F8_GXColor
 0002:8008E790       nullsub_116
 0002:8008F8E0       gekko_ps_copy12__5JMathFPvPCv
 0002:80095A40       __dt__17ShadowVolumeModelFv
 0002:8009A5A0       j_makeActorDead__9LiveActorFv
 0002:800AB090       init__10DinoPackunFRC12JMapInfoIter
 0002:800AB390       initTail__10DinoPackunFv
 0002:800AB600       initDemoPosition__10DinoPackunFRC12JMapInfoIter
 0002:800AB670       initEggShell__10DinoPackunFv
 0002:800AB880       initCamera__10DinoPackunFRC12JMapInfoIter
 0002:800AB9F0       initScaleJointController__10DinoPackunFv
 0002:800ABAF0       makeActorDead__10DinoPackunFv
 0002:800ABB40       startHitReaction__10DinoPackunFv
 0002:800ABB90       isHitReaction__10DinoPackunCFl
 0002:800ABBB0       hitScaleJoint__10DinoPackunFPQ29JGeometry64TPosition3<Q29JGeometry38TMatrix34<Q29JGeometry13SMatrix34C<f>>>RC19JointControllerInfo
 0002:800AD670       __dt__18DinoPackunTailNodeFv
 0002:800B27B0       __ct__22DinoPackunDemoPositionFPCc
 0002:800B27F0       init__22DinoPackunDemoPositionFRC12JMapInfoIter
 0002:800B2870       control__22DinoPackunDemoPositionFv
 0002:800B2880       startOpeningDemo__22DinoPackunDemoPositionFv
 0002:800B2A50       __ct__18DinoPackunEggShellFPCcP9HitSensorPA4_f
 0002:800B3580       j_updateNerve__13NerveExecutorFv
 0002:800B4B00       __ct__14DinoPackunTailFUl
 0002:800B4B80       addTailNode__14DinoPackunTailFP18DinoPackunTailNode
 0002:800B4C40       deactivate__14DinoPackunTailFv
 0002:800B53E0       __ct__18DinoPackunTailNodeFPCcP10DinoPackun
 0002:800B5490       createJointController__18DinoPackunTailNodeFP9LiveActorPCc
 0002:800B5650       turnJointLocalXDir__18DinoPackunTailNodeFPQ29JGeometry64TPosition3<Q29JGeometry38TMatrix34<Q29JGeometry13SMatrix34C<f>>>RC19JointControllerInfo
 0002:800B5840       calcJointScale__18DinoPackunTailNodeFPQ29JGeometry64TPosition3<Q29JGeometry38TMatrix34<Q29JGeometry13SMatrix34C<f>>>RC19JointControllerInfo
 0002:800B5A20       getNodeDirection__18DinoPackunTailNodeCFv
 0002:800B5A30       addNodeVelocity__18DinoPackunTailNodeFRCQ29JGeometry8TVec3<f>
 0002:800B5A60       __ct__18DinoPackunTailPartFPCcP10DinoPackun
 0002:800B5AC0       init__18DinoPackunTailPartFRC12JMapInfoIter
 0002:800B5B80       control__18DinoPackunTailPartFv
 0002:800B5C70       attackSensor__18DinoPackunTailPartFP9HitSensorP9HitSensor
 0002:800B5D60       receiveMsgPlayerAttack__18DinoPackunTailPartFUlP9HitSensorP9HitSensor
 0002:800B5E10       requestLockPosition__18DinoPackunTailPartFv
 0002:800B5E50       requestUnLockPosition__18DinoPackunTailPartFv
 0002:800B5E90       __dt__18DinoPackunTailPartFv
 0002:800B5EF0       __sinit_\DinoPackunTailPart_cpp
 0002:800B5F20       __ct__Q221NrvDinoPackunTailPart25DinoPackunTailPartNrvWaitFv
 0002:800B5F30       __ct__Q221NrvDinoPackunTailPart33DinoPackunTailPartNrvLockPositionFv
 0002:800B5F40       execute__Q221NrvDinoPackunTailPart33DinoPackunTailPartNrvLockPositionCFP5Spine
 0002:800B5F50       execute__Q221NrvDinoPackunTailPart25DinoPackunTailPartNrvWaitCFP5Spine
 0002:800B5FB0       __ct__18DinoPackunTailRootFPCcP10DinoPackun
 0002:800B5FF0       init__18DinoPackunTailRootFRC12JMapInfoIter
 0002:800B6030       createJointControllerOwn__18DinoPackunTailRootFP9LiveActorPCc
 0002:800B6110       calcJointDirection__18DinoPackunTailRootFPQ29JGeometry64TPosition3<Q29JGeometry38TMatrix34<Q29JGeometry13SMatrix34C<f>>>RC19JointControllerInfo
 0002:800D3010       PSVECAdd__14JMathInlineVECFPC3VecPC3VecP3Vec
 0002:800DC4DC       def_800DC49C
 0002:800F2EF0       j_makeActorAppeared__9LiveActorFv
 0002:800F2F00       j_makeActorDead__9LiveActorFv_0
 0002:800F6F90       nullsub_22
 0002:800F7160       j_startBck__2MRFPC9LiveActorPCcPCc
 0002:8010A6A0       j_kill__9LiveActorFv
 0002:8010C1D0       transform__Q29JGeometry9TQuat4<f>CFRQ29JGeometry8TVec3<f>
 0002:8010D730       setParam__23CamTranslatorRaceFollowFPC16CameraParamChunk
 0002:8010D780       getCamera__23CamTranslatorRaceFollowCFv
 0002:8010E220       nullsub_13
 0002:8010E450       __ct__6CameraFPCc
 0002:8010E4C0       setZoneMtx__6CameraFl
 0002:8010E560       createTranslator__6CameraFv
 0002:8010E5B0       createVPanObj__6CameraFv
 0002:8010E600       getCamera__18CamTranslatorDummyCFv
 0002:8010E610       setParam__18CamTranslatorDummyFPC16CameraParamChunk
 0002:8010E650       nullsub_184
 0002:8010E660       nullsub_183
 0002:8010E6C0       isInterpolationOff__6CameraCFv
 0002:8010E6D0       reset__6CameraFv
 0002:8010F2B0       getAnimFrame__10CameraAnimFPUc
 0002:80111410       __ct__13CameraContextFv
 0002:80111460       initParams__13CameraContextFv
 0002:80111730       getViewMtx__13CameraContextCFv
 0002:80111DD0       cover__11CameraCoverFUl
 0002:80113540       __ct__14CameraDirectorFPCc
 0002:80113870       nullsub_178
 0002:80113D50       isCollisionOff__9CameraManCFv
 0002:80113D60       isCorrectingErpPositionOff__9CameraManCFv
 0002:80113D70       isSubjectiveCameraOff__9CameraManCFv
 0002:80114160       isInterpolationOff__9CameraManCFv
 0002:801142B0       startEvent__14CameraDirectorFlPCcRC15CameraTargetArgl
 0002:801143A0       endEvent__14CameraDirectorFlPCcbl
 0002:801144A0       endEventAtLanding__14CameraDirectorFlPCcl
 0002:80114530       getEventParameter__14CameraDirectorFlPCc
 0002:801145A0       requestToResetCameraMan__14CameraDirectorFv
 0002:801145B0       setInterpolation__14CameraDirectorFUl
 0002:80114620       cover__14CameraDirectorFUl
 0002:80114630       closeCreatingCameraChunk__14CameraDirectorFv
 0002:801146B0       initCameraCodeCollection__14CameraDirectorFPCcl
 0002:801146C0       registerCameraCode__14CameraDirectorFUl
 0002:801146D0       termCameraCodeCollection__14CameraDirectorFv
 0002:801146E0       declareEvent__14CameraDirectorFlPCc
 0002:801148B0       isEnableToRoundLeft__9CameraManCFv
 0002:801148F0       isEnableToRoundRight__9CameraManCFv
 0002:80114930       isEnableToReset__9CameraManCFv
 0002:80114980       isEventCameraActive__14CameraDirectorCFlPCc
 0002:80114E30       startSubjectiveCamera__14CameraDirectorFl
 0002:80114ED0       endSubjectiveCamera__14CameraDirectorFl
 0002:801152B0       controlCameraSE__14CameraDirectorFv
 0002:80115610       roundLeft__9CameraManFv
 0002:80115620       roundRight__9CameraManFv
 0002:80115630       removeEndEventAtLanding__14CameraDirectorFlPCc
 0002:80115720       calcViewMtxFromPoseParam__14CameraDirectorFPQ29JGeometry64TPosition3<Q29JGeometry38TMatrix34<Q29JGeometry13SMatrix34C<f>>>PC15CameraPoseParam
 0002:80115930       isPlayableCameraSE__14CameraDirectorFb
 0002:80115A30       resetCameraMan__14CameraDirectorFv
 0002:80115BB0       createStartAnimCamera__14CameraDirectorFv
 0002:80115DB0       getCameraDirector__2MRFv
 0002:80115E50       __ct__9CameraFixFPCc
 0002:80115EE0       reset__9CameraFixFv
 0002:80115EF0       calc__9CameraFixFv
 0002:8011A110       __ct__19CameraHeightArrangeFP6Camera
 0002:8011B340       __dt__19CameraHeightArrangeFv
 0002:8011BB60       createCamera<16CameraRaceFollow>__26@unnamed@CameraHolder_cpp@Fv_P6Camera
 0002:8011BF20       getIndexOf__12CameraHolderCFPCc
 0002:8011BFB0       getIndexOfDefault__12CameraHolderCFv
 0002:8011D7E0       getWatchPos__15CameraLocalUtilFPC9CameraMan
 0002:8011D7F0       getPos__15CameraLocalUtilFPC9CameraMan
 0002:8011D800       getUpVec__15CameraLocalUtilFPC9CameraMan
 0002:8011D8A0       setFovy__15CameraLocalUtilFP9CameraManf
 0002:8011D8B0       setGlobalOffset__15CameraLocalUtilFP9CameraManRCQ29JGeometry8TVec3<f>
 0002:8011D900       getTarget__15CameraLocalUtilFPC9CameraMan
 0002:8011D990       getDummyVecRegName__15CameraLocalUtilFv
 0002:8011D9F0       getCameraDirector__15CameraLocalUtilFv
 0002:8011DA10       getTarget__15CameraLocalUtilFPC6Camera
 0002:8011DA20       getWatchPos__15CameraLocalUtilFPC6Camera
 0002:8011DA30       getPos__15CameraLocalUtilFPC6Camera
 0002:8011DA40       getUpVec__15CameraLocalUtilFPC6Camera
 0002:8011DA50       getWatchUpVec__15CameraLocalUtilFPC6Camera
 0002:8011DA60       getFovy__15CameraLocalUtilFPC6Camera
 0002:8011DAA0       setWatchPos__15CameraLocalUtilFP6CameraRCQ29JGeometry8TVec3<f>
 0002:8011DAB0       setPos__15CameraLocalUtilFP6CameraRCQ29JGeometry8TVec3<f>
 0002:8011DAC0       setUpVec__15CameraLocalUtilFP6CameraRCQ29JGeometry8TVec3<f>
 0002:8011DAD0       setWatchUpVec__15CameraLocalUtilFP6CameraRCQ29JGeometry8TVec3<f>
 0002:8011DB50       setLocalOffset__15CameraLocalUtilFP6CameraRCQ29JGeometry8TVec3<f>
 0002:8011DDB0       makeWatchPoint__15CameraLocalUtilFPQ29JGeometry8TVec3<f>P6CameraP15CameraTargetObjf
 0002:8011DF30       makeWatchPointImm__15CameraLocalUtilFPQ29JGeometry8TVec3<f>P6CameraP15CameraTargetObj
 0002:8011E610       arrangeDistanceByPushAndPull__15CameraLocalUtilFP6Cameraff
 0002:8011E9F0       __ct__9CameraManFPCc
 0002:8011EA60       owned__9CameraManFP14CameraDirector
 0002:8011EA70       released__9CameraManFP14CameraDirector
 0002:8011EA80       activate__9CameraManFP14CameraDirector
 0002:8011EAA0       notifyActivate__9CameraManFv
 0002:8011EAB0       deactivate__9CameraManFP14CameraDirector
 0002:8011EAD0       notifyDeactivate__9CameraManFv
 0002:8011EAE0       movement__9CameraManFv
 0002:8011EB30       calc__9CameraManFv
 0002:8011EB40       init__9CameraManFRC12JMapInfoIter
 0002:8011EB50       __dt__9CameraManFv
 0002:8011EC90       nullsub_185
 0002:8011FFB0       nullsub_174
 0002:801200D0       endStartPosCamera__13CameraManGameFv
 0002:801205F0       setChunk__13CameraManGameFRC18CameraParamChunkID
 0002:801213F0       createStartAnimCamera__13CameraManGameFv
 0002:80121590       checkStateShift__13CameraManGameFv
 0002:80121610       tryShiftToGCapture__13CameraManGameFv
 0002:80121660       tryShiftToSwimOrWaterSurface__13CameraManGameFv
 0002:80121710       tryShiftToFooFighter__13CameraManGameFv
 0002:80121B20       updateGCapture__13CameraManGameFv
 0002:80121BF0       tryStartPosCamera__13CameraManGameFv
 0002:80121CD0       tryZoomCamera__13CameraManGameFv
 0002:80121D50       isZoomCamera__13CameraManGameCFv
 0002:80121DC0       nullsub_175
 0002:80121DD0       __dt__13CameraManGameFv
 0002:80121E30       __ct__14CameraManPauseFPCc
 0002:80124E00       __ct__16CameraParamChunkFP12CameraHolderRC18CameraParamChunkID
 0002:80124EA0       __ct__18CameraGeneralParamFv
 0002:80124F30       init__Q216CameraParamChunk7ExParamFv
 0002:80124FE0       nullsub_25
 0002:801250D0       setCameraType__16CameraParamChunkFPCcPC12CameraHolder
 0002:80125110       setUseFovy__16CameraParamChunkFb
 0002:80125130       setLOfsErpOff__16CameraParamChunkFb
 0002:80125150       setCollisionOff__16CameraParamChunkFb
 0002:80125170       copy__16CameraParamChunkFPC16CameraParamChunk
 0002:80125250       __as__18CameraGeneralParamFRC18CameraGeneralParam
 0002:801252E0       load__16CameraParamChunkFP12DotCamReaderP12CameraHolder
 0002:80125720       initiate__16CameraParamChunkFv
 0002:801258D0       load__20CameraParamChunkGameFP12DotCamReaderP12CameraHolder
 0002:801259A0       initiate__20CameraParamChunkGameFv
 0002:801259F0       copy__20CameraParamChunkGameFPC16CameraParamChunk
 0002:80125A00       __ct__21CameraParamChunkEventFP12CameraHolderRC18CameraParamChunkID
 0002:80125B80       initiate__21CameraParamChunkEventFv
 0002:80125BE0       j_copy__16CameraParamChunkFPC16CameraParamChunk
 0002:80125BF0       getClassName__21CameraParamChunkEventCFv
 0002:80125C00       getClassName__20CameraParamChunkGameCFv
 0002:80125D40       createChunk__22CameraParamChunkHolderFRC18CameraParamChunkIDP7JKRHeap
 0002:80125E50       getChunk__22CameraParamChunkHolderFRC18CameraParamChunkID
 0002:80126210       findChunk__22CameraParamChunkHolderFlPCc
 0002:80126390       arrangeChunk__22CameraParamChunkHolderFP16CameraParamChunk
 0002:80126840       __ct__18CameraParamChunkIDFv
 0002:80126860       __ct__18CameraParamChunkIDFRC18CameraParamChunkID
 0002:801268E0       getBuffer__18CameraParamChunkIDFUl
 0002:801268F0       createCubeID__18CameraParamChunkIDFlUs
 0002:80126960       createGroupID__18CameraParamChunkIDFlPCcUlUl
 0002:80126A00       createOtherID__18CameraParamChunkIDFlPCc
 0002:80126A90       createEventID__18CameraParamChunkIDFlPCc
 0002:80126B20       createStartID__18CameraParamChunkIDFlUs
 0002:80126E00       __ct__17CameraParamStringFv
 0002:80126E10       __as__17CameraParamStringFRC17CameraParamString
 0002:80126E50       setCharPtr__17CameraParamStringFPCc
 0002:80126E60       getCharPtr__17CameraParamStringCFv
 0002:80126E70       copy__17CameraParamStringFPCc
 0002:80126EA0       initCameraCodeCollection__2MRFPCcl
 0002:80126EF0       registerCameraCode__2MRFUl
 0002:80126F30       termCameraCodeCollection__2MRFv
 0002:80126F60       __ct__15CameraPoseParamFv
 0002:80126FD0       __ct__16CameraRaceFollowFPCc
 0002:80127040       reset__16CameraRaceFollowFv
 0002:801270C0       calc__16CameraRaceFollowFv
 0002:80127430       createTranslator__16CameraRaceFollowFv
 0002:80127480       goRound__16CameraRaceFollowFv
 0002:80127580       __dt__16CameraRaceFollowFv
 0002:80128080       __ct__16CameraRailHolderFPCc
 0002:80128350       __ct__Q216CameraRailHolder8ZoneRailFv
 0002:80128360       __as__Q216CameraRailHolder7RailSetFRCQ216CameraRailHolder7RailSet
 0002:80128380       getRider__16CameraRailHolderCFll
 0002:801283F0       find__16CameraRailHolderCFll
 0002:80128460       __dt__16CameraRailHolderFv
 0002:80128B60       __ct__20CameraRegisterHolderFPCc
 0002:80128C40       declareVecReg__20CameraRegisterHolderFPCcPCQ29JGeometry8TVec3<f>
 0002:80128CF0       getDummyVecRegName__20CameraRegisterHolderCFv
 0002:801298D0       endForce__15CameraShakeTaskFv
 0002:80129B20       __ct__12CameraShakerFPCc
 0002:80129BD0       shakeVertical__12CameraShakerFQ212CameraShaker20ESinglyVerticalPower
 0002:80129C20       shakeInfinity__12CameraShakerFP7NameObjff
 0002:80129CC0       stopShakingInfinity__12CameraShakerFP7NameObj
 0002:8012C240       __ct__18CameraTargetHolderFv
 0002:8012C2E0       get__18CameraTargetHolderFv
 0002:8012C2F0       set__18CameraTargetHolderFP15CameraTargetObj
 0002:8012C300       set__18CameraTargetHolderFPC9LiveActor
 0002:8012C320       set__18CameraTargetHolderFPC10MarioActor
 0002:8012C340       isOnGround__18CameraTargetHolderCFv
 0002:8012C3D0       isMoving__18CameraTargetHolderCFv
 0002:8012C420       __dt__18CameraTargetHolderFv
 0002:8012C460       __ct__15CameraTargetMtxFPCc
 0002:8012C820       __ct__15CameraTargetObjFPCc
 0002:8012C870       __ct__17CameraTargetActorFPCc
 0002:8012FE20       setInterpolation__22CameraViewInterpolatorFUl
 0002:80132F90       nextToChunk__17DotCamReaderInBinFv
 0002:801330F0       getValueString__17DotCamReaderInBinFPCcPPCc
 0002:80133170       __ct__17GameCameraCreatorFP22CameraParamChunkHolder
 0002:801331D0       registerCameraCode__17GameCameraCreatorFUl
 0002:801331F0       termCameraCodeCollection__17GameCameraCreatorFv
 0002:80133BB0       nullsub_24
 0002:801344A8       def_80134368
 0002:801347C0       registerFunctor__16DemoActionKeeperFPC9LiveActorRCQ22MR11FunctorBasePCc
 0002:80134890       registerNerve__16DemoActionKeeperFPC9LiveActorPC5NervePCc
 0002:801357F0       __ct__19DemoCastGroupHolderFv
 0002:80135980       getCastGroup__19DemoCastGroupHolderCFi
 0002:80135990       findCastGroup__19DemoCastGroupHolderCFPCc
 0002:80135E80       __ct__12DemoDirectorFPCc
 0002:80136230       getCurrentDemoName__12DemoDirectorCFv
 0002:80136250       endDemo__12DemoDirectorFP7NameObjPCcb
 0002:80136330       isExistTimeKeepDemo__12DemoDirectorCFPCc
 0002:801363B0       registerDemoCast__12DemoDirectorFP9LiveActorRC12JMapInfoIter
 0002:80137D50       registerDemoActionFunction__20DemoExecutorFunctionFPC12DemoExecutorPC9LiveActorRCQ22MR11FunctorBasePCc
 0002:80137D60       registerDemoActionNerve__20DemoExecutorFunctionFPC12DemoExecutorPC9LiveActorPC5NervePCc
 0002:80137D70       isExistDemoPart__20DemoExecutorFunctionFPC12DemoExecutorPCc
 0002:80137ED0       isRegisteredDemoCast__20DemoExecutorFunctionFPC12DemoExecutorPC9LiveActor
 0002:80138110       getDemoDirector__12DemoFunctionFv
 0002:80138320       registerDemoActionFunctorFunction__12DemoFunctionFPC9LiveActorRCQ22MR11FunctorBasePCc
 0002:80138370       registerDemoActionFunctorFunction__12DemoFunctionFPC9LiveActorRCQ22MR11FunctorBasePCcPCc
 0002:801383C0       registerDemoActionNerveFunction__12DemoFunctionFPC9LiveActorPC5NervePCc
 0002:80138560       findDemoExecutor__12DemoFunctionFPCc
 0002:801385B0       findDemoExecutor__12DemoFunctionFPC9LiveActor
 0002:801386E0       isDemoCast__12DemoFunctionFPC12DemoExecutorPC9LiveActor
 0002:801386F0       isExistDemoPart__12DemoFunctionFPC12DemoExecutorPCc
 0002:801387D0       loadDemoArchive__12DemoFunctionFv
 0002:80138E10       isTargetDemoCast__12DemoFunctionFP9LiveActorRC12JMapInfoIterPCcl
 0002:80138E90       isRegisteredDemoActionAppear__12DemoFunctionFPC9LiveActor
 0002:80138F10       isRegisteredDemoActionNerve__12DemoFunctionFPC9LiveActor
 0002:80138F90       isRegisteredDemoCast__12DemoFunctionFPC9LiveActorPCc
 0002:80139A60       __ct__20DemoSimpleCastHolderFlll
 0002:8013A1E0       __ct__13DemoStartInfoFv
 0002:8013A220       __as__13DemoStartInfoFRC13DemoStartInfo
 0002:8013A2C0       __ct__22DemoStartRequestHolderFv
 0002:8013A390       __ct__Q32MR37FixedRingBuffer<PC13DemoStartInfo,16>8iteratorFPPC13DemoStartInfoPPC13DemoStartInfo
 0002:8013A3A0       pushRequest__22DemoStartRequestHolderFP9LiveActorPCc
 0002:8013A3F0       push_back__Q22MR37FixedRingBuffer<PC13DemoStartInfo,16>FRCPC13DemoStartInfo
 0002:8013A450       __pp__Q32MR37FixedRingBuffer<PC13DemoStartInfo,16>8iteratorFv
 0002:8013A480       pushRequest__22DemoStartRequestHolderFP11LayoutActorPCc
 0002:8013A650       registerStartDemoInfo__22DemoStartRequestHolderFRC13DemoStartInfo
 0002:8013A690       find__22DemoStartRequestHolderCFPC9LiveActorPCc
 0002:8013A720       find__22DemoStartRequestHolderCFPC11LayoutActorPCc
 0002:8013A8D0       findEmpty__22DemoStartRequestHolderCFv
 0002:8013A960       startDemoSystem__20DemoStartRequestUtilFP9LiveActorPCclQ213DemoStartInfo8DemoTypeQ213DemoStartInfo15CinemaFrameTypeQ213DemoStartInfo15StarPointerTypeQ213DemoStartInfo16DeleteEffectTypePCc
 0002:8013AB90       requestStartDemo__20DemoStartRequestUtilFP9LiveActorPCcPC5NervePC5NervelQ213DemoStartInfo8DemoTypeQ213DemoStartInfo15CinemaFrameTypeQ213DemoStartInfo15StarPointerTypeQ213DemoStartInfo16DeleteEffectType
 0002:8013ACC0       requestStartDemo__20DemoStartRequestUtilFP11LayoutActorPCcPC5NervePC5NervelQ213DemoStartInfo8DemoTypeQ213DemoStartInfo15CinemaFrameTypeQ213DemoStartInfo15StarPointerTypeQ213DemoStartInfo16DeleteEffectType
 0002:8013B4F0       setDemoStartInfoCommon__34@unnamed@DemoStartRequestUtil_cpp@FP13DemoStartInfoPCcPCclQ213DemoStartInfo8DemoTypeQ213DemoStartInfo15CinemaFrameTypeQ213DemoStartInfo15StarPointerTypeQ213DemoStartInfo16DeleteEffectType
 0002:8013B680       isEmpty__20DemoStartRequestUtilFPC13DemoStartInfo
 0002:80142950       __ct__15ScenarioStarterFPCc
 0002:80142A40       init__15ScenarioStarterFRC12JMapInfoIter
 0002:80143420       initShootPath__15ScenarioStarterFRC12JMapInfoIter
 0002:80143F50       __dt__15ScenarioStarterFv
 0002:80148460       __ct__21AutoEffectGroupHolderFv
 0002:801485A0       createAndAddAutoEffectGroup__Q22MR6EffectFP21AutoEffectGroupHolderPCc
 0002:801486C0       registerAutoEffectInfos__Q22MR6EffectFP21AutoEffectGroupHolderP22MultiSceneEffectKeeperPC15MultiSceneActorPCc
 0002:80148CC0       __dt__15SimpleEffectObjFv
 0002:80148D80       j_init__15SimpleEffectObjFRC12JMapInfoIter
 0002:80148E40       __ct__12EffectSystemFPCcb
 0002:80148F10       entry__12EffectSystemFP22ParticleResourceHolderUlUl
 0002:80148FD0       createEmitter__12EffectSystemFUsUcUc
 0002:80149140       createSingleEmitter__12EffectSystemFP13SingleEmitterP24MultiEmitterCallBackBaseP28MultiEmitterParticleCallBack
 0002:80149200       getEffectSystem__2MRFv
 0002:80149460       checkEffectSceneUpdate__Q22MR6EffectFPC12EffectSystem
 0002:80149470       movementEffectNormal__Q22MR6EffectFPC12EffectSystem
 0002:80149480       drawEffect3D__Q22MR6EffectFPC12EffectSystemRCQ29JGeometry64TPosition3<Q29JGeometry38TMatrix34<Q29JGeometry13SMatrix34C<f>>>
 0002:80149490       drawEffect2D__Q22MR6EffectFPC12EffectSystem
 0002:801494A0       forceDeleteAllEmitters__Q22MR6EffectFPC12EffectSystem
 0002:801495A0       getAutoEffectNum__22ParticleResourceHolderCFPCc
 0002:801499B0       requestMovementOn__Q22MR6EffectFP12EffectKeeper
 0002:80149B70       getEffectAttributeName__Q22MR6EffectFl
 0002:80149BCC       def_80149B98
 0002:80149F10       registerAutoEffectInfoGroup__Q22MR6EffectFP22MultiSceneEffectKeeperPC12EffectSystemPC15MultiSceneActorPCc
 0002:80149F70       deleteParticleEmitter__Q22MR6EffectFP15ParticleEmitter
 0002:80149FB0       setLinkSingleEmitter__Q22MR6EffectFP15ParticleEmitterP13SingleEmitter
 0002:80149FC0       getLinkSingleEmitter__Q22MR6EffectFPC14JPABaseEmitter
 0002:80149FD0       forceDeleteAllOneTimeEmitter__Q22MR6EffectFv
 0002:8014A390       createEmitter__12MultiEmitterFv
 0002:8014A4B0       deleteEmitter__12MultiEmitterFv
 0002:8014A890       isValid__12MultiEmitterCFv
 0002:8014A980       setHostMtx__12MultiEmitterFPA4_f
 0002:8014A9B0       setBaseScale__12MultiEmitterFf
 0002:8014A9C0       setName__12MultiEmitterFPCc
 0002:8014AA00       isEqualName__12MultiEmitterCFUs
 0002:8014AA70       create__12MultiEmitterFP12EffectSystem
 0002:8014B020       __ct<s>__Q29JGeometry8TVec3<s>Fsss_Pv
 0002:8014B1F0       getValidEmitter__12MultiEmitterFlb
 0002:8014B4F0       setGlobalScale__12MultiEmitterFRCQ29JGeometry8TVec3<f>l
 0002:8014B6D0       setGlobalPrmColor__12MultiEmitterFUcUcUcl
 0002:8014B7D0       setGlobalPrmColor__15ParticleEmitterFUcUcUc
 0002:8014B7F0       setGlobalEnvColor__12MultiEmitterFUcUcUcl
 0002:8014B8F0       setGlobalEnvColor__15ParticleEmitterFUcUcUc
 0002:8014B910       setLocalScale__12MultiEmitterFRCQ29JGeometry8TVec3<f>l
 0002:8014B9B0       setDirectionalSpeed__12MultiEmitterFfl
 0002:8014BA50       setRate__12MultiEmitterFfl
 0002:8014C430       resetFollowCurrent__20MultiEmitterCallBackFv
 0002:8014CB40       __as__8_GXColorFRC8_GXColor
 0002:8014CD40       nullsub_72
 0002:8014CD50       nullsub_71
 0002:8014CD60       nullsub_70
 0002:8014CD70       nullsub_73
 0002:8014CD80       nullsub_74
 0002:8014CE00       nullsub_76
 0002:8014CE10       nullsub_75
 0002:8014CE80       __ct__20ParticleCalcExecutorFPC12EffectSystemb
 0002:8014D490       __ct__20ParticleDrawExecutorFPC12EffectSystemb
 0002:8014D8E0       draw2D__20ParticleDrawExecutorCFv
 0002:8014E210       forceDeleteAllOneTimeEmitters__21ParticleEmitterHolderFv
 0002:8014E560       __ct__22ParticleResourceHolderFPCc
 0002:8014E680       swapTexture__22ParticleResourceHolderFPC7ResTIMGPCc
 0002:8014E810       getAutoEffectListBinary__22ParticleResourceHolderCFv
 0002:8014E820       __ct__15RandomEffectObjFPCc
 0002:8014E880       init__15RandomEffectObjFRC12JMapInfoIter
 0002:8014E9B0       getRandomTime__15RandomEffectObjCFv
 0002:8014EA40       getFarClipDistance__15RandomEffectObjCFv
 0002:8014EA50       getClippingRadius__15RandomEffectObjCFv
 0002:8014EA60       __dt__15RandomEffectObjFv
 0002:8014EAC0       findDataElement__29@unnamed@SimpleEffectObj_cpp@FPCc
 0002:8014EB40       __ct__15SimpleEffectObjFPCc
 0002:8014EB90       init__15SimpleEffectObjFRC12JMapInfoIter
 0002:8014EE90       Functor<15SimpleEffectObj>__2MRFP15SimpleEffectObjM15SimpleEffectObjFPCvPv_v_Q22MR57FunctorV0M<P15SimpleEffectObj,M15SimpleEffectObjFPCvPv_v>
 0002:8014F3E0       isOneTime__13SingleEmitterCFv
 0002:8014F430       isValid__13SingleEmitterCFv
 0002:8014F460       link__13SingleEmitterFP15ParticleEmitter
 0002:8014F480       unlink__13SingleEmitterFv
 0002:8014FD90       __ct__26WalkerStateBindStarPointerFP9LiveActorP19AnimScaleController
 0002:8014FF60       tryStartPointBind__26WalkerStateBindStarPointerCFv
 0002:801501D0       __ct__19AnimScaleControllerFP14AnimScaleParam
 0002:80150260       setParamTight__19AnimScaleControllerFv
 0002:80150280       startAnim__19AnimScaleControllerFv
 0002:80150290       startDpdHitVibration__19AnimScaleControllerFv
 0002:801502A0       startHitReaction__19AnimScaleControllerFv
 0002:801502B0       startScaleVelocityY__19AnimScaleControllerFf
 0002:801502C0       startAndAddScaleVelocityY__19AnimScaleControllerFf
 0002:801502E0       startCrush__19AnimScaleControllerFv
 0002:801502F0       stopAndReset__19AnimScaleControllerFv
 0002:80150390       resetScale__19AnimScaleControllerFv
 0002:80150590       isHitReaction__19AnimScaleControllerCFl
 0002:80150670       j_updateNerve__13NerveExecutorFv_0
 0002:801508C0       __ct__19AnimStampControllerFv
 0002:80150940       init__19AnimStampControllerFlffffff
 0002:80150EE0       j_makeActorAppeared__9LiveActorFv_0
 0002:80156C00       __ct__8BasaBasaFPCc
 0002:80156CB0       init__8BasaBasaFRC12JMapInfoIter
 0002:80157EE0       initAfterPlacement__8BasaBasaFv
 0002:80157F90       kill__8BasaBasaFv
 0002:80158000       control__8BasaBasaFv
 0002:80158080       calcAndSetBaseMtx__8BasaBasaFv
 0002:80158130       attackSensor__8BasaBasaFP9HitSensorP9HitSensor
 0002:80158310       receiveMsgPlayerAttack__8BasaBasaFUlP9HitSensorP9HitSensor
 0002:80158510       receiveMsgPush__8BasaBasaFP9HitSensorP9HitSensor
 0002:801585E0       receiveMsgEnemyAttack__8BasaBasaFUlP9HitSensorP9HitSensor
 0002:801586D0       receiveOtherMsg__8BasaBasaFUlP9HitSensorP9HitSensor
 0002:80158790       initHangModel__8BasaBasaFv
 0002:80158820       tryClippingAndResetPos__8BasaBasaFv
 0002:80158930       trySetNerveDPDSwoon__8BasaBasaFv
 0002:80158980       tryComeHome__8BasaBasaFv
 0002:801589F0       updateRailType__8BasaBasaFv
 0002:80158A60       controlVelocity__8BasaBasaFv
 0002:80158C60       tuneHeight__8BasaBasaFv
 0002:80158D50       isNearTarget__8BasaBasaCFf
 0002:80158DC0       isNrvEnableStun__8BasaBasaCFv
 0002:80158E60       __dt__8BasaBasaFv
 0002:80158EC0       __sinit_\BasaBasa_cpp
 0002:8015D2E0       init__11BegomanBabyFRC12JMapInfoIter
 0002:8015D4F0       appear__11BegomanBabyFv
 0002:8015D530       appearFromLaunch__11BegomanBabyFRCQ29JGeometry8TVec3<f>RCQ29JGeometry8TVec3<f>
 0002:8015D5F0       kill__11BegomanBabyFv
 0002:8015D650       killWithGenItem__11BegomanBabyFv
 0002:8015D710       control__11BegomanBabyFv
 0002:8015F3A0       initCore__11BegomanBaseFRC12JMapInfoIterPCcb
 0002:8015F680       initShadow__11BegomanBaseFfPCc
 0002:8015F7D0       initSensor__11BegomanBaseFlffPCc
 0002:8015F980       j_makeActorDead__9LiveActorFv_1
 0002:8015F990       appear__11BegomanBaseFv
 0002:8015F9E0       kill__11BegomanBaseFv
 0002:8015FB50       j_startClipped__9LiveActorFv
 0002:80160D90       incAndCheckTiredCounter__11BegomanBaseFv
 0002:801616C0       checkTouchElectricRail__11BegomanBaseFb
 0002:801618E0       pushedFromElectricRail__11BegomanBaseFP9HitSensorRCQ29JGeometry8TVec3<f>RCQ29JGeometry8TVec3<f>ffb
 0002:80161C10       isInWaterAndSetWaterNerve__11BegomanBaseFPC5NervePQ29JGeometry64TPosition3<Q29JGeometry38TMatrix34<Q29JGeometry13SMatrix34C<f>>>
 0002:801621C0       __ct__22BegomanAttackPermitterFPCc
 0002:8016BB10       __ct__7BombHeiFPCc
 0002:8016BBE0       init__7BombHeiFRC12JMapInfoIter
 0002:8016C040       initAfterPlacement__7BombHeiFv
 0002:8016C050       appear__7BombHeiFv
 0002:8016C0D0       kill__7BombHeiFv
 0002:8016C150       startCountdown__7BombHeiFv
 0002:8016C1A0       endCountdown__7BombHeiFv
 0002:8016C200       exeLaunch__7BombHeiFv
 0002:8016D350       calcAndSetBaseMtx__7BombHeiFv
 0002:8016D3B0       calcJoint__7BombHeiFPQ29JGeometry64TPosition3<Q29JGeometry38TMatrix34<Q29JGeometry13SMatrix34C<f>>>RC19JointControllerInfo
 0002:8016D5B0       control__7BombHeiFv
 0002:8016D7F0       attackSensor__7BombHeiFP9HitSensorP9HitSensor
 0002:8016E250       __dt__7BombHeiFv
 0002:8017B3C0       __ct__6DossunFPCc
 0002:8017B450       init__6DossunFRC12JMapInfoIter
 0002:8017B5C0       appear__6DossunFv
 0002:8017B6A0       initMapToolInfo__6DossunFRC12JMapInfoIter
 0002:8017B850       calcParameters__6DossunFv
 0002:80182190       nullsub_77
 0002:8019EEE0       j_kill__9LiveActorFv_0
 0002:801A42A0       __ct__10KameckBeamFPCc
 0002:801A42F0       init__12KabokuriFireFRC12JMapInfoIter
 0002:801A43D0       start__12KabokuriFireFRCQ29JGeometry8TVec3<f>b
 0002:801A4480       nullsub_195
 0002:801A45E0       __dt__12KabokuriFireFv
 0002:801A4670       __ct__16KameckBeamHolderFv
 0002:801A4780       getDeadMember__22KabokuriFireHolderFuncFv
 0002:801A47D0       generateFire__22KabokuriFireHolderFuncFRCQ29JGeometry8TVec3<f>RCQ29JGeometry8TVec3<f>b
 0002:801A8600       j_makeActorDead__9LiveActorFv_2
 0002:801A9A80       j_makeActorDead__9LiveActorFv_3
 0002:801B0960       __ct__16KarikariDirectorFPCc
 0002:801B2300       exeSinkDown__5KaronFv
 0002:801B2400       exeBindStarPointer__5KaronFv
 0002:801B2440       control__5KaronFv
 0002:801B32C4       execute__Q28NrvKaron26HostTypeNrvBindStarPointerCFP5Spine
 0002:801B32E0       execute__Q28NrvKaron19HostTypeNrvSinkDownCFP5Spine
 0002:801B8990       __ct__6KuriboFPCc
 0002:801B8A40       init__6KuriboFRC12JMapInfoIter
 0002:801B8E70       j_makeActorDead__9LiveActorFv_4
 0002:801BB250       nullsub_161
 0002:801BB260       nullsub_162
 0002:801BCF30       j_makeActorAppeared__9LiveActorFv_1
 0002:801BF980       j_kill__9LiveActorFv_1
 0002:801C1C80       j_makeActorAppeared__9LiveActorFv_2
 0002:801C6330       initElementType__8MerameraFRC12JMapInfoIter
 0002:801C6520       init__8MerameraFRC12JMapInfoIter
 0002:801C6750       initAppearState__8MerameraFRC12JMapInfoIter
 0002:801C67D0       j_makeActorAppeared__9LiveActorFv_3
 0002:801C9880       resetAppear__8MerameraFv
 0002:801CAD30       control__5MetboFv
 0002:801CE460       j_invalidateClipping__2MRFP9LiveActor
 0002:801CE470       j_validateClipping__2MRFP9LiveActor
 0002:801DA890       init__7OnimasuFRC12JMapInfoIter
 0002:801DAAA0       control__7OnimasuFv
 0002:801DAAF0       initAfterPlacement__7OnimasuFv
 0002:801DB100       calcAndSetBaseMtx__7OnimasuFv
 0002:801DBAE0       __dt__7OnimasuFv
 0002:801FCEA0       start__17SpinHitControllerFP9LiveActorRCQ29JGeometry8TVec3<f>RCQ29JGeometry8TVec3<f>
 0002:801FCF70       startWithoutStopScene__17SpinHitControllerFP9LiveActorRCQ29JGeometry8TVec3<f>RCQ29JGeometry8TVec3<f>
 0002:801FD140       init__12StinkBugBaseFRC12JMapInfoIter
 0002:801FD6D0       __dt__12StinkBugBaseFv
 0002:801FD7B0       init__14StinkBugParentFRC12JMapInfoIter
 0002:801FEFE0       __dt__14StinkBugParentFv
 0002:801FF040       __sinit_\StinkBugParent_cpp
 0002:80200A60       __dt__13StinkBugSmallFv
 0002:80200AC0       __sinit_\StinkBugSmall_cpp
 0002:80208770       __ct__20KameckFireBallHolderFv
 0002:80220CA0       __ct__15AudBgmConductorFv
 0002:80221440       __ct__16AudCameraWatcherFv
 0002:802217E0       __ct__17AudEffectDirectorFv
 0002:80223BE8       def_8022395C
 0002:80223F7C       def_80223D88
 0002:80224CB0       __ct__16GlobalGravityObjFPCc
 0002:80224D00       init__16GlobalGravityObjFRC12JMapInfoIter
 0002:80224F30       getGravity__16GlobalGravityObjFv
 0002:80225790       __ct__15GraviryFollowerFP16GlobalGravityObjRC12JMapInfoIter
 0002:802257F0       setGravityFollowHost__15GraviryFollowerFPC7NameObj
 0002:80225800       update__15GraviryFollowerFv
 0002:802258B0       addBaseMatrixFollowerGravity__2MRFP16GlobalGravityObjRC12JMapInfoIter
 0002:80225920       __ct__14GravityCreatorFv
 0002:80225930       createFromJMap__14GravityCreatorFRC12JMapInfoIter
 0002:80225A90       settingFromSRT__14GravityCreatorFRCQ29JGeometry8TVec3<f>RCQ29JGeometry8TVec3<f>RCQ29JGeometry8TVec3<f>
 0002:80225AA0       settingFromJMapArgs__14GravityCreatorFlll
 0002:80225AB0       settingFromJMapOtherParam__14GravityCreatorFRC12JMapInfoIter
 0002:80226E10       isInSphereRange__15ParallelGravityCFRCQ29JGeometry8TVec3<f>Pf
 0002:80226EA0       isInBoxRange__15ParallelGravityCFRCQ29JGeometry8TVec3<f>Pf
 0002:80227070       isInCylinderRange__15ParallelGravityCFRCQ29JGeometry8TVec3<f>Pf
 0002:80227140       isInRange__15ParallelGravityCFRCQ29JGeometry8TVec3<f>Pf
 0002:80227180       __ct__13PlanetGravityFv
 0002:802271E0       setPriority__13PlanetGravityFl
 0002:80227480       updateIdentityMtx__13PlanetGravityFv
 0002:802274D0       __ct__20PlanetGravityManagerFPCc
 0002:80228A30       getCsvDataAnimData__29@unnamed@ActorAnimKeeper_cpp@FP17ActorAnimDataInfoPCcP8JMapInfol
 0002:8022AA90       update__15ActorAnimKeeperFv
 0002:8022AB70       __ct__15ActorCameraInfoFRC12JMapInfoIter
 0002:8022ABF0       __ct__15ActorCameraInfoFll
 0002:8022BF50       __ct__14ActorLightCtrlFPC9LiveActor
 0002:8022BFC0       init__14ActorLightCtrlFib
 0002:8022C040       __as__14ActorLightInfoFRC14ActorLightInfo
 0002:8022C0B0       update__14ActorLightCtrlFb
 0002:8022C110       loadLight__14ActorLightCtrlCFv
 0002:8022C160       reset__14ActorLightCtrlFv
 0002:8022C2D0       tryFindNewAreaLight__14ActorLightCtrlFb
 0002:8022C4A0       resetCurrentLightInfo__14ActorLightCtrlFv
 0002:8022C510       getTargetActorLight__14ActorLightCtrlCFPC13AreaLightInfo
 0002:8022CD80       changeBck__12EffectKeeperFv
 0002:8022D030       startState__16ActorStateKeeperFPC5Nerve
 0002:8022D0A0       endState__16ActorStateKeeperFPC5Nerve
 0002:8022D950       getAllLiveActorGroup__2MRFv
 0002:8022D980       startInitLiveActorSystemInfo__2MRFv
 0002:8022DD40       __ct__6BinderFPA4_fPCQ29JGeometry8TVec3_f_PCQ29JGeometry8TVec3_f_ffUl
 0002:8022DE40       setTriangleFilter__6BinderFP18TriangleFilterBase
 0002:8022DE50       setCollisionPartsFilter__6BinderFP24CollisionPartsFilterBase
 0002:8022DE60       clear__6BinderFv
 0002:8022DE80       getPlane__6BinderCFi
 0002:8022DE90       copyPlaneArrayAndSortingSensor__6BinderFPP7HitInfoUl
 0002:8022F9D0       __ct__19ClippingActorHolderFv
 0002:8022FB30       registerActor__19ClippingActorHolderFP9LiveActor
 0002:8022FBA0       binitSystemInfo__19ClippingActorHolderFP9LiveActorRC12JMapInfoIter
 0002:8022FD30       invalidateClipping__19ClippingActorHolderFP9LiveActor
 0002:8022FDF0       addToClippingTarget__19ClippingActorHolderFP9LiveActor
 0002:80230080       setFarClipLevel__19ClippingActorHolderFP9LiveActorl
 0002:802303B0       __ct__21ClippingActorInfoListFi
 0002:802305B0       __ct__16ClippingDirectorFv
 0002:80230700       registerActor__16ClippingDirectorFP9LiveActor
 0002:80230710       initActorSystemInfo__16ClippingDirectorFP9LiveActorRC12JMapInfoIter
 0002:80230720       joinToGroupClipping__16ClippingDirectorFP9LiveActorRC12JMapInfoIteri
 0002:802307B0       getClippingDirector__2MRFv
 0002:802307E0       addToClippingTarget__2MRFP9LiveActor
 0002:80230820       removeFromClippingTarget__2MRFP9LiveActor
 0002:80230C10       __ct__19ClippingGroupHolderFv
 0002:80230F90       __ct__13ClippingJudgeFPCc
 0002:80231060       __ct__Q29JGeometry15THexahedron3<f>Fv
 0002:80231070       init__13ClippingJudgeFRC12JMapInfoIter
 0002:80231080       movement__13ClippingJudgeFv
 0002:802311C0       isJudgedToClipFrustum__13ClippingJudgeCFRCQ29JGeometry8TVec3<f>fl
 0002:80231550       getClippingJudge__2MRFv
 0002:80231580       __dt__13ClippingJudgeFv
 0002:80231690       update__16DisplayListMakerFv
 0002:80231720       diff__16DisplayListMakerFv
 0002:802317F0       newDifferedDisplayList__16DisplayListMakerFv
 0002:80231880       isValidDiff__16DisplayListMakerFv
 0002:802318B0       onCurFlag__16DisplayListMakerFUsUl
 0002:80231AB0       addMirrorReflectionMtxSetter__16DisplayListMakerFv
 0002:80231BE0       onCurFlagBtp__16DisplayListMakerFPC10J3DAnmBase
 0002:80231C60       onCurFlagBrk__16DisplayListMakerFPC10J3DAnmBase
 0002:802332C0       __ct__12EffectKeeperFPCcP14ResourceHolderiPCc
 0002:80233370       init__12EffectKeeperFP9LiveActor
 0002:80233530       setBinder__12EffectKeeperFPC6Binder
 0002:80233550       addEffect__12EffectKeeperFPCcP9LiveActor
 0002:802338A0       createEmitter__12EffectKeeperFPCc
 0002:802338E0       deleteEmitter__12EffectKeeperFPCc
 0002:80233910       forceDeleteEmitter__12EffectKeeperFPCc
 0002:80233940       deleteEmitterAll__12EffectKeeperFv
 0002:80233A30       getEmitter__12EffectKeeperCFPCc
 0002:80233BA0       getEmitter__12EffectKeeperCFl
 0002:80233BB0       getEmitter__2MRCFP9LiveActorPCc
 0002:80233BC0       changeEffectName__12EffectKeeperFPCcPCc
 0002:80233C30       update__12EffectKeeperFv
 0002:80233C70       updateSyncBckEffect__12EffectKeeperFv
 0002:80233CF0       syncEffectBck__12EffectKeeperFP12MultiEmitter
 0002:80233DF0       updateAttributeEffect__12EffectKeeperFv
 0002:80233EE0       stopEmitterOnClipped__12EffectKeeperFv
 0002:80233F50       playEmitterOffClipped__12EffectKeeperFv
 0002:80233FC0       clear__12EffectKeeperFv
 0002:802342B0       enableSort__12EffectKeeperFv
 0002:80234310       isRegisteredEmitter__12EffectKeeperCFPCc
 0002:802345B0       isTypeAttributeEffect__12EffectKeeperCFPCc
 0002:802354C0       __ct__12FlashingCtrlFP9LiveActorb
 0002:802358F0       receiveMessage__9HitSensorFUlP9HitSensor
 0002:802359A0       isType__9HitSensorCFUl
 0002:802359C0       validate__9HitSensorFv
 0002:80235A00       invalidate__9HitSensorFv
 0002:80235A70       validateBySystem__9HitSensorFv
 0002:80235ED0       __ct__15HitSensorKeeperFi
 0002:80235F50       add__15HitSensorKeeperFPCcUlUsfP9LiveActorRCQ29JGeometry8TVec3<f>
 0002:80236210       doObjCol__15HitSensorKeeperFv
 0002:80236270       clear__15HitSensorKeeperFv
 0002:80236370       validateBySystem__15HitSensorKeeperFv
 0002:802363D0       invalidateBySystem__15HitSensorKeeperFv
 0002:80236440       getSensor__15HitSensorKeeperCFPCc
 0002:80237320       __ct__9LiveActorFPCc
 0002:80237410       init__9LiveActorFRC12JMapInfoIter
 0002:80237420       appear__9LiveActorFv
 0002:80237430       makeActorAppeared__9LiveActorFv
 0002:80237500       kill__9LiveActorFv
 0002:80237570       makeActorDead__9LiveActorFv
 0002:80237610       movement__9LiveActorFv
 0002:80237730       calcAnim__9LiveActorFv
 0002:80237780       calcAnmMtx__9LiveActorFv
 0002:802377E0       setBaseScale__8J3DModelFRC3Vec
 0002:80237800       calcViewAndEntry__9LiveActorFv
 0002:80237830       receiveMessage__9LiveActorFUlP9HitSensorP9HitSensor
 0002:802378C0       calcAndSetBaseMtx__9LiveActorFv
 0002:80237970       getTakingMtx__9LiveActorCFv
 0002:80237980       setNerve__9LiveActorFPC5Nerve
 0002:80237990       isNerve__9LiveActorCFPC5Nerve
 0002:802379D0       getNerveStep__9LiveActorCFv
 0002:802379E0       getSensor__9LiveActorCFPCc
 0002:80237A00       getBaseMtx__9LiveActorCFv
 0002:80237A50       startClipped__9LiveActorFv
 0002:80237AD0       endClipped__9LiveActorFv
 0002:80237B50       initModelManagerWithAnm__9LiveActorFPCcPCcb
 0002:80237C00       initNerve__9LiveActorFPC5Nerve
 0002:80237C60       initHitSensor__9LiveActorFi
 0002:80237CB0       initBinder__9LiveActorFffUl
 0002:80237D70       initRailRider__9LiveActorFRC12JMapInfoIter
 0002:80237DC0       initEffectKeeper__9LiveActorFiPCcb
 0002:80237E70       initSound__9LiveActorFibi
 0002:80237F00       initShadowControllerList__9LiveActorFUl
 0002:80237F60       initActorCollisionParts__9LiveActorFPCcP9HitSensorP14ResourceHolderPA4_fbb
 0002:80238080       initStageSwitch__9LiveActorFRC12JMapInfoIter
 0002:80238140       initActorLightCtrl__9LiveActorFv
 0002:80238190       attackSensor__9LiveActorFP9HitSensorP9HitSensor
 0002:802381A0       updateBinder__9LiveActorFv
 0002:80238220       __ct__13LiveActorFlagFv
 0002:80238250       __ct__14LiveActorGroupFPCci
 0002:80238290       registerActor__14LiveActorGroupFP9LiveActor
 0002:802382A0       getActor__14LiveActorGroupCFi
 0002:802382B0       getDeadActor__14LiveActorGroupCFv
 0002:80238330       getLivingActorNum__14LiveActorGroupCFv
 0002:802384F0       __ct__14MsgSharedGroupFPCclRC12JMapInfoIter
 0002:802386B0       nullsub_159
 0002:80238B60       appear__7LodCtrlFv
 0002:80238C10       kill__7LodCtrlFv
 0002:80238D40       update__7LodCtrlFv
 0002:802397F0       __ct__7FogCtrlFP12J3DModelDatab
 0002:80239E80       nullsub_109
 0002:80239F30       updateMtxUseBaseMtx__22ProjmapEffectMtxSetterFv
 0002:8023A580       __ct__19MessageSensorHolderFPCc
 0002:8023A5C0       init__19MessageSensorHolderFRC12JMapInfoIter
 0002:8023A680       __ct__11MirrorActorFP9LiveActorPCcPCc
 0002:8023A6F0       init__11MirrorActorFRC12JMapInfoIter
 0002:8023A7E0       movement__11MirrorActorFv
 0002:8023A8C0       calcAnim__11MirrorActorFv
 0002:8023A900       calcViewAndEntry__11MirrorActorFv
 0002:8023A910       isHostInTheOtherSideOfMirror__11MirrorActorCFv
 0002:8023A970       getHostCenterPos__11MirrorActorCFv
 0002:8023AA30       __ct__12MirrorCameraFPCc
 0002:8023AAA0       init__12MirrorCameraFRC12JMapInfoIter
 0002:8023AAC0       movement__12MirrorCameraFv
 0002:8023AB10       getVertexFormat__26@unnamed@MirrorCamera_cpp@FPC12J3DModelData7_GXAttr
 0002:8023AB40       setMirrorMapInfo__12MirrorCameraFRCQ29JGeometry8TVec3<f>RCQ29JGeometry8TVec3<f>
 0002:8023ABA0       setMirrorMapInfo__12MirrorCameraFP12J3DModelData
 0002:8023ACB0       updateViewMtx__12MirrorCameraFv
 0002:8023AE60       updateModelTexMtx__12MirrorCameraFv
 0002:8023AF10       getDistance__12MirrorCameraCFRCQ29JGeometry8TVec3<f>
 0002:8023AF80       getMirrorCamera__2MRFv
 0002:8023AFB0       getDistanceToMirror__2MRFRCQ29JGeometry8TVec3<f>
 0002:8023AFF0       __dt__12MirrorCameraFv
 0002:8023B050       __ct__21MirrorReflectionModelFPC9LiveActorPCcPCcPA4_f
 0002:8023B520       update__12ModelManagerFv
 0002:8023B5C0       calcAnim__12ModelManagerFv
 0002:8023B660       calcView__12ModelManagerFv
 0002:8023B6C0       newDifferedDLBuffer__12ModelManagerFv
 0002:8023B6D0       updateDL__12ModelManagerFb
 0002:8023B800       startBck__12ModelManagerFPCcPCc
 0002:8023B860       startBckWithInterpole__12ModelManagerFPCcl
 0002:8023B8C0       startBtk__12ModelManagerFPCc
 0002:8023B920       startBrk__12ModelManagerFPCc
 0002:8023B980       startBtp__12ModelManagerFPCc
 0002:8023BA40       startBva__12ModelManagerFPCc
 0002:8023BA90       stopBtk__12ModelManagerFv
 0002:8023BAE0       stopBrk__12ModelManagerFv
 0002:8023BB30       stopBtp__12ModelManagerFv
 0002:8023BE50       getBckCtrl__12ModelManagerCFv
 0002:8023BE60       getBtkCtrl__12ModelManagerCFv
 0002:8023BE70       getBrkCtrl__12ModelManagerCFv
 0002:8023BE80       getBtpCtrl__12ModelManagerCFv
 0002:8023BE90       getBpkCtrl__12ModelManagerCFv
 0002:8023BEA0       getBvaCtrl__12ModelManagerCFv
 0002:8023C0A0       getJ3DModel__12ModelManagerCFv
 0002:8023C0C0       getJ3DModelData__12ModelManagerCFv
 0002:8023C540       __ct__8ModelObjFPCcPCcPA4_fiiib
 0002:8023C8F0       executeOnEnd__5NerveCFP5Spine
 0002:8023C900       __ct__10PartsModelFP9LiveActorPCcPCcPA4_fib
 0002:8023CCE0       initFixedPosition__10PartsModelFRCQ29JGeometry8TVec3<f>RCQ29JGeometry8TVec3<f>PCc
 0002:8023CE00       initFixedPosition__10PartsModelFPA4_fRCQ29JGeometry8TVec3<f>RCQ29JGeometry8TVec3<f>
 0002:8023CEF0       calcAndSetBaseMtx__10PartsModelFv
 0002:8023D280       __ct__9RailRiderFRC12JMapInfoIter
 0002:8023D330       __ct__9RailRiderFll
 0002:8023D3E0       move__9RailRiderFv
 0002:8023D460       moveToNearestPos__9RailRiderFRCQ29JGeometry8TVec3<f>
 0002:8023D4A0       moveToNearestPoint__9RailRiderFRCQ29JGeometry8TVec3<f>
 0002:8023D570       moveToNextPoint__9RailRiderFv
 0002:8023D5C0       reverse__9RailRiderFv
 0002:8023D5F0       calcPosAtCoord__9RailRiderCFPQ29JGeometry8TVec3<f>f
 0002:8023D600       calcDirectionAtCoord__9RailRiderCFPQ29JGeometry8TVec3<f>f
 0002:8023D610       calcNearestPos__9RailRiderCFRCQ29JGeometry8TVec3<f>
 0002:8023D620       getTotalLength__9RailRiderCFv
 0002:8023D630       getPartLength__9RailRiderCFi
 0002:8023D640       isLoop__9RailRiderCFv
 0002:8023D650       isReachedGoal__9RailRiderCFv
 0002:8023D710       isReachedEdge__9RailRiderCFv
 0002:8023D7A0       setCoord__9RailRiderFf
 0002:8023D7F0       setSpeed__9RailRiderFf
 0002:8023D800       getRailArgWithInit__9RailRiderCFPCcPl
 0002:8023D860       getRailArgNoInit__9RailRiderCFPCcPl
 0002:8023D8D0       getNextPointCoord__9RailRiderCFv
 0002:8023D910       getCurrentPointCoord__9RailRiderCFv
 0002:8023D920       getPointNum__9RailRiderCFv
 0002:8023D930       copyPointPos__9RailRiderCFPQ29JGeometry8TVec3<f>l
 0002:8023D980       getPointCoord__9RailRiderCFl
 0002:8023D990       initBezierRail__9RailRiderFRC12JMapInfoIterPC8JMapInfo
 0002:8023DA30       syncPosDir__9RailRiderFv
 0002:8023DB60       getPointArgS32NoInit__9RailRiderCFPCcPll
 0002:8023DC60       getCurrentPointArgS32NoInit__9RailRiderCFPCcPl
 0002:8023DE60       getNextPointNo__9RailRiderCFv
 0002:8023DEE0       __ct__11SensorGroupFiPCc
 0002:8023DF60       add__11SensorGroupFP9HitSensor
 0002:8023DF90       remove__11SensorGroupFP9HitSensor
 0002:8023E020       __ct__16SensorHitCheckerFPCc
 0002:8023EB80       getController__20ShadowControllerListCFPCc
 0002:8023F0E0       getShadowDrawer__16ShadowControllerFv
 0002:8023F100       setShadowDrawer__16ShadowControllerFP12ShadowDrawer
 0002:8023F2C0       getProjectionLength__16ShadowControllerCFv
 0002:8023F380       isProjected__16ShadowControllerCFv
 0002:8023F5B0       setDropLength__16ShadowControllerFf
 0002:8023F650       onCalcCollision__16ShadowControllerFv
 0002:8023F660       offCalcCollision__16ShadowControllerFv
 0002:8023F670       onCalcCollisionOneTime__16ShadowControllerFv
 0002:8023F870       onVisibleSyncHost__16ShadowControllerFv
 0002:8023F880       offVisibleSyncHost__16ShadowControllerFv
 0002:8023F8A0       invalidate__16ShadowControllerFv
 0002:8023F950       requestCalcActorShadow__2MRFP9LiveActor
 0002:8023FAD0       setShadowController__12ShadowDrawerFP16ShadowController
 0002:80240060       __ct__19ShadowSurfaceCircleFv
 0002:802400B0       setRadius__19ShadowSurfaceCircleFf
 0002:80241420       __ct__18ShadowVolumeDrawerFPCc
 0002:802414A0       setEndDrawShepeOffset__18ShadowVolumeDrawerFf
 0002:802414B0       onCutDropShadow__18ShadowVolumeDrawerFv
 0002:802414C0       offCutDropShadow__18ShadowVolumeDrawerFv
 0002:80241720       draw__18ShadowVolumeDrawerCFv
 0002:802420C0       __ct__17ShadowVolumeModelFPCc
 0002:80242110       initVolumeModel__17ShadowVolumeModelFPCc
 0002:80242150       drawShape__17ShadowVolumeModelCFv
 0002:80242CD0       __ct__18ShadowVolumeSphereFv
 0002:80242D40       isDraw__18ShadowVolumeSphereCFv
 0002:80242DA0       loadModelDrawMtx__18ShadowVolumeSphereCFv
 0002:80242E80       __dt__18ShadowVolumeSphereFv
 0002:80243150       __ct__5SpineFPvPC5NervePC5Nerve
 0002:802431D0       update__5SpineFv
 0002:80243230       setNerve__5SpineFPC5Nerve
 0002:802432A0       getCurrentNerve__5SpineCFv
 0002:802432C0       changeNerve__5SpineFv
 0002:80243330       __ct__13SpotMarkLightFP9LiveActorffPA4_f
 0002:80243510       calcAndSetBaseMtx__13SpotMarkLightFv
 0002:802437D0       nullsub_29
 0002:802452C0       addAwakeControl__16AwakeControlFuncFP7AreaObjRC12JMapInfoIter
 0002:802453E0       addAwakeControl__16AwakeControlFuncFP9LiveActorRC12JMapInfoIter
 0002:80245E80       __ct__10BezierRailFRC12JMapInfoIterPC8JMapInfo
 0002:802460A0       normalizePos__10BezierRailCFfi
 0002:80246160       getTotalLength__10BezierRailCFv
 0002:80246180       getPartLength__10BezierRailCFi
 0002:80246190       calcPos__10BezierRailCFPQ29JGeometry8TVec3<f>f
 0002:802461E0       calcDirection__10BezierRailCFPQ29JGeometry8TVec3<f>f
 0002:802462B0       getNearestRailPosCoord__10BezierRailCFRCQ29JGeometry8TVec3<f>
 0002:80246430       getRailPosCoord__10BezierRailCFi
 0002:80246480       calcCurrentRailCtrlPointIter__10BezierRailCFP12JMapInfoIterfb
 0002:802464D0       calcRailCtrlPointIter__10BezierRailCFP12JMapInfoIteri
 0002:802464E0       getIncludedSection__10BezierRailCFPPC8RailPartPffi
 0002:80246660       getCurrentCtrlPointIndex__10BezierRailCFfb
 0002:80247B40       __ct__26CollisionCategorizedKeeperFl
 0002:802491D0       __ct__13CollisionCodeFv
 0002:80249940       getFloorCode__13CollisionCodeFRC12JMapInfoIter
 0002:80249DD0       __ct__17CollisionDirectorFv
 0002:80249EA0       init__17CollisionDirectorFRC12JMapInfoIter
 0002:80249EB0       initAfterPlacement__17CollisionDirectorFv
 0002:80249EC0       movement__17CollisionDirectorFv
 0002:80249F20       getCollisionDirector__2MRFv
 0002:80249FB0       __ct__14CollisionPartsFv
 0002:8024A0F0       init__14CollisionPartsFRCQ29JGeometry64TPosition3<Q29JGeometry38TMatrix34<Q29JGeometry13SMatrix34C<f>>>P9HitSensorPCvPCvlb
 0002:8024A4A0       updateMtx__14CollisionPartsFv
 0002:8024C210       __ct__16FileSelectEffectFPCc
 0002:8024C570       __dt__16FileSelectEffectFv
 0002:8024C650       nullsub_142
 0002:8024C670       copyMiiName__14FileSelectFuncFPUsRC16FileSelectIconID
 0002:8024C740       __ct__16FileSelectIconIDFv
 0002:8024C750       __ct__16FileSelectIconIDFRC16FileSelectIconID
 0002:8024C770       set__16FileSelectIconIDFRC16FileSelectIconID
 0002:8024C790       setMiiIndex__16FileSelectIconIDFUs
 0002:8024C7A0       isMii__16FileSelectIconIDCFv
 0002:8024C7B0       getMiiIndex__16FileSelectIconIDCFv
 0002:8024C7C0       setFellowID__16FileSelectIconIDFQ216FileSelectIconID9EFellowID
 0002:8024C7D0       isFellow__16FileSelectIconIDCFv
 0002:8024C7E0       getFellowID__16FileSelectIconIDCFv
 0002:8024C7F0       checkCollisionOfPointAndCylinder__28@unnamed@FileSelectItem_cpp@FRCQ29JGeometry8TVec3<f>RCQ29JGeometry8TVec3<f>RCQ29JGeometry8TVec3<f>f
 0002:8024C8D0       __ct__14FileSelectItemFlbRC16FileSelectIconIDPCc
 0002:8024CA30       init__14FileSelectItemFRC12JMapInfoIter
 0002:8024CF80       offPointing__14FileSelectItemFv
 0002:8024CFD0       validateRotate__14FileSelectItemFv
 0002:8024D110       exeChangeFellow__14FileSelectItemFv
 0002:8024D580       createNew__14FileSelectItemFv
 0002:8024D5F0       createFellows__14FileSelectItemFv
 0002:8024D670       createMii__14FileSelectItemFv
 0002:8024D790       createNumber__14FileSelectItemFv
 0002:8024DFE0       appearFellowModel__14FileSelectItemFv
 0002:8024E030       killAllModels__14FileSelectItemFv
 0002:8024E0C0       emitOpen__14FileSelectItemFv
 0002:8024E170       emitVanish__14FileSelectItemFv
 0002:8024E220       emitCopy__14FileSelectItemFv
 0002:8024E2D0       emitCompleteEffect__14FileSelectItemFv
 0002:8024E3E0       __ct__Q217FileSelectItemSub15ScaleControllerFv
 0002:8024E560       __ct__Q217FileSelectItemSub15BlinkControllerFP14FileSelectItem
 0002:8024ED74       j_exeChangeFellow__14FileSelectItemFv
 0002:8024EF30       emitVanish__15FileSelectModelFv
 0002:8024EF50       emitCompleteEffect__15FileSelectModelFv
 0002:8024F220       getItemArrayIndex__26@unnamed@FileSelector_cpp@Fl
 0002:8024F260       __ct__12FileSelectorFPCc
 0002:8024F320       init__12FileSelectorFRC12JMapInfoIter
 0002:8024FB10       createFileInfo__12FileSelectorFv
 0002:8024FC70       createManual__12FileSelectorFv
 0002:8024FD70       __defctor__16FileSelectEffectFv
 0002:8024FD80       appearAllItems__12FileSelectorFv
 0002:80250360       clearPointing__12FileSelectorFv
 0002:802503B0       setFileInfo__12FileSelectorFl
 0002:802510B0       getIconId__12FileSelectorCFP16FileSelectIconIDl
 0002:80255F00       __dt__11MapObjActorFv
 0002:802565B0       nullsub_86
 0002:80256A30       __ct__8TriangleFv
 0002:80256AB0       fillData__8TriangleFP14CollisionPartsUlP9HitSensor
 0002:80256CC0       getNormal__8TriangleCFi
 0002:80257030       getAttributes__8TriangleCFv
 0002:80257090       getBaseMtx__8TriangleCFv
 0002:802570B0       ngetPrevBaseMtx__8TriangleCFv
 0002:802570C0       __ct__7HitInfoFv
 0002:802571A0       __ct__16KCollisionServerFv
 0002:80257200       init__16KCollisionServerFPvPCv
 0002:80257250       setData__16KCollisionServerFPv
 0002:802572D0       calcFarthestVertexDistance__16KCollisionServerFv
 0002:80257460       isKCollisionServerBinaryInitailized
 0002:80259A30       getFaceNormal__16KCollisionServerCFPC12KC_PrismData
 0002:80259AB0       getNormal__16KCollisionServerCFUl
 0002:80259AD0       calXvec__16KCollisionServerCFPC4FxyzPC4FxyzP4Fxyz
 0002:80259D20       getPrismData__16KCollisionServerCFUl
 0002:80259D40       getTriangleNum__16KCollisionServerCFv
 0002:8025A330       __ct__15LightDataHolderFv
 0002:8025A340       initLightData__15LightDataHolderFv
 0002:8025A3C0       findAreaLight__15LightDataHolderCFPCc
 0002:8025A440       getDefaultAreaLightName__15LightDataHolderCFv
 0002:8025A450       getDefaultStepInterpolate__15LightDataHolderCFv
 0002:8025A460       __ct__13LightDirectorFv
 0002:8025A4D0       init__13LightDirectorFRC12JMapInfoIter
 0002:8025A560       initData__13LightDirectorFv
 0002:8025A6A0       movement__13LightDirectorFv
 0002:8025A6E0       __dt__13LightDirectorFv
 0002:8025A890       initLightData__13LightFunctionFv
 0002:8025A8C0       loadLightArchive__13LightFunctionFv
 0002:8025A960       createLightDataParser__13LightFunctionFPP8JMapInfo
 0002:8025A9D0       createZoneDataParser__13LightFunctionFPCcPP8JMapInfo
 0002:8025AA70       getDataLightInfo__13LightFunctionFP8JMapInfoiP9LightInfoPCc
 0002:8025AB40       getDataActorLightInfo__27@unnamed@LightFunction_cpp@FP8JMapInfoiP14ActorLightInfoPCc
 0002:8025AC40       getAreaLightLightData__13LightFunctionFP8JMapInfoiP13AreaLightInfo
 0002:8025AD10       getDefaultAreaLightName__13LightFunctionFv
 0002:8025AD40       getDefaultStepInterpolate__13LightFunctionFv
 0002:8025AD70       registerPlayerLightCtrl__13LightFunctionFPC14ActorLightCtrl
 0002:8025ADF0       tryFindNewAreaLightID__13LightFunctionFRCQ29JGeometry8TVec3<f>P11ZoneLightID
 0002:8025AE40       getAreaLightInfo__13LightFunctionFRC11ZoneLightID
 0002:8025B230       loadActorLightInfo__13LightFunctionFPC14ActorLightInfo
 0002:8025B410       __ct__14LightPointCtrlFv
 0002:8025B530       update__14LightPointCtrlFv
 0002:8025B5A0       __as__14PointLightInfoFRC14PointLightInfo
 0002:8025B6F0       __as__3VecFRC3Vec
 0002:8025B710       updatePointLight__14LightPointCtrlFv
 0002:8025B830       clearPointLight__14LightPointCtrlFP14PointLightInfo
 0002:8025B8D0       blendPointLight__14LightPointCtrlFP14PointLightInfoRC14PointLightInfoRC14PointLightInfof
 0002:8025BA00       tryBlendStart__14LightPointCtrlFv
 0002:8025BAA0       clear__11ZoneLightIDFv
 0002:8025BAB0       isTargetArea__11ZoneLightIDCFPC9LightArea
 0002:8025BAE0       isOutOfArea__11ZoneLightIDCFv
 0002:8025BAF0       __ct__13LightZoneInfoFv
 0002:8025BB00       init__13LightZoneInfoFl
 0002:8025BBB0       getAreaLightNameInZoneData__13LightZoneInfoCFl
 0002:8025BBF0       __ct__19LightZoneDataHolderFv
 0002:8025BC00       initZoneData__19LightZoneDataHolderFv
 0002:8025BCA0       getAreaLightNameInZoneData__19LightZoneDataHolderCFRC11ZoneLightID
 0002:8025BCD0       getDefaultStageAreaLightName__19LightZoneDataHolderCFv
 0002:8025C040       __ct__13NamePosHolderFv
 0002:8025C110       __ct__11NamePosInfoFv
 0002:8025C120       tryRegisterLinkObj__13NamePosHolderFPC7NameObjRC12JMapInfoIterPCc
 0002:8025C3C0       getNamePosHolder__2MRFv
 0002:8025CF40       isInWater__9OceanBowlCFRCQ29JGeometry8TVec3<f>
 0002:8025FA40       __ct__9PlanetMapFPCcPCc
 0002:80260CF0       makeSubModelName__16PlanetMapCreatorFPPCcPC8JMapInfolPCcPCc
 0002:802615E0       isDataForceLow__30@unnamed@PlanetMapCreator_cpp@FPC13PlanetMapData
 0002:80261650       __ct__16PlanetMapCreatorFPCc
 0002:802616D0       getCreateFunc__16PlanetMapCreatorFPCc
 0002:80261780       createNameObj<9PlanetMap>__30@unnamed@PlanetMapCreator_cpp@FPCc_P7NameObj
 0002:802617D0       createNameObj<25PlanetMapWithoutHighModel>__16PlanetMapCreatorFPCc_P7NameObj
 0002:80261810       createPlanetMapDataTable__16PlanetMapCreatorFP8JMapInfo
 0002:80261890       addTableData__16PlanetMapCreatorFPC8JMapInfol
 0002:802619F0       getTableData__16PlanetMapCreatorCFPCc
 0002:80261A70       isScenarioForceLow__16PlanetMapCreatorCFPC13PlanetMapData
 0002:80261B40       getPlanetMapCreator__24PlanetMapCreatorFunctionFPCc
 0002:80261B80       isLoadArchiveAfterScenarioSelected__24PlanetMapCreatorFunctionFPCc
 0002:80261BF0       isRegisteredObj__24PlanetMapCreatorFunctionFPCc
 0002:80261C40       __dt__16PlanetMapCreatorFv
 0002:80261CA0       __ct__25PlanetMapWithoutHighModelFPCc
 0002:80263590       __ct__20QuakeEffectGeneratorFv
 0002:80266720       __ct__8RailPartFv
 0002:80266730       init__8RailPartFRCQ29JGeometry8TVec3<f>RCQ29JGeometry8TVec3<f>RCQ29JGeometry8TVec3<f>RCQ29JGeometry8TVec3<f>
 0002:802667E0       epsilonEquals__Q29JGeometry8TVec3<f>CFRCQ29JGeometry8TVec3<f>f
 0002:80266880       initForBezier__8RailPartFRCQ29JGeometry8TVec3<f>RCQ29JGeometry8TVec3<f>RCQ29JGeometry8TVec3<f>RCQ29JGeometry8TVec3<f>
 0002:802668E0       calcPos__8RailPartCFPQ29JGeometry8TVec3<f>f
 0002:80266960       getTotalLength__8RailPartCFv
 0002:802669B0       getNearestParam__8RailPartCFRCQ29JGeometry8TVec3<f>f
 0002:802669D0       set__14LinearRailPartFRCQ29JGeometry8TVec3<f>RCQ29JGeometry8TVec3<f>
 0002:80266D70       __ct__18ScenarioSelectStarFP12EffectSystemi
 0002:80267140       setup__18ScenarioSelectStarFliRCQ29JGeometry8TVec3<f>l
 0002:80268B80       __ct__3SkyFPCc
 0002:80268C30       init__3SkyFRC12JMapInfoIter
 0002:80268E50       Functor<3Sky>__2MRFP3SkyM3SkyFPCvPv_v_Q22MR31FunctorV0M<P3Sky,M3SkyFPCvPv_v>
 0002:80268E90       calcAnim__3SkyFv
 0002:80268F10       initModel__3SkyFPCc
 0002:80268F20       control__3SkyFv
 0002:802690C0       nullsub_188
 0002:80269120       __dt__3SkyFv
 0002:80269500       __cl__Q22MR31FunctorV0M<P3Sky,M3SkyFPCvPv_v>CFv
 0002:80269530       clone__Q22MR31FunctorV0M<P3Sky,M3SkyFPCvPv_v>CFP7JKRHeap
 0002:80269660       __dt__16ProjectionMapSkyFv
 0002:80269C80       __ct__10SpaceInnerFPCc
 0002:80269CC0       init__10SpaceInnerFRC12JMapInfoIter
 0002:80269D50       calcAnim__10SpaceInnerFv
 0002:80269DA0       appear__10SpaceInnerFv
 0002:80269E30       disappear__10SpaceInnerFv
 0002:80269E80       __dt__10SpaceInnerFv
 0002:80269EE0       __sinit_\SpaceInner_cpp
 0002:80269F10       __ct__Q213NrvSpaceInner14HostTypeAppearFv
 0002:80269F20       __ct__Q213NrvSpaceInner17HostTypeDisappearFv
 0002:80269F90       get__10BitFlag128CFi
 0002:80269FD0       set__10BitFlag128Fib
 0002:8026A040       __ct__10ZoneSwitchFi
 0002:8026A0C0       __ct__12SwitchIdInfoFlRC12JMapInfoIter
 0002:8026A140       getSwitchNo__12SwitchIdInfoCFv
 0002:8026A170       __ct__20StageSwitchContainerFv
 0002:8026A1E0       createAndAddZone__20StageSwitchContainerFRC12SwitchIdInfo
 0002:8026A260       getZoneSwitch__20StageSwitchContainerFRC12SwitchIdInfo
 0002:8026A2D0       __ct__15StageSwitchCtrlFRC12JMapInfoIter
 0002:8026A390       onSwitchA__15StageSwitchCtrlFv
 0002:8026A3A0       offSwitchA__15StageSwitchCtrlFv
 0002:8026A3B0       isOnSwitchA__15StageSwitchCtrlCFv
 0002:8026A3C0       isValidSwitchA__15StageSwitchCtrlCFv
 0002:8026A3D0       onSwitchB__15StageSwitchCtrlFv
 0002:8026A3E0       offSwitchB__15StageSwitchCtrlFv
 0002:8026A3F0       isOnSwitchB__15StageSwitchCtrlCFv
 0002:8026A400       isValidSwitchB__15StageSwitchCtrlCFv
 0002:8026A410       isOnSwitchAppear__15StageSwitchCtrlCFv
 0002:8026A420       isValidSwitchAppear__15StageSwitchCtrlCFv
 0002:8026A430       onSwitchDead__15StageSwitchCtrlFv
 0002:8026A450       isValidSwitchDead__15StageSwitchCtrlCFv
 0002:8026A580       createSwitchIdInfo__19StageSwitchFunctionFPCcRC12JMapInfoIterb
 0002:8026A630       onSwitchBySwitchIdInfo__19StageSwitchFunctionFRC12SwitchIdInfo
 0002:8026A6A0       offSwitchBySwitchIdInfo__19StageSwitchFunctionFRC12SwitchIdInfo
 0002:8026A710       isOnSwitchBySwitchIdInfo__19StageSwitchFunctionFRC12SwitchIdInfo
 0002:8026A7E0       createStageSwitchCtrl__2MRFP7NameObjRC12JMapInfoIter
 0002:8026A840       __dt__20StageSwitchContainerFv
 0002:8026A8A0       __ct__17SunshadeMapHolderFv
 0002:8026A900       isInShadeFromTheSun__2MRFRCQ29JGeometry8TVec3<f>f
 0002:8026A9D0       __dt__17SunshadeMapHolderFv
 0002:8026AA30       __ct__18SwitchSynchronizerFPCc
 0002:8026AA80       init__18SwitchSynchronizerFRC12JMapInfoIter
 0002:8026AAD0       movement__18SwitchSynchronizerFv
 0002:8026ABB0       __dt__18SwitchSynchronizerFv
 0002:8026AC10       __ct__13SwitchWatcherFPC15StageSwitchCtrl
 0002:8026AC80       movement__13SwitchWatcherFv
 0002:8026AD20       checkSwitch__13SwitchWatcherFP19SwitchEventListenerUlb
 0002:8026ADE0       addSwitchListener__13SwitchWatcherFP19SwitchEventListenerUl
 0002:8026AE20       __dt__13SwitchWatcherFv
 0002:8026AE80       __ct__19SwitchWatcherHolderFv
 0002:8026AFA0       joinSwitchEventListenerAppear__19SwitchWatcherHolderFPC15StageSwitchCtrlP19SwitchEventListener
 0002:8026B0E0       getSwitchWatcherHolder__2MRFv
 0002:8026B650       createWaterAreaHolder__17WaterAreaFunctionFv
 0002:8026B660       tryInOceanArea__17WaterAreaFunctionFRCQ29JGeometry8TVec3<f>P9WaterInfo
 0002:8026B910       __ct__9WaterInfoFv
 0002:8026B940       isInWater__9WaterInfoCFv
 0002:8026B990       clear__9WaterInfoFv
 0002:8026CF90       isInWater__9OceanRingCFRCQ29JGeometry8TVec3<f>
 0002:8026F270       __ct__15AirBubbleHolderFPCc
 0002:8026F7E0       nullsub_85
 0002:8026F7F0       nullsub_84
 0002:8026F800       nullsub_83
 0002:802798C0       __ct__12BigFanHolderFv
 0002:8027CF70       initBaseMtxForCage__13BreakableCageFv
 0002:8027CFF0       isTypeCage__13BreakableCageCFv
 0002:8027D060       isAppearPowerStar__13BreakableCageCFv
 0002:80288A30       __ct__7CocoNutFPCc
 0002:80288AF0       init__7CocoNutFRC12JMapInfoIter
 0002:80288FC0       calcMoveSpeed__7CocoNutCFv
 0002:80289780       initMapToolInfo__7CocoNutFRC12JMapInfoIter
 0002:802898B0       initEffect__7CocoNutFv
 0002:80289960       updateRotate__7CocoNutFf
 0002:80289B10       updateGravity__7CocoNutFv
 0002:80289BB0       processMove__7CocoNutFv
 0002:8028A8E0       isOnGround__7CocoNutCFv
 0002:8028B890       init__15CoconutTreeLeafFRC12JMapInfoIter
 0002:8028BC70       __ct__4CoinFPCc
 0002:8028BD20       init__4CoinFRC12JMapInfoIter
 0002:8028C070       initAfterPlacement__4CoinFv
 0002:8028C0C0       initShadow__4CoinFRC12JMapInfoIter
 0002:8028C1C0       setShadowAndPoseModeFromJMapIter__4CoinFRC12JMapInfoIter
 0002:8028C2A0       makeActorAppeared__4CoinFv
 0002:8028C3D0       makeActorDead__4CoinFv
 0002:8028C460       calcAndSetBaseMtx__4CoinFv
 0002:8028CE00       appear__4CoinFv
 0002:8028CF80       appearMove__4CoinFRCQ29JGeometry8TVec3<f>RCQ29JGeometry8TVec3<f>ll
 0002:8028D680       setHostInfo__4CoinFP12CoinHostInfo
 0002:8028D690       setCalcShadowMode__4CoinFv
 0002:8028D710       setCannotTime__4CoinFl
 0002:8028D730       calcRebouond__4CoinFv
 0002:8028D870       attenuateVelocity__4CoinFv
 0002:8028D8C0       isNeedBubble__4CoinFRC12JMapInfoIter
 0002:8028D9B0       createDirectSetCoin__2MRFPCc
 0002:8028DA20       createCoin__2MRFPC7NameObjPCc
 0002:8028DA90       createDirectSetPurpleCoin__2MRFPCc
 0002:8028DB00       createPurpleCoin__2MRFPC7NameObjPCc
 0002:8028DC20       __dt__4CoinFv
 0002:8028DC80       __sinit_\Coin_cpp
 0002:8028DD90       nullsub_187
 0002:8028E9C0       __ct__10CoinHolderFPCc
 0002:8028EA30       __ct__12CoinHostInfoFv
 0002:8028EA50       __dt__23DeriveActorGroup<4Coin>Fv
 0002:8028EAB0       init__10CoinHolderFRC12JMapInfoIter
 0002:8028EB30       appearCoin__10CoinHolderFPC7NameObjRCQ29JGeometry8TVec3<f>RCQ29JGeometry8TVec3<f>lllf
 0002:8028EC80       getDeadMember__23DeriveActorGroup<4Coin>CFv
 0002:8028EF60       appearCoinToVelocity__10CoinHolderFPC7NameObjRCQ29JGeometry8TVec3<f>RCQ29JGeometry8TVec3<f>l
 0002:8028EF80       appearCoinCircle__10CoinHolderFPC7NameObjRCQ29JGeometry8TVec3<f>l
 0002:8028F100       declare__10CoinHolderFPC7NameObjl
 0002:8028F200       findHostInfo__10CoinHolderCFPC7NameObj
 0002:8028F240       createCoinHolder__2MRFv
 0002:8028F270       getCoinHolder__2MRFv
 0002:8028F2A0       addToCoinHolder__2MRFPC7NameObjP4Coin
 0002:8028FE10       __ct__11CoinRotaterFPCc
 0002:8028FF80       createCoinRotater__2MRFv
 0002:80291A60       nullsub_147
 0002:80291A70       __ct__11CrystalCageFPCc
 0002:80291B50       init__11CrystalCageFRC12JMapInfoIter
 0002:80291F90       initAfterPlacement__11CrystalCageFv
 0002:802920C0       kill__11CrystalCageFv
 0002:80292120       forceBreak__11CrystalCageFv
 0002:802921C0       appear__11CrystalCageFv
 0002:80292200       attackSensor__11CrystalCageFP9HitSensorP9HitSensor
 0002:80292220       receiveMsgPlayerAttack__11CrystalCageFUlP9HitSensorP9HitSensor
 0002:80292410       receiveMsgEnemyAttack__11CrystalCageFUlP9HitSensorP9HitSensor
 0002:80292490       initMapToolInfo__11CrystalCageFRC12JMapInfoIter
 0002:802925D0       initModel__11CrystalCageF
 0002:802928E0       exeWait__11CrystalCageFv
 0002:80292A00       exeBreak__11CrystalCageFv
 0002:80292CD0       exeBreakAfter__11CrystalCageFv
 0002:80292DC0       __dt__11CrystalCageFv
 0002:80292E20       __sinit_\CrystalCage_cpp
 0002:80292E70       __ct__Q214NrvCrystalCage18CrystalCageNrvWaitFv
 0002:80292E80       __ct__Q214NrvCrystalCage19CrystalCageNrvBreakFv
 0002:80292E90       __ct__Q214NrvCrystalCage24CrystalCageNrvBreakAfterFv
 0002:80292EA0       execute__Q214NrvCrystalCage24CrystalCageNrvBreakAfterCFP5Spine
 0002:80292EB0       execute__Q214NrvCrystalCage19CrystalCageNrvBreakCFP5Spine
 0002:80292EC0       execute__Q214NrvCrystalCage18CrystalCageNrvWaitCFP5Spine
 0002:80293DC0       nullsub_210
 0002:80293DE0       nullsub_211
 0002:80295440       tryCreateDummyModel__31@unnamed@DummyDisplayModel_cpp@FP9LiveActorRC12JMapInfoIterli
 0002:80295D50       createDummyDisplayModelCrystalItem__2MRFP9LiveActorlRCQ29JGeometry8TVec3<f>RCQ29JGeometry8TVec3<f>
 0002:80295DC0       getDummyDisplayModelId__2MRFRC12JMapInfoIterl
 0002:80295E30       getDummyDisplayModelId__2MRFPC9LiveActor
 0002:80295EA0       __ct__19DynamicCollisionObjFPCc
 0002:80295F10       init__19DynamicCollisionObjFRC12JMapInfoIter
 0002:80295F60       createCollision__19DynamicCollisionObjFv
 0002:80296160       updateTriangle__19DynamicCollisionObjFv
 0002:80296410       updateCollisionHeader__19DynamicCollisionObjFv
 0002:80298B20       __ct__17ElectricRailPointFPCc
 0002:80298B70       init__17ElectricRailPointFRC12JMapInfoIter
 0002:80298C80       attackSensor__17ElectricRailPointFP9HitSensorP9HitSensor
 0002:80298CA0       __ct__21ElectricRailSeparatorFv
 0002:80298D10       setup__21ElectricRailSeparatorFRCQ29JGeometry8TVec3<f>RCQ29JGeometry8TVec3<f>RCQ29JGeometry8TVec3<f>
 0002:80298DD0       __ct__24ElectricRailShadowDrawerFPC9LiveActorP21ElectricRailSeparatorl
 0002:80298F00       loadModelDrawMtx__24ElectricRailShadowDrawerCFv
 0002:80298F60       drawShape__24ElectricRailShadowDrawerCFv
 0002:80298F70       isDraw__24ElectricRailShadowDrawerCFv
 0002:80298F80       drawShadowVolumeShape__24ElectricRailShadowDrawerCFP21ElectricRailSeparatorl
 0002:80299270       GDBegin_1
 0002:80299320       GDPosition3f32_1
 0002:80299900       initMapToolInfo__12ElectricRailFRC12JMapInfoIter
 0002:80299990       initSensor__12ElectricRailFv
 0002:80299A70       initPoints__12ElectricRailFv
 0002:80299C50       __defctor__17ElectricRailPointFv
 0002:80299C60       __dt__17ElectricRailPointFv
 0002:80299CC0       initSeparators__12ElectricRailFv
 0002:80299EA0       initDisplayList__12ElectricRailFv
 0002:80299FD0       drawPlane__12ElectricRailCFffff
 0002:8029A650       updateHitSensorPos__12ElectricRailFv
 0002:8029A7A0       calcGravity__12ElectricRailCFPQ29JGeometry8TVec3<f>RCQ29JGeometry8TVec3<f>
 0002:8029B9C0       isNearRail__32@unnamed@ElectricRailHolder_cpp@FPC9LiveActorPC9HitSensorPQ29JGeometry8TVec3<f>PQ29JGeometry8TVec3<f>
 0002:8029BAD0       __ct__18ElectricRailHolderFPCc
 0002:8029BB30       init__18ElectricRailHolderFRC12JMapInfoIter
 0002:8029BBD0       calcAnim__18ElectricRailHolderFv
 0002:8029BC50       draw__18ElectricRailHolderCFv
 0002:8029BD00       registerRail__18ElectricRailHolderFPC9LiveActor16ElectricRailType
 0002:8029BDE0       isTouchRail__18ElectricRailHolderCFPC9HitSensorPQ29JGeometry8TVec3<f>PQ29JGeometry8TVec3<f>
 0002:8029BED0       control__18ElectricRailHolderFv
 0002:8029BF90       initDraw__18ElectricRailHolderCFv
 0002:8029C030       createModel__18ElectricRailHolderCF16ElectricRailType
 0002:8029C250       registerRail__20ElectricRailFunctionFPC9LiveActor16ElectricRailType
 0002:8029C2B0       isTouchRail__20ElectricRailFunctionFPC9HitSensorPQ29JGeometry8TVec3<f>PQ29JGeometry8TVec3<f>
 0002:8029C320       getHitSensorRadius__20ElectricRailFunctionFv
 0002:8029C340       calcDisplayListSize__20ElectricRailFunctionFUll
 0002:8029C360       __cl__Q22MR65FunctorV0M<PC18ElectricRailHolder,M18ElectricRailHolderFPCvPCv_v>CFv
 0002:8029C400       __dt__18ElectricRailHolderFv
 0002:8029C8F0       isTouchRail__18ElectricRailMovingCFPC9HitSensorPQ29JGeometry8TVec3<f>PQ29JGeometry8TVec3<f>
 0002:802A5520       __ct__8GCaptureFPCc
 0002:802A77E0       isPlayerGCaptured__2MRFv
 0002:802A7AA0       __ct__14GCaptureRibbonFPCc
 0002:802A7AF0       init__14GCaptureRibbonFRC12JMapInfoIter
 0002:802A7B90       draw__14GCaptureRibbonCFv
 0002:802A8190       calcLineWidth__14GCaptureRibbonCFv
 0002:802B1670       __ct__7IceStepFPCc
 0002:802B1710       init__7IceStepFRC12JMapInfoIter
 0002:802B1850       exeWait__7IceStepFv
 0002:802B1910       setOn__7IceStepFUlRCQ29JGeometry8TVec3<f>RCQ29JGeometry8TVec3<f>
 0002:802B1A90       destroy__7IceStepFv
 0002:802B1BF0       nullsub_197
 0002:802B2FA0       nullsub_87
 0002:802C0360       __ct__10LavaGeyserFPCc
 0002:802C03E0       init__10LavaGeyserFRC12JMapInfoIter
 0002:802C0550       startClipped__10LavaGeyserFv
 0002:802C05B0       kill__10LavaGeyserFv
 0002:802C0620       control__10LavaGeyserFv
 0002:802C0690       updateHitSensor__10LavaGeyserFP9HitSensor
 0002:802C07E0       attackSensor__10LavaGeyserFP9HitSensorP9HitSensor
 0002:802C9B00       __ct__11MapObjActorFPCc
 0002:802C9C70       init__11MapObjActorFRC12JMapInfoIter
 0002:802C9C90       initAfterPlacement__11MapObjActorFv
 0002:802C9D20       appear__11MapObjActorFv
 0002:802C9DD0       kill__11MapObjActorFv
 0002:802C9E50       initialize__11MapObjActorFRC12JMapInfoIterRC19MapObjActorInitInfo
 0002:802CAA00       isObjectName__11MapObjActorCFPCc
 0002:802CAA10       connectToScene__11MapObjActorFRC19MapObjActorInitInfo
 0002:802CAAC0       initCaseUseSwitchA__11MapObjActorFRC19MapObjActorInitInfo
 0002:802CAAD0       initCaseNoUseSwitchA__11MapObjActorFRC19MapObjActorInitInfo
 0002:802CAAE0       initCaseUseSwitchB__11MapObjActorFRC19MapObjActorInitInfo
 0002:802CAB70       Functor<11MapObjActor>__2MRFP11MapObjActorM11MapObjActorFPCvPv_v_Q22MR49FunctorV0M<P11MapObjActor,M11MapObjActorFPCvPv_v>
 0002:802CABC0       control__11MapObjActorFv
 0002:802CACF0       calcAndSetBaseMtx__11MapObjActorFv
 0002:802CAF00       startClipped__11MapObjActorFv
 0002:802CAF60       endClipped__11MapObjActorFv
 0002:802CAFC0       tryCreateBreakModel__11MapObjActorFRC19MapObjActorInitInfo
 0002:802CB640       nullsub_156
 0002:802CB6F0       nullsub_157
 0002:802CB7D0       startRotator__15MapObjActorUtilFPC11MapObjActor
 0002:802CBBB0       __ct__19MapObjActorInitInfoFv
 0002:802CBCB0       setupHioNode__19MapObjActorInitInfoFPCc
 0002:802CBCC0       setupDefaultPos__19MapObjActorInitInfoFv
 0002:802CBCE0       setupConnectToScene__19MapObjActorInitInfoFv
 0002:802CBCF0       setupBinder__19MapObjActorInitInfoFff
 0002:802CBD30       setupSound__19MapObjActorInitInfoFll
 0002:802CBD40       setupSoundPos__19MapObjActorInitInfoFPQ29JGeometry8TVec3<f>
 0002:802CBD50       setupHitSensor__19MapObjActorInitInfoFv
 0002:802CBD60       setupHitSensorParam__19MapObjActorInitInfoFUsfRCQ29JGeometry8TVec3<f>
 0002:802CBD90       setupNerve__19MapObjActorInitInfoFPC5Nerve
 0002:802CBDC0       setupGroupClipping__19MapObjActorInitInfoFl
 0002:802CBE20       setupRailMover__19MapObjActorInitInfoFv
 0002:802CBE30       setupRotator__19MapObjActorInitInfoFv
 0002:802CBE60       setupBaseMtxFollowTarget__19MapObjActorInitInfoFv
 0002:802CBE80       setupSeAppear__19MapObjActorInitInfoFv
 0002:802CBEA0       setupNoUseLodCtrl__19MapObjActorInitInfoFv
 0002:802CBEB0       setupInitInfoSimpleMapObj__15MapObjActorUtilFP19MapObjActorInitInfo
 0002:802CC150       setupInitInfoColorChangeArg0__15MapObjActorUtilFP19MapObjActorInitInfoRC12JMapInfoIter
 0002:802CF650       control__11TalkBalloonFv
 0002:802D339C       def_802D31A0
 0002:802D6610       __ct__4NoteFPCcRCQ29JGeometry8TVec3<f>P9NoteFairy
 0002:802D66A0       init__4NoteFRC12JMapInfoIter
 0002:802D6C00       __ct__9NoteGroupFv
 0002:802D6C50       init__9NoteGroupFRC12JMapInfoIter
 0002:802D6C60       movement__9NoteGroupFv
 0002:802D6D30       __dt__9NoteGroupFv
 0002:802DF260       setupColorGrandStar__23@unnamed@PowerStar_cpp@FP9LiveActorb
 0002:802DF4F0       __ct__9PowerStarFPCc
 0002:802DF5C0       init__9PowerStarFRC12JMapInfoIter
 0002:802DF790       initAfterPlacement__9PowerStarFv
 0002:802DF7A0       appear__9PowerStarFv
 0002:802DF7E0       makeActorAppeared__9PowerStarFv
 0002:802DF830       requestAppear__9PowerStarFv
 0002:802DF930       isEndAppearDemo__9PowerStarCFv
 0002:802DF990       offAppearDemo__9PowerStarFv
 0002:802DFBF0       getPowerStarWaitRotateSpeed__9PowerStarFv
 0002:802DFD50       control__9PowerStarFv
 0002:802DFE20       calcAndSetBaseMtx__9PowerStarFv
 0002:802DFF90       receiveMsgPlayerAttack__9PowerStarFUlP9HitSensorP9HitSensor
 0002:802DFFE0       receiveOtherMsg__9PowerStarFUlP9HitSensorP9HitSensor
 0002:802E0120       initMapToolInfo__9PowerStarFRC12JMapInfoIter
 0002:802E0250       initModel__9PowerStarFv
 0002:802E0440       initSensorGrandStar__9PowerStarFv
 0002:802E0650       initShadow__9PowerStarFRC12JMapInfoIter
 0002:802E06E0       initPosture__9PowerStarFv
 0002:802E09E0       getAppearCameraActor__9PowerStarFv
 0002:802E0A00       getAppearCameraInfo__9PowerStarCFv
 0002:802E0A20       requestAppearOrWait__9PowerStarFv
 0002:802E0B40       calcAppearDemoRiseTrans__9PowerStarCFPQ29JGeometry8TVec3<f>f
 0002:802E0DF0       processWait__9PowerStarFf
 0002:802E1090       exeAppearDemoMove__9PowerStarFv
 0002:802E1560       exeStageClearDemo__9PowerStarFv
 0002:802E17C0       __dt__9PowerStarFv
 0002:802E18F0       execute__Q212NrvPowerStar26PowerStarNrvStageClearDemoCFP5Spine
 0002:802E1930       execute__Q212NrvPowerStar26PowerStarNrvAppearDemoMoveCFP5Spine
 0002:802E1950       nullsub_143
 0002:802E1A90       __ct__15PowerStarHolderFPCc
 0002:802E1AE0       init__15PowerStarHolderFRC12JMapInfoIter
 0002:802E1AF0       registerPowerStar__15PowerStarHolderFP9PowerStari
 0002:802E1B60       requestAppearPowerStar__15PowerStarHolderFiPCQ29JGeometry8TVec3<f>b
 0002:802E1C00       appearPowerStarWithoutDemo__15PowerStarHolderFi
 0002:802E1C50       getAppearedPowerStar__15PowerStarHolderCFi
 0002:802E1CE0       registerPowerStar__2MRFP9PowerStari
 0002:802E1D30       isEndPowerStarAppearDemo__17PowerStarFunctionFi
 0002:802E1DB0       __dt__15PowerStarHolderFv
 0002:802E7920       __ct__16PurpleCoinHolderFv
 0002:802E7990       createPurpleCoinHolder__2MRFv
 0002:802E79A0       addToPurpleCoinHolder__2MRFPC7NameObjP4Coin
 0002:802E8380       initFromJMapInfoArg__12QuestionCoinFRC12JMapInfoIter
 0002:802E8420       initShadow__12QuestionCoinFv
 0002:802E8470       updateActorMtx__12QuestionCoinFv
 0002:802E85F0       exeThrowActor__12QuestionCoinFv
 0002:802E87A0       exeCaught__12QuestionCoinFv
 0002:802E89B0       nullsub_88
 0002:802E89C0       execute__Q215NrvQuestionCoin14HostTypeCaughtCFP5Spine
 0002:802E89E0       nullsub_89
 0002:802E9B70       initCaseUseSwitchB__11RailMoveObjFRC19MapObjActorInitInfo
 0002:802EC260       j_validateCollisionParts__2MRFP9LiveActor
 0002:802EEDF0       nullsub_111
 0002:802F2770       init__4RockFRC12JMapInfoIter
 0002:802F2970       appear__4RockFv
 0002:802F2AC0       kill__4RockFv
 0002:802F2B30       getAppearFrame__4RockFv
 0002:802F2B40       getType__4RockFRC12JMapInfoIter
 0002:802F2BD0       getAppearStarPieceNum__4RockFQ24Rock4Type
 0002:802F2BF0       control__4RockFv
 0002:802F2E70       calcAndSetBaseMtx__4RockFv
 0002:802F3040       attackSensor__4RockFP9HitSensorP9HitSensor
 0002:802F3420       initMapToolInfo__4RockFRC12JMapInfoIter
 0002:802F3520       initModel__4RockFv
 0002:802F3680       initSensor__4RockFv
 0002:802F37C0       initEffect__4RockFv
 0002:802F3980       calcBaseMtx__4RockCFPQ29JGeometry64TPosition3<Q29JGeometry38TMatrix34<Q29JGeometry13SMatrix34C<f>>>
 0002:802F3A50       isInClippingRange__4RockCFv
 0002:802F3B00       startSoundWanwanVoice__4RockFv
 0002:802F3BB0       startRollLevelSound__4RockFb
 0002:802F3E30       rumblePadAndCamera__4RockFv
 0002:802F3EA0       setNerveBreak__4RockFb
 0002:802F3EF0       updateRotateX__4RockFf
 0002:802F3F50       appearStarPiece__4RockFv
 0002:802F4DF0       __dt__4RockFv
 0002:802FDE20       nullsub_91
 0002:802FE3F0       j_invalidateShadowAll__2MRFP9LiveActor
 0002:802FE400       nullsub_93
 0002:802FE410       nullsub_92
 0002:802FE8D0       nullsub_94
 0002:802FE8E0       nullsub_95
 0002:80306950       __ct__12SpiderThreadFPCc
 0002:80306A80       init__12SpiderThreadFRC12JMapInfoIter
 0002:80306A90       movement__12SpiderThreadFv
 0002:80306C10       draw__12SpiderThreadCFv
 0002:803072F0       __dt__12SpiderThreadFv
 0002:8030DBE0       __ct__16SpinDriverCameraFv
 0002:8030DC00       init__16SpinDriverCameraFRC12JMapInfoIterP9LiveActor
 0002:8030DCD0       initAppearCamera__16SpinDriverCameraFRC12JMapInfoIterP9LiveActor
 0002:8030E1D0       __ct__22SpinDriverPathDrawInitFv
 0002:8030E360       initDraw__22SpinDriverPathDrawInitFv
 0002:803109D0       tryStageEffectMoving__Q22MR11StageEffectFP9LiveActorPCc
 0002:803116C0       setColor__9StarPieceFl
 0002:80311700       getNumColor__9StarPieceFv
 0002:803119F0       changeScale__9StarPieceFf
 0002:80312310       isEffectLight__9StarPieceFv
 0002:80313330       trySetGravityAndFront__9StarPieceFRCQ29JGeometry8TVec3<f>
 0002:80313550       giftToTarget__9StarPieceFP21StarPieceReceiverInfoUlP9HitSensorRCQ29JGeometry8TVec3<f>
 0002:80313640       goToPlayer__9StarPieceFQ29JGeometry8TVec3<f>
 0002:803137C0       launch__9StarPieceFRCQ29JGeometry8TVec3<f>ffbb
 0002:80313D10       calcEffectScale__9StarPieceFffb
 0002:80313D90       calcNearCameraScale__9StarPieceFv
 0002:80313EB0       emitGettableEffect__9StarPieceFf
 0002:80314010       tryGotJudge__9StarPieceFv
 0002:80314510       receiveOtherMsg__9StarPieceFUlP9HitSensorP9HitSensor
 0002:80314730       isIgnoreTriOnThrow__9StarPieceFPC8Triangle
 0002:80314780       touchPlayer__9StarPieceFv
 0002:80315680       getStarPieceDirector__2MRFv
 0002:80315800       gotByPlayer__2MRFv
 0002:80315960       __ct__17StarPieceDirectorFPCc
 0002:80315AB0       declare__17StarPieceDirectorFPC7NameObjl
 0002:80315ED0       appearPieceToDirection__17StarPieceDirectorFPC7NameObjRCQ29JGeometry8TVec3<f>RCQ29JGeometry8TVec3<f>lffbbb
 0002:80316290       gotByPlayer__17StarPieceDirectorFv
 0002:803163C0       initCSDelay__17StarPieceDirectorFv
 0002:803163F0       initCSSound__17StarPieceDirectorFv
 0002:80316540       getDeadStarPiece__17StarPieceDirectorFv
 0002:803165C0       calcPosCameraShoot__17StarPieceDirectorFl
 0002:803166B0       clearGotCountReceiver__17StarPieceDirectorFPC7NameObj
 0002:803166E0       findHostInfo__17StarPieceDirectorFPC7NameObj
 0002:80316720       findReceiverInfo__17StarPieceDirectorFPC7NameObj
 0002:80316760       __ct__16StarPieceShooterFlPCc
 0002:80316800       init__16StarPieceShooterFRC12JMapInfoIter
 0002:803168E0       exeWait__16StarPieceShooterFv
 0002:80316910       exeLockOn__16StarPieceShooterFv
 0002:80316990       attackSensor__16StarPieceShooterFP9HitSensorP9HitSensor
 0002:80316A40       control__16StarPieceShooterFv
 0002:80316B00       shoot__16StarPieceShooterFv
 0002:80316D00       tryShoot__16StarPieceShooterFv
 0002:80316FA0       calcShootGoalUsingPointingDepth__16StarPieceShooterFv
 0002:803171E0       __sinit_\StarPieceDirector_cpp
 0002:80317210       __ct__Q219NrvStarPieceShooter15HostTypeNrvWaitFv
 0002:80317220       __ct__Q219NrvStarPieceShooter17HostTypeNrvLockOnFv
 0002:80317230       execute__Q219NrvStarPieceShooter17HostTypeNrvLockOnCFP5Spine
 0002:80317240       execute__Q219NrvStarPieceShooter15HostTypeNrvWaitCFP5Spine
 0002:80317BA0       beginFollowPieces__20StarPieceFollowGroupFv
 0002:8031BC80       __ct__10YoshiFruitFPCc
 0002:8031E450       initParamFromJMapInfo__15SuperSpinDriverFRC12JMapInfoIter
 0002:8031E500       initGravityAxis__15SuperSpinDriverFv
 0002:8031E580       initSensor__15SuperSpinDriverFv
 0002:8031E710       initEventCamera__15SuperSpinDriverFRC12JMapInfoIter
 0002:803259A0       __ct__12TreasureSpotFPCc
 0002:803259F0       init__12TreasureSpotFRC12JMapInfoIter
 0002:80325AE0       exeSpout__12TreasureSpotFv
 0002:80325BD0       control__12TreasureSpotFv
 0002:80325C30       receiveMsgPlayerAttack__12TreasureSpotFUlP9HitSensorP9HitSensor
 0002:80325D00       switchEmitGlow__12TreasureSpotFv
 0002:80325D90       __dt__12TreasureSpotFv
 0002:80325DF0       __sinit_\TreasureSpot_cpp
 0002:80325E30       __ct__Q215NrvTreasureSpot19TreasureSpotNrvWaitFv
 0002:80325E40       __ct__Q215NrvTreasureSpot18TreasureSpotNrvEndFv
 0002:80325E50       __ct__Q215NrvTreasureSpot20TreasureSpotNrvSpoutFv
 0002:80325E60       execute__Q215NrvTreasureSpot20TreasureSpotNrvSpoutCFP5Spine
 0002:80325E70       execute__Q215NrvTreasureSpot18TreasureSpotNrvEndCFP5Spine
 0002:80325E80       execute__Q215NrvTreasureSpot19TreasureSpotNrvWaitCFP5Spine
 0002:80325EE0       init__13TsukidashikunFRC12JMapInfoIter
 0002:80325FD0       exeWait__13TsukidashikunFv
 0002:803262A0       j_connectToSceneCollisionMapObjStrongLight__2MRFP9LiveActor
 0002:80326EA0       __ct__9UFOKinokoFPCc
 0002:80326EE0       init__9UFOKinokoFRC12JMapInfoIter
 0002:80327070       Functor<9UFOKinoko>__2MRFP9UFOKinokoM9UFOKinokoFPCvPv_v_Q22MR43FunctorV0M<P9UFOKinoko,M9UFOKinokoFPCvPv_v>
 0002:803270B0       control__9UFOKinokoFv
 0002:803270F0       initCaseUseSwitchB__9UFOKinokoFRC19MapObjActorInitInfo
 0002:80327150       initCaseNoUseSwitchB__9UFOKinokoFRC19MapObjActorInitInfo
 0002:80327160       startMove__9UFOKinokoFv
 0002:80327350       __dt__9UFOKinokoFv
 0002:80327A40       getWarpPodManager__2MRFv
 0002:80327A80       __ct__10WarpPodMgrFPCc
 0002:80327B10       getPairPod__10WarpPodMgrFPC9LiveActor
 0002:80327BD0       startEventCamera__10WarpPodMgrFPC9LiveActor
 0002:80327C10       endEventCamera__10WarpPodMgrFv
 0002:80327CC0       draw__10WarpPodMgrCFv
 0002:80327CD0       init__7WarpPodFRC12JMapInfoIter
 0002:803280C0       glowEffect__7WarpPodFv
 0002:80328140       initPair__7WarpPodFv
 0002:80328600       startEventCamera__7WarpPodCFv
 0002:80328640       endEventCamera__7WarpPodFv
 0002:80328790       initDraw__7WarpPodFv
 0002:80328C70       __dt__10WarpPodMgrFv
 0002:80328CD0       __dt__7WarpPodFv
 0002:8032DB10       __ct__19YoshiBlockCollisionFv
 0002:8032DB70       init__19YoshiBlockCollisionFRC12JMapInfoIter
 0002:8032EAC0       nullsub_144
 0002:8032ED10       __dt__19YoshiBlockCollision
 0002:8032EDD0       nullsub_145
 0002:8032EDE0       __ct__12YoshiCaptureFPCc
 0002:8032EE50       init__12YoshiCaptureFRC12JMapInfoIter
 0002:8032EF40       initAfterPlaceent__12YoshiCaptureFv
 0002:8032F010       appear__12YoshiCaptureFv
 0002:8032F050       j_kill__9LiveActorFv_2
 0002:8032F190       control__12YoshiCaptureFv
 0002:8032F620       __dt__12YoshiCaptureFv
 0002:8032F840       nullsub_208
 0002:8032F850       nullsub_209
 0002:8032FF80       nullsub_97
 0002:80332A80       __ct__16MapPartsFunctionFP9LiveActorPCc
 0002:80332BC0       initNerve__16MapPartsFunctionFPC5Nerve
 0002:80333400       nullsub_98
 0002:80333410       nullsub_99
 0002:80333420       __ct__23MapPartsRailGuideHolderFv
 0002:80333470       init__23MapPartsRailGuideHolderFRC12JMapInfoIter
 0002:803335B0       __dt__23MapPartsRailGuideHolderFv
 0002:80333610       __ct__22MapPartsRailGuidePointFPC9LiveActorPCcfb
 0002:803336B0       __ct__22MapPartsRailGuidePointFPC9LiveActorPCcib
 0002:80333750       init__22MapPartsRailGuidePointFRC12JMapInfoIter
 0002:803337D0       __dt__22MapPartsRailGuidePointFv
 0002:80336430       __ct__15MapPartsRotatorFP9LiveActor
 0002:80336500       init__15MapPartsRotatorFRC12JMapInfoIter
 0002:80336760       updateBaseHostMtx__15MapPartsRotatorFv
 0002:80339610       __ct__7NameObjFPCc
 0002:80339680       __dt__7NameObjFv
 0002:803396C0       init__7NameObjFRC12JMapInfoIter
 0002:803396D0       initAfterPlacement__7NameObjFv
 0002:803396E0       movement__7NameObjFv
 0002:803396F0       draw__7NameObjCFv
 0002:80339700       calcAnim__7NameObjFv
 0002:80339710       calcViewAndEntry__7NameObjFv
 0002:80339720       initWithoutIter__7NameObjFv
 0002:80339760       setName__7NameObjFPCc
 0002:80339780       executeMovement__7NameObjFv
 0002:803397A0       nullsub_118
 0002:803397B0       requestSuspend__7NameObjFv
 0002:803397E0       requestResume__7NameObjFv
 0002:80339810       syncWithFlags__7NameObjFv
 0002:80339860       requestMovementOn__15NameObjFunctionFP7NameObj
 0002:803398B0       requestMovementOff__15NameObjFunctionFP7NameObj
 0002:80339900       __ct__14NameObjAdaptorFPCc
 0002:80339950       __dt__14NameObjAdaptorFv
 0002:803399E0       movement__14NameObjAdaptorFv
 0002:80339A00       calcAnim__14NameObjAdaptorFv
 0002:80339A20       calcViewAndEntry__14NameObjAdaptorFv
 0002:80339A40       draw__14NameObjAdaptorCFv
 0002:80339A60       connectToMovement__14NameObjAdaptorFRCQ22MR11FunctorBase
 0002:80339AB0       connectToCalcAnim__14NameObjAdaptorFRCQ22MR11FunctorBase
 0002:80339B00       connectToDraw__14NameObjAdaptorFRCQ22MR11FunctorBase
 0002:80339CD0       __dt__19NameObjCategoryListFv
 0002:8033A120       __cl__Q233@unnamed@NameObjCategoryList_cpp@40NameObjRealDelegator<M7NameObjFPCvPCv_v>FP7NameObj
 0002:8033A1F0       __ct__18NameObjExecuteInfoFv
 0002:8033A220       setConnectInfo__18NameObjExecuteInfoFP7NameObjiiii
 0002:8033A300       initConnectting__18NameObjExecuteInfoFv
 0002:8033A380       requestConnect__18NameObjExecuteInfoFPUc
 0002:8033A3E0       requestDisconnect__18NameObjExecuteInfoFPUcb
 0002:8033A450       executeRequirementConnectMovement__18NameObjExecuteInfoFv
 0002:8033A470       executeRequirementDisconnectMovement__18NameObjExecuteInfoFv
 0002:8033A490       executeRequirementConnectDraw__18NameObjExecuteInfoFv
 0002:8033A4D0       executeRequirementDisconnectDrawDelay__18NameObjExecuteInfoFv
 0002:8033A4F0       requestMovementOn__18NameObjExecuteInfoFi
 0002:8033A580       connectToScene__18NameObjExecuteInfoFv
 0002:8033A600       disconnectToScene__18NameObjExecuteInfoFv
 0002:8033A680       connectToDraw__18NameObjExecuteInfoFv
 0002:8033A700       disconnectToDraw__18NameObjExecuteInfoFv
 0002:8033A780       __ct__20NameObjExecuteHolderFi
 0002:8033A820       registerActor__20NameObjExecuteHolderFP7NameObjiiii
 0002:8033A880       initConnectting__20NameObjExecuteHolderFv
 0002:8033A8E0       connectToScene__20NameObjExecuteHolderFP7NameObj
 0002:8033A930       connectToDraw__20NameObjExecuteHolderFP7NameObj
 0002:8033A980       disconnectToScene__20NameObjExecuteHolderFP7NameObj
 0002:8033A9D0       disconnectToDraw__20NameObjExecuteHolderFP7NameObj
 0002:8033AA20       isConnectToDraw__20NameObjExecuteHolderCFPC7NameObj
 0002:8033AA60       executeRequirementConnectMovement__20NameObjExecuteHolderFv
 0002:8033AAD0       executeRequirementDisconnectMovement__20NameObjExecuteHolderFv
 0002:8033AB40       executeRequirementConnectDraw__20NameObjExecuteHolderFv
 0002:8033AD70       getConnectToSceneInfo__20NameObjExecuteHolderCFPC7NameObj
 0002:8033ADA0       registerNameObjToExecuteHolder__2MRFP7NameObjiiii
 0002:8033AE40       connectToSceneTemporarily__2MRFP7NameObj
 0002:8033AE80       disconnectToSceneTemporarily__2MRFP7NameObj
 0002:8033AEC0       connectToDrawTemporarily__2MRFP7NameObj
 0002:8033AF00       disconnectToDrawTemporarily__2MRFP7NameObj
 0002:8033AF80       executeRequirementConnectMovement__2MRFv
 0002:8033B130       __dt__20NameObjExecuteHolderFv
 0002:8033BC40       createNameObj<11CollectTico>__28@unnamed@NameObjFactory_cpp@FPCc_P7NameObj
 0002:8033C2C0       createNameObj<9SignBoard>__28@unnamed@NameObjFactory_cpp@FPCc_P7NameObj
 0002:8033C9F0       createNameObj<8BasaBasa>__28@unnamed@NameObjFactory_cpp@FPCc_P7NameObj
 0002:8033CBF0       createNameObj<7BombHei>__28@unnamed@NameObjFactory_cpp@FPCc_P7NameObj
 0002:8033CE30       createNameObj<6Dossun>__28@unnamed@NameObjFactory_cpp@FPCc_P7NameObj
 0002:8033EE70       createNameObj<7CocoNut>__28@unnamed@NameObjFactory_cpp@FPCc_P7NameObj
 0002:8033F5B0       createNameObj<10LavaGeyser>__28@unnamed@NameObjFactory_cpp@FPCc_P7NameObj
 0002:8033FB30       createNameObj<9PowerStar>__28@unnamed@NameObjFactory_cpp@FPCc_P7NameObj
 0002:80340290       createNameObj<11CrystalCage>__28@unnamed@NameObjFactory_cpp@FPCc_P7NameObj
 0002:80341A90       createNameObj<9UFOKinoko>__28@unnamed@NameObjFactory_cpp@FPCc_P7NameObj
 0002:80341AD0       createNameObj<3Sky>__28@unnamed@NameObjFactory_cpp@FPCc_P7NameObj
 0002:80342770       createNameObj<9DashFruit>__28@unnamed@NameObjFactory_cpp@FPCc_P7NameObj
 0002:803427D0       createNameObj<10YoshiFruit>__28@unnamed@NameObjFactory_cpp@FPCc_P7NameObj
 0002:80342830       createNameObj<13YoshiFruitBig>__28@unnamed@NameObjFactory_cpp@FPCc_P7NameObj
 0002:80342990       createNameObj<15ScenarioStarter>__28@unnamed@NameObjFactory_cpp@FPCc_P7NameObj
 0002:803429D0       createNameObj<12FileSelector>__28@unnamed@NameObjFactory_cpp@FPCc_P7NameObj
 0002:80342B50       createNameObj<18SwitchSynchronizer>__28@unnamed@NameObjFactory_cpp@FPCc_P7NameObj
 0002:80342F50       getCreator__14NameObjFactoryFPCc
 0002:803431F0       find__13NameObjFinderFPCc
 0002:80343210       __ct__12NameObjGroupFPCci
 0002:80343280       __dt__12NameObjGroupFv
 0002:803432F0       registerObj__12NameObjGroupFP7NameObj
 0002:803433D0       initObjArray__12NameObjGroupFi
 0002:80343440       __ct__13NameObjHolderFi
 0002:803434A0       add__13NameObjHolderFP7NameObj
 0002:803434C0       suspendAllObj__13NameObjHolderFv
 0002:80343520       resumeAllObj__13NameObjHolderFv
 0002:80343580       syncWithFlags__13NameObjHolderFv
 0002:803435C0       callMethodAllObj__13NameObjHolderFM7NameObjFPCvPv_v
 0002:80343640       clearArray__13NameObjHolderFv
 0002:80343650       find__13NameObjHolderFPCc
 0002:803437D0       find_if<PP7NameObj,Q227@unnamed@NameObjHolder_cpp@14equal_fullname>__3stdFPP7NameObjPP7NameObjQ227@unnamed@NameObjHolder_cpp@14equal_fullname_PP7NameObj
 0002:80343840       insert__Q22MR39Vector<Q22MR24FixedArray<P7NameObj,16>>FPP7NameObjRCP7NameObj
 0002:80343880       __ct__19NameObjListExecutorFv
 0002:803438B0       __dt__19NameObjListExecutorFv
 0002:80343970       __dt__Q22MR50Vector<Q22MR35AssignableArray<P15DrawBufferGroup>>Fv
 0002:803439D0       init__19NameObjListExecutorFv
 0002:80343B70       removeToDrawBuffer__19NameObjListExecutorFP9LiveActorii
 0002:80343B80       removeToDraw__19NameObjListExecutorFP7NameObji
 0002:80343E20       setCurrentHolder__15NameObjRegisterFP13NameObjHolder
 0002:80343E30       add__15NameObjRegisterFP7NameObj
 0002:80343E40       __ct__15NameObjRegisterFv
 0002:80343EA0       __dt__8NPCActorFv
 0002:80344F20       j_control__8NPCActorFv
 0002:80347C70       __ct__11CollectTicoFPCc
 0002:80347CD0       init__11CollectTicoFRC12JMapInfoIter
 0002:80347E90       exeWait__11CollectTicoFv
 0002:80348140       exeFlash__11CollectTicoFv
 0002:80348250       exeAppearPowerStar__11CollectTicoFv
 0002:80348330       calcNoRescuedCount__11CollectTicoCFv
 0002:8034A860       __ct__14LuigiFootprintFP9LiveActor
 0002:8034B738       def_8034B6D4
 0002:8034CAEC       def_8034C914
 0002:80351700       nullsub_33
 0002:80353FCC       def_80353EBC
 0002:80354128       def_80354020
 0002:80354E60       drawOpa__12MiiFacePartsCFPC18RFLDrawCoreSetting
 0002:80354E90       drawXlu__12MiiFacePartsCFPC18RFLDrawCoreSetting
 0002:803550E0       __dt__18MiiFacePartsHolderFv
 0002:80355180       init__18MiiFacePartsHolderFRC12JMapInfoIter
 0002:80355290       calcAnim__18MiiFacePartsHolderFv
 0002:80355330       calcViewAndEntry__18MiiFacePartsHolderFv
 0002:803553B0       j_drawExtra__18MiiFacePartsHolderCFv
 0002:80355640       drawEachActor__18MiiFacePartsHolderCFM12MiiFacePartsFPCvPCvPC18RFLDrawCoreSetting_vPC18RFLDrawCoreSetting
 0002:803556C0       drawExtra__18MiiFacePartsHolderCFv
 0002:80355800       setTevOpa__18MiiFacePartsHolderCFv
 0002:80355A00       setTevXlu__18MiiFacePartsHolderCFv
 0002:80355BD0       __cl__Q22MR39FunctorV0M<P7NameObj,M7NameObjFPCvPv_v>CFv
 0002:80355C00       clone__Q22MR39FunctorV0M<P7NameObj,M7NameObjFPCvPv_v>CFP7JKRHeap
 0002:80355D20       __ct__13MiiFaceRecipeF13RFLDataSourcei13RFLResolutionUl
 0002:80355D40       setDatabase__13MiiFaceRecipeFP11RFLMiddleDB
 0002:80355D50       hasExpression__13MiiFaceRecipeCF13RFLExpression
 0002:80355D70       getModelBufferSize__13MiiFaceRecipeCFv
 0002:80355D80       initFaceModel__13MiiFaceRecipeCFP12RFLCharModelPv
 0002:80355DB0       makeIcon__13MiiFaceRecipeCFPvii8_GXColor
 0002:80357F40       def_80357DF8
 0002:8035BA00       declareStar__20PowerStarEventKeeperFPCcPCcl
 0002:8035BC70       requestAppearPowerStar__20PowerStarEventKeeperFPCclPCQ29JGeometry8TVec3<f>bb
 0002:8035BD20       findStarID__20PowerStarEventKeeperCFPCc
 0002:8035EC70       __ct__9SignBoardFPCc
 0002:8035ECC0       init__9SignBoardFRC12JMapInfoIter
 0002:8035EEC0       kill__9SignBoardFv
 0002:8035EF00       makeActorDead__9SignBoardFv
 0002:8035F080       __dt__9SignBoardFv
 0002:8035F620       __ct__9StrayTicoFPCcP11CollectTico
 0002:8035F6D0       init__9StrayTicoFRC12JMapInfoIter
 0002:8035F8A0       initSensor__9StrayTicoFv
 0002:8035F950       initShadow__9StrayTicoFv
 0002:8035F9D0       appear__9StrayTicoFv
 0002:8035FA10       control__9StrayTicoFv
 0002:8035FAD0       calcAndSetBaseMtx__9StrayTicoFv
 0002:8035FAE0       startGlad__9StrayTicoFv
 0002:8035FB70       attackSensor__9StrayTicoFP9HitSensorP9HitSensor
 0002:8035FC10       updateWarp__9StrayTicoFv
 0002:8035FCB0       updateChase__9StrayTicoFv
 0002:80360260       requestCompleteDemo__9StrayTicoFRCQ29JGeometry8TVec3<f>RCQ29JGeometry8TVec3<f>f
 0002:80360380       exeWait__9StrayTicoFv
 0002:80360400       exeGlad__9StrayTicoFv
 0002:80360500       exeChase__9StrayTicoFv
 0002:803609B0       isRescued__9StrayTicoCFv
 0002:80360A70       noticeEnd__9StrayTicoFv
 0002:80360AB0       __dt__9StrayTicoFv
 0002:80360B10       __sinit_\StrayTico_cpp
 0002:80361450       j_control__8NPCActorFv_0
 0002:803689D0       j_control__8NPCActorFv_1
 0002:80371F20       __ct__27CometEventExecutorTimeLimitFUl
 0002:80371F80       init__27CometEventExecutorTimeLimitFRC12JMapInfoIter
 0002:80372240       nullsub_163
 0002:80372250       __dt__27CometEventExecutorTimeLimitFv
 0002:80372680       nullsub_151
 0002:80372690       nullsub_152
 0002:803726A0       nullsub_153
 0002:80372800       __ct__16CometEventKeeperFv
 0002:80372820       init__16CometEventKeeperFv
 0002:80372980       isStartEvent__16CometEventKeeperCFPCc
 0002:80372B40       initCometStatus__16CometEventKeeperFv
 0002:80372B90       __ct__13EventDirectorFv
 0002:80372BF0       init__13EventDirectorFRC12JMapInfoIter
 0002:80372C70       getPowerStarHolder__13EventFunctionFv
 0002:80372DE0       declareEventPowerStar__2MRFPC7NameObjl
 0002:80372E40       declareEventPowerStar__2MRFPCcl
 0002:80372FE0       appearEventPowerStar__2MRFPCclPCQ29JGeometry8TVec3<f>bbl
 0002:80373050       isEndEventPowerStarAppearDemo__2MRFPCc
 0002:80373220       __dt__13EventDirectorFv
 0002:803732E0       __ct__12NPCActorCapsFPCc
 0002:80373420       setDefault__12NPCActorCapsFv
 0002:80373480       __ct__8NPCActorFPCc
 0002:803737B0       init__8NPCActorFRC12JMapInfoIter
 0002:803737C0       initAfterPlacement__8NPCActorFv
 0002:80373840       initialize__8NPCActorFRC12JMapInfoIterRC12NPCActorCaps
 0002:80373FB0       calcAndSetBaseMtx__8NPCActorFv
 0002:803740A0       makeActorAppeared__8NPCActorFv
 0002:80374120       makeActorDead__8NPCActorFv
 0002:803741A0       kill__8NPCActorFv
 0002:803741F0       control__8NPCActorFv
 0002:80374850       attackSensor__8NPCActorFP9HitSensorP9HitSensor
 0002:80374E00       isPointingSe__8NPCActorCFv
 0002:80374E30       updateReaction__8NPCActorFv
 0002:80375380       nullsub_164
 0002:803774B0       __ct__11TalkBalloonFPCc
 0002:80377510       create__11TalkBalloonFPCcbb
 0002:803775C0       init__11TalkBalloonFRC12JMapInfoIter
 0002:803775D0       kill__11TalkBalloonFv
 0002:80377610       open__11TalkBalloonFP15TalkMessageCtrl
 0002:803776B0       close__11TalkBalloonFv
 0002:803776C0       updateBalloon__11TalkBalloonFv
 0002:80377950       updateTalking__11TalkBalloonFv
 0002:803779D0       isTextAppearedAll__11TalkBalloonFv
 0002:803779E0       turnPage__11TalkBalloonFv
 0002:803779F0       hasNextPage__11TalkBalloonFv
 0002:80377A00       skipMessage__11TalkBalloonFv
 0002:80377A10       pauseOff__11TalkBalloonFv
 0002:80377A20       __ct__16TalkBalloonShortFPCc
 0002:80377A70       __dt__11TalkBalloonFv
 0002:80377AD0       init__16TalkBalloonShortFRC12JMapInfoIter
 0002:80377AF0       open__16TalkBalloonShortFP15TalkMessageCtrl
 0002:80377BE0       close__16TalkBalloonShortFv
 0002:80377C20       updateBalloon__16TalkBalloonShortFv
 0002:80377CA0       __ct__16TalkBalloonEventFPCc
 0002:80377D00       init__16TalkBalloonEventFRC12JMapInfoIter
 0002:80377D50       open__16TalkBalloonEventFP15TalkMessageCtrl
 0002:80377E00       close__16TalkBalloonEventFv
 0002:80377FF0       turnPage__16TalkBalloonEventFv
 0002:80378070       skipMessage__16TalkBalloonEventFv
 0002:803780B0       isTextAppearedAll__16TalkBalloonEventFv
 0002:803782F0       __ct__15TalkBalloonSignFPCc
 0002:80378340       __dt__16TalkBalloonEventFv
 0002:803783A0       init__15TalkBalloonSignFRC12JMapInfoIter
 0002:803783F0       turnPage__16TalkBalloonEventFv_0
 0002:80378500       __ct__15TalkBalloonIconFPCc
 0002:80378540       __dt__16TalkBalloonShortFv
 0002:803785A0       init__15TalkBalloonIconFRC12JMapInfoIter
 0002:803785C0       open__15TalkBalloonIconFP15TalkMessageCtrl
 0002:80378640       __ct__17TalkBalloonHolderFv
 0002:803787C0       getBalloon__17TalkBalloonHolderFPC15TalkMessageCtrl
 0002:803788D0       pauseOff__17TalkBalloonHolderFv
 0002:80378980       update__17TalkBalloonHolderFv
 0002:80378990       isActiveBalloonShort__17TalkBalloonHolderCFv
 0002:80378A00       __dt__15TalkBalloonSignFv
 0002:80378A60       __dt__15TalkBalloonIconFv
 0002:80378AC0       __sinit_\TalkBalloon_cpp
 0002:80378D20       __ct__9TalkPeekZFv
 0002:80378F00       __ct__12TalkDirectorFPCc
 0002:80378F90       init__12TalkDirectorFRC12JMapInfoIter
 0002:8037A900       getMessageID__15TalkMessageCtrlCFv
 0002:8037A9D0       updateBalloonPos__15TalkMessageCtrlFv
 0002:8037AE00       startCamera__15TalkMessageCtrlFl
 0002:8037B134       def_8037B034
 0002:8037B388       def_8037B298
 0002:8037B720       def_8037B690
 0002:8037B760       isSelectTalk__12TalkFunctionFPC15TalkMessageCtrl
 0002:8037B780       isEventNode__12TalkFunctionFPC15TalkMessageCtrl
 0002:8037B790       onTalkStateNone__12TalkFunctionFP15TalkMessageCtrl
 0002:8037B7F0       getMessageInfo__12TalkFunctionFPC15TalkMessageCtrl
 0002:8037B800       getMessage__12TalkFunctionFPC15TalkMessageCtrl
 0002:8037B870       __ct__15TalkMessageInfoFv
 0002:8037B8A0       isNormalTalk__15TalkMessageInfoCFv
 0002:8037B8B0       isShortTalk__15TalkMessageInfoCFv
 0002:8037B8D0       isEventTalk__15TalkMessageInfoCFv
 0002:8037B910       isComposeTalk__15TalkMessageInfoCFv
 0002:8037B930       isBalloonCall__15TalkMessageInfoCFv
 0002:8037B950       isBalloonFix__15TalkMessageInfoCFv
 0002:8037B970       isBalloonSign__15TalkMessageInfoCFv
 0002:8037B990       isCameraNormal__15TalkMessageInfoCFv
 0002:8037B9A0       isCameraEvent__15TalkMessageInfoCFv
 0002:8037BA00       entry__18TalkMessageHistoryFUs
 0002:8037BA20       search__18TalkMessageHistoryCFUs
 0002:8037BA60       __ct__12TalkNodeCtrlFv
 0002:8037C230       getCurrentNodeMessage__12TalkNodeCtrlCFv
 0002:8037C500       init__9TalkStateFP15TalkMessageCtrlP11TalkBalloon
 0002:8037C6D0       test__14TalkStateEventFv
 0002:8037C6E0       open__14TalkStateEventFv
 0002:8037C780       prep__14TalkStateEventFPC15TalkMessageCtrl
 0002:8037C7B0       talk__14TalkStateEventFPC15TalkMessageCtrl
 0002:8037C970       clos__14TalkStateEventFv
 0002:8037C9C0       term__14TalkStateEventFPC15TalkMessageCtrl
 0002:8037CE90       __ct__15TalkStateHolderFv
 0002:8037CFB0       __ct__9TalkStateFv
 0002:8037CFD0       __ct__14TalkStateEventFv
 0002:8037D0E0       getPageCount__14TalkStateEventCFv
 0002:8037D0F0       getPageCount__9TalkStateCFv
 0002:8037D100       __ct__24TalkSupportPlayerWatcherFv
 0002:8037D200       isEnableTalkPlayerStateEvent__24TalkSupportPlayerWatcherCFv
 0002:8037D2E0       getTextBoxPane__28@unnamed@TalkTextFormer_cpp@FP11LayoutActorPCc
 0002:8037D350       initTagProcessorRecursive__2MRFP11LayoutActorPCcl
 0002:8037D4A0       nextStepTagProcessorRecursive__2MRFP11LayoutActorPCc
 0002:8037D570       isEndStepTagProcessorRecursive__2MRFPC11LayoutActorPCcb
 0002:8037D690       __ct__14TalkTextFormerFP11LayoutActorPCc
 0002:8037D6B0       formMessage__14TalkTextFormerFPCwl
 0002:8037D710       setArg__14TalkTextFormerFRC12CustomTagArgl
 0002:8037D790       nextPage__14TalkTextFormerFv
 0002:8037D7F0       hasNextPage__14TalkTextFormerCFv
 0002:8037D830       updateTalking__14TalkTextFormerFv
 0002:8037D840       isTextAppearedAll__14TalkTextFormerCFv
 0002:8037E310       __ct__11DrawAdaptorFRCQ22MR11FunctorBasei
 0002:8037E3A0       draw__11DrawAdaptorCFv
 0002:8037E3C0       __dt__11DrawAdaptorFv
 0002:8037E420       __ct__13FireMarioBallFPCc
 0002:8037E470       init__13FireMarioBallFRC12JMapInfoIter
 0002:8037E570       appear__13FireMarioBallFv
 0002:8037E5C0       kill__13FireMarioBallFv
 0002:8037E620       appearAndThrow__13FireMarioBallFRCQ29JGeometry8TVec3<f>RCQ29JGeometry8TVec3<f>
 0002:8037E6D0       attackSensor__13FireMarioBallFP9HitSensorP9HitSensor
 0002:8037E720       attackFire__13FireMarioBallFP9HitSensor
 0002:8037E7B0       initSensor__13FireMarioBallFv
 0002:8037E810       isBindedAny__13FireMarioBallCFv
 0002:8037E890       tryToKill__13FireMarioBallFv
 0002:8037E9B0       exeThrow__13FireMarioBallFv
 0002:8037EBC0       __dt__13FireMarioBallFv
 0002:80380A60       __ct__12GroupCheckerFPCcUl
 0002:80380AD0       initAfterPlacement__12GroupCheckerFv
 0002:80380AE0       add__12GroupCheckerFPC7NameObj
 0002:80380B30       __ct__17GroupCheckManagerFPCc
 0002:80380BC0       add__17GroupCheckManagerFPC7NameObjl
 0002:80380BD0       isExist__17GroupCheckManagerFPC7NameObjl
 0002:80380BF0       __dt__12GroupCheckerFv
 0002:80380C50       __dt__17GroupCheckManagerFv
 0002:80381140       playSound__11GhostPlayerFP9LiveActorPCc
 0002:80381930       nullsub_100
 0002:8038C940       getGravityVec__5MarioCFv
 0002:80392A00       getWallNorm__5MarioCFv
 0002:80392C50       getGroundPolygon__5MarioCFv
 0002:80393764       def_803934B0
 0002:80393B00       def_80393ADC
 0002:8039D540       nullsub_16
 0002:803A06C0       def_803A0608
 0002:803A9390       playSoundJ__5MarioFPCcl
 0002:803A9540       stopSoundJ__5MarioFPCcUl
 0002:803AABD0       isStatusActive__5MarioCFUl
 0002:803B4C40       isInRush__11MarioAccessFv
 0002:803B5C90       addStarPiece__11MarioAccessFv
 0002:803B5D30       getStarPieceDirect__11MarioAccessFv
 0002:803B6FA0       def_803B6DE8
 0002:803B7310       getPlayerActor__11MarioAccessFv
 0002:803B8DF0       getGravityLevel__10MarioActorCFv
 0002:803BAE60       isEnableNerveChange__10MarioActorCFv
 0002:803BC40C       def_803BC344
 0002:803BCE70       getFloorMaterialIndex__10MarioActorCFUl
 0002:803BD054       def_803BCFD8
 0002:803BD100       setGlobalScale__12MultiEmitterFfl
 0002:803BDDE8       def_803BDCFC
 0002:803BFEC0       initDrawAndModel__10MarioActorFv
 0002:803C02E0       Functor<10MarioActor>__2MRFPC10MarioActorM10MarioActorFPCvPCv_v_Q22MR49FunctorV0M<PC10MarioActor,M10MarioActorFPCvPCv_v>
 0002:803C3E34       def_803C3E10
 0002:803C40CC       def_803C4084
 0002:803C6FF0       def_803C6E74
 0002:803C7E0C       def_803C761C
 0002:803C84B0       initIceMario__10MarioActorFv
 0002:803C8F30       updateFace__10MarioActorFv
 0002:803C9D70       updateHand__10MarioActorFv
 0002:803CB4EC       def_803CB324
 0002:803CBA78       def_803CB594
 0002:803D6904       def_803D68D4
 0002:803D6B50       playCommonEffect__10MarioActorFPCc
 0002:803DC9D0       __ct__13MarioAnimatorFP10MarioActor
 0002:803DCC90       change__13MarioAnimatorFPCc
 0002:803DCF00       changeDefault__13MarioAnimatorFPCc
 0002:803E7CC0       addRequest__11MarioEffectFPCcPA4_f
 0002:803E7F70       __ct__11MarioEffectFP10MarioActor
 0002:803EDFD0       getMarioActor__11MarioHolderCFv
 0002:803EDFE0       getMarioHolder__2MRFv
 0002:803EE520       nullsub_32
 0002:803EE740       getPlayer__11MarioModuleCFv
 0002:803EE750       getPlayerMode__11MarioModuleCFv
 0002:803EE880       changeAnimation__11MarioModuleFPCcPCc
 0002:803EEA60       isAnimationRun__11MarioModuleCFPCc
 0002:803EF320       clearVelocity__11MarioModuleFv
 0002:803EF3F0       getTrans__11MarioModuleCFv
 0002:803EF490       playSound__11MarioModuleFPCcl
 0002:803EF4A0       stopSound__11MarioModuleFPCcUl
 0002:803EF5C0       getGravityVec__11MarioModuleCFv
 0002:803EF718       def_803EF6D4
 0002:803EF7B0       def_803EF79C
 0002:803EFA10       j_acosEx__2MRFf
 0002:803F2380       __ct__15CollisionShadowFff
 0002:80408000       calcAxis__9MarioWarpFv
 0002:80408220       updateJump__9MarioWarpFv
 0002:804086C0       update__9MarioWarpFv
 0002:804092C0       __ct__17MatrixValueGetterFPCcP16MatrixValueTable
 0002:80409410       __dt__17MatrixValueGetterFv
 0002:80409470       __ct__11ModelHolderFPCcb
 0002:80409770       __ct__14EventSequencerFv
 0002:80409E80       nullsub_165
 0002:80409E90       nullsub_166
 0002:804160E0       init__8YoshiEggFRC12JMapInfoIter
 0002:804164B0       initAfterPlacement__8YoshiEggFv
 0002:80416FC0       j_makeActorDead__9LiveActorFv_5
 0002:80417020       j_makeActorDead__9LiveActorFv_6
 0002:80417030       nullsub_201
 0002:804175E0       __dt__8YoshiEggFv
 0002:80423F00       __as__Q213JASOscillator5PointFRCQ213JASOscillator5Point
 0002:8043CDE0       j_showModel__2MRFP9LiveActor
 0002:8043CDF0       j_hideModel__2MRFP9LiveActor
 0002:80443560       __ct__14SwingRopeGroupFPCc
 0002:80451FC0       initEffect__9GameSceneFv
 0002:804530F0       j_updateNerve__13NerveExecutorFv_1
 0002:80454D80       __ct__15MultiSceneActorFPCcPCcib
 0002:80455030       initEffect__15MultiSceneActorFP12EffectSystemiPCc
 0002:80455190       startBtk__10MultiSceneFP15MultiSceneActorPCc
 0002:80456830       __ct__21PlacementStateCheckerFPCc
 0002:80456880       setCurrentPlacementZoneId__21PlacementStateCheckerFi
 0002:80456890       clearCurrentPlacementZoneId__21PlacementStateCheckerFv
 0002:804568A0       getCurrentPlacementZoneId__21PlacementStateCheckerCFv
 0002:804568B0       getPlacementStateChecker__2MRFv
 0002:804568E0       __dt__21PlacementStateCheckerFv
 0002:80456940       createDrawBuffer__33@unnamed@ScenarioSelectScene_cpp@Fv
 0002:804569F0       __ct__14PlayTimerSceneFv
 0002:80456A60       init__19ScenarioSelectSceneFv
 0002:80456D60       start__19ScenarioSelectSceneFv
 0002:80456D80       startBackground__19ScenarioSelectSceneFv
 0002:80456DC0       update__19ScenarioSelectSceneFv
 0002:80456E60       calcAnim__19ScenarioSelectSceneFv
 0002:80456F00       calcViewAndEntry__19ScenarioSelectSceneFv
 0002:80456FA0       draw__19ScenarioSelectSceneCFv
 0002:804570F0       isExecForeground__19ScenarioSelectSceneCFv
 0002:80457160       j_isExecForeground__19ScenarioSelectSceneCFv
 0002:80457290       setupCameraMtx__19ScenarioSelectSceneCFv
 0002:804572E0       trySetCurrentScenarioNo__19ScenarioSelectSceneCFv
 0002:80457380       suspend__19ScenarioSelectSceneFv
 0002:80457410       tryStartScreenToFrame__19ScenarioSelectSceneFv
 0002:80457460       exeDeactive__19ScenarioSelectSceneFv
 0002:804574C0       exeStartScenarioSelect__19ScenarioSelectSceneFv
 0002:80457540       exeWaitScenarioSelect__19ScenarioSelectSceneFv
 0002:80457790       __dt__19ScenarioSelectSceneFv
 0002:80457990       nullsub_196
 0002:804579A4       j_exeDeactive__19ScenarioSelectSceneFv
 0002:804579B0       __ct__5SceneFPCc
 0002:80457A00       __dt__5SceneFv
 0002:80457AA0       init__5SceneFv
 0002:80457AB0       start__5SceneFv
 0002:80457AC0       update__5SceneFv
 0002:80457AD0       draw__5SceneCFv
 0002:80457AE0       calcAnim__5SceneFv
 0002:80457AF0       initNameObjListExecutor__5SceneFv
 0002:80457B90       __ct__20SceneDataInitializerFv
 0002:80457BE0       startStageFileLoad__20SceneDataInitializerFv
 0002:80457CF0       initAfterScenarioSelected__20SceneDataInitializerFv
 0002:80457D00       __dt__20SceneDataInitializerFv
 0002:80458A50       createScene__2MRFPCc
 0002:80458AE0       startStageFileLoad__13SceneFunctionFv
 0002:80458C40       initForNameObj__13SceneFunctionFv
 0002:80458C80       initForLiveActor__13SceneFunctionFv
 0002:80459000       nullsub_36
 0002:80459350       __ct__21StopSceneStateControlFv
 0002:80459700       __ct__30SceneNameObjMovementControllerFv
 0002:80459820       notifyRequestNameObjMovementOnOff__2MRFv
 0002:80459A00       getObj__14SceneObjHolderCFi
 0002:80459A10       isExist__14SceneObjHolderCFi
 0002:80459A30       newEachObj__14SceneObjHolderFi
 0002:8045A918       def_80459A64
 0002:8045A930       createSceneObj__2MRFi
 0002:8045A970       getSceneObjHolder__2MRFv
 0002:8045A980       isExistSceneObj__2MRFi
 0002:8045B2F0       initLayerJmpInfo__15StageDataHolderFPQ22MR26AssignableArray<8JMapInfo>PCcPCcUl
 0002:8045B5F0       __ct__15StageDataHolderFPCcib
 0002:8045B6F0       init__15StageDataHolderFRC12JMapInfoIter
 0002:8045B7A0       initAfterScenarioSelected__15StageDataHolderFv
 0002:8045B940       getCommonPathPointInfo__15StageDataHolderCFPPC8JMapInfoi
 0002:8045B9C0       getCommonPathPointInfoFromRailDataIndex__15StageDataHolderCFPPC8JMapInfoi
 0002:8045BA50       getCommonPathInfoElementNum__15StageDataHolderCFv
 0002:8045BAA0       getStartPosNum__15StageDataHolderCFv
 0002:8045BB40       getCurrentStartZoneId__15StageDataHolderCFv
 0002:8045BB90       getCurrentStartCameraId__15StageDataHolderCFv
 0002:8045BBE0       getStartCameraIdInfoFromStartDataIndex__15StageDataHolderCFP10JMapIdInfoi
 0002:8045BC40       getGeneralPosNum__15StageDataHolderCFv
 0002:8045BCF0       getGeneralPosInfoFromDataIndex__15StageDataHolderCFi
 0002:8045BDF0       getChildObjNum__15StageDataHolderCFRC12JMapInfoIter
 0002:8045BEC0       getChildObjInfoFromDataIndex__15StageDataHolderCFRC12JMapInfoIteri
 0002:8045BFB0       findPlacedStageDataHolder__15StageDataHolderCFRC12JMapInfoIter
 0002:8045C060       getStageDataHolderFromZoneId__15StageDataHolderCFi
 0002:8045C0B0       getStageDataHolderFromZoneId__15StageDataHolderFi
 0002:8045C0C0       isPlacedZone__15StageDataHolderCFi
 0002:8045C110       getJapaneseObjectName__15StageDataHolderCFPCc
 0002:8045C2F0       initPlacementMario__15StageDataHolderFv
 0002:8045C370       makeMarioJMapInfoIter__15StageDataHolderCFRC10JMapIdInfo
 0002:8045C440       makeCurrentMarioJMapInfoIter__15StageDataHolderCFv
 0002:8045C5A0       initTableData__15StageDataHolderFv
 0002:8045C7E0       findJmpInfoFromArray__15StageDataHolderCFPCQ22MR26AssignableArray<8JMapInfo>PCc
 0002:8045C850       getStartJMapInfoIterFromStartDataIndex__15StageDataHolderCFi
 0002:8045C950       calcDataAddress__15StageDataHolderFv
 0002:8045C9C0       updateDataAddress__15StageDataHolderFPCQ22MR26AssignableArray<8JMapInfo>
 0002:8045CA20       createLocalStageDataHolder__15StageDataHolderFRCQ22MR26AssignableArray<8JMapInfo>b
 0002:8045CB60       calcPlacementMtx__15StageDataHolderFRC12JMapInfoIter
 0002:8045CC10       getStageDataHolder__2MRFv
 0002:8045CFF0       __ct__21StopSceneDelayRequestFv
 0002:8045D090       __ct__19StopSceneControllerFv
 0002:8045D150       requestStopScene__19StopSceneControllerFl
 0002:8045D180       requestStopSceneDelay__19StopSceneControllerFll
 0002:8045D1D0       movement__19StopSceneControllerFv
 0002:8045D1F0       isSceneStopped__19StopSceneControllerCFv
 0002:8045D270       __dt__19StopSceneControllerFv
 0002:8045EAD0       __ct__10BackButtonFPCcb
 0002:8045EE90       exeLowHide__11BatteryInfoFv
 0002:8045F760       __ct__11BloomEffectFPCc
 0002:804603B0       initBlurMtx__11BloomEffectCFPA3_A4_fUlff
 0002:80460980       nullsub_171
 0002:80460990       nullsub_170
 0002:804609A0       nullsub_169
 0002:804609B0       nullsub_168
 0002:804609C0       nullsub_167
 0002:80460A30       __ct__17BloomEffectSimpleFv
 0002:804614E0       __ct__20ButtonPaneControllerFP11LayoutActorPCcPCcUlb
 0002:80461600       update__20ButtonPaneControllerFv
 0002:80462390       __dt__20ButtonPaneControllerFv
 0002:80463230       getResTIMG__21CaptureScreenDirectorCFv
 0002:804632F0       __ct__18CaptureScreenActorFUlPCc
 0002:80463360       draw__18CaptureScreenActorCFv
 0002:804633D0       __dt__18CaptureScreenActorFv
 0002:804635D0       start__16CenterScreenBlurFlfUcll
 0002:80463950       tryScreenToFrame__11CinemaFrameFv
 0002:80463B50       tryFrameToScreen__11CinemaFrameFv
 0002:80463C50       forceToFrame__11CinemaFrameFv
 0002:80465360       j_updateNerve__13NerveExecutorFv_2
 0002:80465370       appear__21CounterLayoutAppearerFRCQ29JGeometry8TVec2<f>
 0002:804653E0       disappear__21CounterLayoutAppearerFv
 0002:804653F0       isAppeared__21CounterLayoutAppearerCFv
 0002:80465400       isDisappeared__21CounterLayoutAppearerCFv
 0002:80465A90       isWaitToDisappearCounter__23CounterLayoutControllerFPC11LayoutActor
 0002:80466360       update__18CountUpPaneRumblerFv
 0002:80466870       update__18CustomTagAlphaCtrlFv
 0002:80466900       isEnd__18CustomTagAlphaCtrlCFv
 0002:80466990       findGroupFunctionInfo__Q218CustomTagProcessor4ImplFi
 0002:80466A00       PrintImpl__Q34nw4r2ut17TextWriterBase<w>FPCwi
 0002:804678C0       GetCursorX__Q34nw4r2ut10CharWriterCFv
 0002:804679E0       GetCursorY__Q34nw4r2ut10CharWriterCFv
 0002:80468370       MoveCursorX__Q34nw4r2ut10CharWriterFf
 0002:804684B0       MoveCursorY__Q34nw4r2ut10CharWriterFf
 0002:80468720       __ct__Q34nw4r2ut17TextWriterBase<w>FRCQ34nw4r2ut17TextWriterBase<w>
 0002:80468A50       __dt__26MessageTagSkipTagProcessorFv
 0002:80469060       writeString__18CustomTagProcessorFPQ34nw4r2ut4RectPCwPQ34nw4r2ut15PrintContext<w>
 0002:8046C2C0       j_kill__11LayoutActorFv
 0002:8046CB80       appearWithMessage__18ErrorMessageWindowFPCcQ218ErrorMessageWindow11MessageTypePCQ34nw4r3lyt6TexMap
 0002:8046CC30       disappear__18ErrorMessageWindowFv
 0002:8046CC40       exeAppear__18ErrorMessageWindowFv
 0002:8046D130       j_kill__11LayoutActorFv_0
 0002:8046D820       __ct__14FileSelectInfoFlPCc
 0002:8046D8E0       init__14FileSelectInfoFRC12JMapInfoIter
 0002:8046D930       appear__14FileSelectInfoFv
 0002:8046D9E0       disappear__14FileSelectInfoFv
 0002:8046DB10       setInfo__14FileSelectInfoFPUslllbbbPCwPCwl
 0002:8046DBE0       exeAppear__14FileSelectInfoFv
 0002:8046DC40       exeDisappear__14FileSelectInfoFv
 0002:8046DCC0       control__14FileSelectInfoFv
 0002:8046DCD0       reflectInfo__14FileSelectInfoFv
 0002:8046DEE0       __ct__Q217FileSelectInfoSub10SlideStateFP14FileSelectInfo
 0002:8046E0F0       __dt__14FileSelectInfoFv
 0002:8046E600       onSelectIn__16FileSelectNumberFv
 0002:8046E610       onSelectOut__16FileSelectNumberFv
 0002:8046E730       selectIn__Q219FileSelectNumberSub20SelectAnimControllerFv
 0002:804704B0       show__15GalaxyNamePlateFPCwlbb
 0002:804715E0       __ct__21GameSceneLayoutHolderFv
 0002:80471AF0       createPurpleCoinCounter__21GameSceneLayoutHolderFv
 0002:80471C40       getGameSceneLayoutHolder__2MRFv
 0002:80474D70       __ct__16HomeButtonLayoutFv
 0002:80474EA0       exeDeactive__16HomeButtonLayoutFv
 0002:80475430       tryCorePadTriggerHome__16HomeButtonLayoutFv
 0002:804755C0       execute__Q219NrvHomeButtonLayout24HomeButtonLayoutDeactiveCFP5Spine
 0002:804755D0       __ct__11IconAButtonFbb
 0002:804756F0       setFollowActorPane__11IconAButtonFP11LayoutActorPCc
 0002:80475900       term__11IconAButtonFv
 0002:80475BC0       __ct__15ImageEffectBaseFPCc
 0002:80475CB0       __ct__19ImageEffectDirectorFPCc
 0002:80475FD0       turnOffDOFInSubjective__19ImageEffectDirectorFv
 0002:80475FE0       turnOnDOFInSubjective__19ImageEffectDirectorFv
 0002:804767A0       connectToSceneImageEffect__2MRFP7NameObj
 0002:804767C0       connectToSceneNormalBloom__2MRFP11BloomEffect
 0002:80477E40       __ct__19ImageEffectResourceFv
 0002:80477ED0       createBloomTexture__19ImageEffectResourceFv
 0002:80478EE0       __ct__23ImageEffectSystemHolderFv
 0002:80478F90       createImageEffectSystemHolder__2MRFv
 0002:80478FD0       isExistImageEffectDirector__2MRFv
 0002:80479020       getImageEffectDirector__2MRFv
 0002:80479050       getImageEffectResource__2MRFv
 0002:804795A0       setMessage__18InformationMessageFPCw
 0002:804795B0       setReplaceString__18InformationMessageFPCwl
 0002:80479840       __ct__19InformationObserverFv
 0002:80479B90       def_80479B20
 0002:8047A210       nullsub_101
 0002:8047A220       __ct__11LayoutActorFPCcb
 0002:8047A290       movement__11LayoutActorFv
 0002:8047A330       calcAnim__11LayoutActorFv
 0002:8047A370       draw__11LayoutActorCFv
 0002:8047A3B0       appear__11LayoutActorFv
 0002:8047A3D0       kill__11LayoutActorFv
 0002:8047A420       setNerve__11LayoutActorCFPC5Nerve
 0002:8047A430       isNerve__11LayoutActorCFPC5Nerve
 0002:8047A470       getNerveStep__11LayoutActorCFv
 0002:8047A480       getTrans__11LayoutActorCFv
 0002:8047A530       getLayoutManager__11LayoutActorCFv
 0002:8047A560       initLayoutManager__11LayoutActorFPCcUl
 0002:8047A620       initLayoutManager__11LayoutActorFPCcUlUl
 0002:8047A690       initNerve__11LayoutActorFPC5Nerve
 0002:8047A6F0       initEffectKeeper__11LayoutActorFiPCcPC12EffectSystem
 0002:8047A760       initPointingTarget__11LayoutActorFi
 0002:8047A840       __ct__15LayoutActorFlagFv
 0002:8047A9B0       getPaneUserData__14LayoutCoreUtilFPCQ34nw4r3lyt4PanePc
 0002:8047B110       initTextBoxPane__14LayoutCoreUtilFPQ34nw4r3lyt7TextBoxPCcUl
 0002:8047B370       convertLayoutPosToScreenPos__2MRFPQ29JGeometry8TVec2<f>RCQ29JGeometry8TVec2<f>
 0002:8047B820       __ml__Q44nw4r2ut28LinkList<Q34nw4r3lyt4Pane,4>8IteratorCFv
 0002:8047B8A0       __ct__13LayoutManagerFPCcbUlUl
 0002:8047BE90       isExistPaneCtrl__13LayoutManagerCFPCc
 0002:8047CAB0       initArc__13LayoutManagerFPCcPCc
 0002:8047CC20       initPaneInfo__13LayoutManagerFv
 0002:8047CC80       initPaneInfoRecursive__13LayoutManagerFRUlPQ34nw4r3lyt4Pane
 0002:8047CDA0       countPanes__13LayoutManagerFPQ34nw4r3lyt4Pane
 0002:8047CE40       initGroupCtrlList__13LayoutManagerFv
 0002:8047CEB0       initTextBoxRecursive__13LayoutManagerFPQ34nw4r3lyt4PanePQ34nw4r3lyt4PanePCcUl
 0002:8047D4A0       isExistResOther__12LayoutHolderCFPCc
 0002:8047D4B0       getResOther__12LayoutHolderCFUl
 0002:8047D4C0       getResOtherNum__12LayoutHolderCFv
 0002:8047D4D0       removeUnnecessaryPanes__13LayoutManagerFPQ34nw4r3lyt4Pane
 0002:8047D7F0       __ct__Q327@unnamed@LayoutManager_cpp@5Local12BitFlag<128>Fv
 0002:80480490       __ct__8Manual2PFPCc
 0002:80480500       init__8Manual2PFRC12JMapInfoIter
 0002:80480770       j_isDead__2MRFPC11LayoutActor
 0002:80480F30       reflectPageIndex__8Manual2PFv
 0002:804819C0       __ct__23MessageEditorMessageTagFPCQ34nw4r2ut15PrintContext<w>
 0002:804819D0       __ct__23MessageEditorMessageTagFPCw
 0002:804819E0       getSkipLength__23MessageEditorMessageTagCFv
 0002:80481A00       getParam8__23MessageEditorMessageTagCFi
 0002:80481A10       getParam16__23MessageEditorMessageTagCFi
 0002:80481A30       getParam32__23MessageEditorMessageTagCFi
 0002:80481A50       getParamPtr__23MessageEditorMessageTagCFi
 0002:80481A60       __ct__26MessageTagSkipTagProcessorFv
 0002:80481AA0       CalcRect__26MessageTagSkipTagProcessorFPQ34nw4r2ut4RectUsPQ34nw4r2ut15PrintContext<w>
 0002:80481AC0       Process__26MessageTagSkipTagProcessorFUsPQ34nw4r2ut15PrintContext<w>
 0002:80481BB0       init__11MeterLayoutFRC12JMapInfoIter
 0002:80481D10       control__11MeterLayoutFv
 0002:80482BD0       __dt__11MeterLayoutFv
 0002:80482EC0       appear__14MiiConfirmIconFPQ34nw4r3lyt6TexMapPCw
 0002:80483060       j_appear__11LayoutActorFv
 0002:804840B0       getIconID__9MiiSelectCFP16FileSelectIconIDl
 0002:80484190       onSelect__9MiiSelectFlPQ34nw4r3lyt6TexMap
 0002:804841F0       onSelectDummy__9MiiSelectFv
 0002:804843E0       movement__Q212MiiSelectSub4PageFv
 0002:80484DC0       invalidate__13MiiSelectIconFv
 0002:80484EA0       isSelected__13MiiSelectIconCFv
 0002:80484EB0       isMiiDummy__13MiiSelectIconCFv
 0002:80484ED0       getTexMap__13MiiSelectIconFv
 0002:80484F40       isPointing__13MiiSelectIconCFv
 0002:804861B0       __ct__16PaneEffectKeeperFP11LayoutActorPC13LayoutManageriPCc
 0002:80486260       init__16PaneEffectKeeperFPC11LayoutActorPC12EffectSystem
 0002:80486550       nullsub_17
 0002:80486750       nullsub_103
 0002:804868C0       nullsub_104
 0002:80487070       init__9PauseMenuFRC12JMapInfoIter
 0002:80487F80       __ct__20PlayerActionGuidanceFv
 0002:8048BBE0       __ct__17PurpleCoinCounterFPCc
 0002:8048C750       findGroupFunctionInfo__Q219ReplaceTagProcessor8ImplArgsFi
 0002:8048C8D0       ReplaceArgs__19ReplaceTagProcessorFPwPCwP16__va_list_struct
 0002:8048CAD0       exeStringGroup__19ReplaceTagProcessorFPwRC23MessageEditorMessageTagP16__va_list_struct
 0002:8048CB60       __as__16__va_list_structFRC16__va_list_struct
 0002:8048CB90       exeNumberGroup__19ReplaceTagProcessorFPwRC23MessageEditorMessageTagP16__va_list_struct
 0002:8048CE40       ReplaceArgs__18ReplaceTagFunctionFPwlPCwe
 0002:8048CF20       __ct__8SaveIconFPC11LayoutActor
 0002:8048CF90       appear__8SaveIconFv
 0002:8048CFD0       calcAnim__8SaveIconFv
 0002:8048D010       __dt__8SaveIconFv
 0002:8048D240       __ct__20ScenarioSelectLayoutFP12EffectSystemPC13CameraContext
 0002:8048D330       init__20ScenarioSelectLayoutFRC12JMapInfoIter
 0002:8048D650       appear__20ScenarioSelectLayoutFv
 0002:8048D930       kill__20ScenarioSelectLayoutFv
 0002:8048D9E0       movement__20ScenarioSelectLayoutFv
 0002:8048DA70       calcAnim__20ScenarioSelectLayoutFv
 0002:8048DB00       draw__20ScenarioSelectLayoutCFv
 0002:8048DB40       calcViewAndEntryStarModel__20ScenarioSelectLayoutFv
 0002:8048DBC0       getSelectedScenarioNo__20ScenarioSelectLayoutCFv
 0002:8048DBD0       isReadyToDisappear__20ScenarioSelectLayoutCFv
 0002:8048DC20       isAppearStarEnd__20ScenarioSelectLayoutCFv
 0002:8048DCC0       isEndAnimStartStep__20ScenarioSelectLayoutCFv
 0002:8048DD20       isCanceled__20ScenarioSelectLayoutCFv
 0002:8048DD80       control__20ScenarioSelectLayoutFv
 0002:8048E380       calcWorldPositionFromScreenPos__20ScenarioSelectLayoutCFPQ29JGeometry8TVec3<f>RCQ29JGeometry8TVec2<f>f
 0002:8048E5A0       calcDisplayScenarioNum__20ScenarioSelectLayoutCFPlPl
 0002:8048E960       appearStar__20ScenarioSelectLayoutFlli
 0002:8048EAF0       setPlayerLeft__20ScenarioSelectLayoutFv
 0002:8048EB70       startAnimAllNewPane__20ScenarioSelectLayoutFPCc
 0002:8048EC10       setAnimRateAllNewPane__20ScenarioSelectLayoutFf
 0002:8048F6B0       __dt__20ScenarioSelectLayoutFv
 0002:8048F920       __ct__13ScenarioTitleFv
 0002:8048FEE0       closeWipe__23SceneWipeHolderFunctionFPCcl
 0002:8048FF60       forceOpenWipe__23SceneWipeHolderFunctionFPCc
 0002:8048FFE0       forceCloseWipe__23SceneWipeHolderFunctionFPCc
 0002:80490DE0       __ct__18ScreenAlphaCaptureFPCc
 0002:80490E40       init__18ScreenAlphaCaptureFRC12JMapInfoIter
 0002:80490E50       createScreenAlpha__18ScreenAlphaCaptureFlf
 0002:80491000       createScreenAlphaSceneObj__2MRFlf
 0002:80491AE0       captureIfAllow__15ScreenPreserverFv
 0002:80491B10       nullsub_121
 0002:80491B40       nullsub_122
 0002:80491BB0       __ct__12SimpleLayoutFPCcPCcUli
 0002:80498780       forceSync__16StarPieceCounterFv
 0002:804987C0       tryOnModeTicoEat__16StarPieceCounterFb
 0002:80498AC0       isValidAppearSituation__16StarPieceCounterCFv
 0002:80498B50       tryChangeModeTicoEat__16StarPieceCounterFi
 0002:80498C10       exeHide__16StarPieceCounterFv
 0002:80498CA0       exeAppear__16StarPieceCounterFv
 0002:80498E70       setAppearOffset__21CounterLayoutAppearerFRCQ29JGeometry8TVec2<f>
 0002:80498E90       exeWait__16StarPieceCounterFv
 0002:80498F10       exeDisappear__16StarPieceCounterFv
 0002:80498F80       __dt__16StarPieceCounterFv
 0002:80498FE0       __sinit_\StarPieceCounter_cpp
 0002:80499020       __ct__Q219NrvStarPieceCounter23StarPieceCounterNrvHideFv
 0002:80499030       __ct__Q219NrvStarPieceCounter25StarPieceCounterNrvAppearFv
 0002:80499040       __ct__Q219NrvStarPieceCounter23StarPieceCounterNrvWaitFv
 0002:80499050       __ct__Q219NrvStarPieceCounter28StarPieceCounterNrvDisappearFv
 0002:80499060       execute__Q219NrvStarPieceCounter28StarPieceCounterNrvDisappearCFP5Spine
 0002:80499070       execute__Q219NrvStarPieceCounter23StarPieceCounterNrvWaitCFP5Spine
 0002:80499080       execute__Q219NrvStarPieceCounter25StarPieceCounterNrvAppearCFP5Spine
 0002:80499090       execute__Q219NrvStarPieceCounter23StarPieceCounterNrvHideCFP5Spine
 0002:804990A0       __ct__15StarPointerBlurFP10JUTTexture
 0002:804991D0       __ct__Q215StarPointerBlur9BlurPointFv
 0002:80499200       show__15StarPointerBlurFv
 0002:80499250       hide__15StarPointerBlurFv
 0002:80499270       hideAll__15StarPointerBlurFv
 0002:804992B0       movement__15StarPointerBlurFv
 0002:80499350       updatePoint__15StarPointerBlurFRCQ29JGeometry8TVec2<f>bPQ29JGeometry8TVec2<f>
 0002:80499480       findDrawPointRange__15StarPointerBlurCFPUsPUs
 0002:80499540       draw__15StarPointerBlurCFv
 0002:80499590       draw2__15StarPointerBlurCFv
 0002:80499800       initDraw__15StarPointerBlurCFv
 0002:80499A00       __dt__15StarPointerBlurFv
 0002:8049A0B0       __ct__19StarPointerDirectorFv
 0002:8049A400       draw__19StarPointerDirectorFv
 0002:8049A6E0       gekko_ps_copy16__5JMathFPvPCv
 0002:8049A730       getStarPointerController__19StarPointerDirectorCFl
 0002:8049A7A0       getStarPointerLayout__19StarPointerDirectorCFl
 0002:8049A7B0       __ct__26StarPointerTransformHolderFv
 0002:8049A800       movement__26StarPointerTransformHolderFv
 0002:8049A920       __ct__16StarPointerPeekZFv
 0002:8049A980       setDrawSyncToken__16StarPointerPeekZFv
 0002:8049AE10       forceInsideScreenEdge__19StarPointerFunctionFPQ29JGeometry8TVec2<f>
 0002:8049AF10       getStarPointerDirector__19StarPointerFunctionFv
 0002:8049AF20       getNumStarPointer__19StarPointerFunctionFv
 0002:8049AF30       getPastPointNum__19StarPointerFunctionFl
 0002:8049AF80       getPastPosition__19StarPointerFunctionFll
 0002:8049AFE0       getNextPastPointNum__19StarPointerFunctionFl
 0002:8049B030       canShoot__19StarPointerFunctionFl
 0002:8049D050       def_8049CF30
 0002:8049D2E4       def_8049D1AC
 0002:8049D8AC       def_8049D7B0
 0002:8049E6B4       def_8049E644
 0002:8049FBC0       __ct__29StarPointerLayoutTargetKeeperFi
 0002:804A26F0       init__13SysInfoWindowFRC12JMapInfoIter
 0002:804A2950       appear__13SysInfoWindowFPCcQ213SysInfoWindow11SysInfoTypeQ213SysInfoWindow14SysInfoTextPosQ213SysInfoWindow18SysInfoMessageType
 0002:804A2B40       forceKill__13SysInfoWindowFv
 0002:804A2BF0       getLayoutName__13SysInfoWindowCFv
 0002:804A2E40       setTextBoxArgString__13SysInfoWindowFPCwl
 0002:804A2EC0       createSysInfoWindowExecuteWithChildren__2MRFv
 0002:804A2F20       createSysInfoWindowMiniExecuteWithChildren__2MRFv
 0002:804A3090       __ct__16SystemWipeHolderFv
 0002:804A30E0       init__16SystemWipeHolderFRC12JMapInfoIter
 0002:804A3230       movement__16SystemWipeHolderFv
 0002:804A3370       calcAnim__16SystemWipeHolderFv
 0002:804A3410       draw__16SystemWipeHolderCFv
 0002:804A36B0       createSystemWipeHolder__2MRFv
 0002:804A3700       __dt__16SystemWipeHolderFv
 0002:804A3760       __ct__15TimeLimitLayoutFUl
 0002:804A37D0       init__15TimeLimitLayoutFRC12JMapInfoIter
 0002:804A3890       appear__15TimeLimitLayoutFv
 0002:804A38D0       j_kill__11LayoutActorFv_1
 0002:804A39B0       setDisplayModeOnNormal__15TimeLimitLayoutFb
 0002:804A3A20       resetFrame__15TimeLimitLayoutFv
 0002:804A4070       __dt__15TimeLimitLayoutFv
 0002:804A41A0       nullsub_172
 0002:804A6D60       __ct__14WipeHolderBaseFUlPCc
 0002:804A6DD0       setCurrent__14WipeHolderBaseFPCc
 0002:804A6E70       wipe__14WipeHolderBaseFPCcl
 0002:804A6ED0       forceClose__14WipeHolderBaseFPCc
 0002:804A6F20       forceOpen__14WipeHolderBaseFPCc
 0002:804A6F70       isOpen__14WipeHolderBaseCFv
 0002:804A6F90       isClose__14WipeHolderBaseCFv
 0002:804A6FB0       isWipeIn__14WipeHolderBaseCFv
 0002:804A6FD0       isWipeOut__14WipeHolderBaseCFv
 0002:804A6FF0       isCurrent__14WipeHolderBaseCFPCc
 0002:804A7040       addWipeLayout__14WipeHolderBaseFP14WipeLayoutBase
 0002:804A70B0       updateWipe__14WipeHolderBaseFPCc
 0002:804A7120       findWipe__14WipeHolderBaseCFPCc
 0002:804AA740       __ct__15YesNoControllerFP11LayoutActor
 0002:804AA840       appear__15YesNoControllerFv
 0002:804AA850       kill__15YesNoControllerFv
 0002:804AA860       update__15YesNoControllerFv
 0002:804AA8B0       isSelected__15YesNoControllerCFv
 0002:804AA8C0       isSelectedYes__15YesNoControllerCFv
 0002:804AA940       setSE__15YesNoControllerFPCcPCcPCc
 0002:804AAE90       __dt__15YesNoControllerFv
 0002:804AB160       setSelectMessage__11YesNoLayoutFPCcPCc
 0002:804AC200       connect__9SpkSystemFl
 0002:804AC210       disconnect__9SpkSystemFl
 0002:804AC270       extensionProcess__9SpkSystemFll
 0002:804AE340       isLoadDoneWaveDataAtSystemInit__16AudSystemWrapperCFv
 0002:804AE730       requestResourceForInitialize__16AudSystemWrapperFv
 0002:804AF2E0       resetLightSort__21DrawBufferShapeDrawerFPC14ActorLightCtrl
 0002:804AF540       getShapeDrawerByMatNo__10DrawBufferCFi
 0002:804AF600       resetLightSort__10DrawBufferFPC14ActorLightCtrl
 0002:804B0AA0       start__15DrawSyncManagerFUll
 0002:804B0B30       resetIfAborted__15DrawSyncManagerFv
 0002:804B0F40       setCallback__15DrawSyncManagerFUlUsP16DrawSyncCallback
 0002:804B1160       pushBreakPoint__15DrawSyncManagerFv
 0002:804B12E0       waitReadDone__19FileHolderFileEntryFv
 0002:804B1A00       receiveAllRequestedFile__10FileLoaderFv
 0002:804B1F00       setup__10FileRipperFUlP7JKRHeap
 0002:804B2640       __ct__21FunctionAsyncExecInfoFPQ22MR11FunctorBaseiPCc
 0002:804B26F0       execute__21FunctionAsyncExecInfoFv
 0002:804B2760       __ct__27FunctionAsyncExecutorThreadFP7JKRHeap
 0002:804B27C0       run__27FunctionAsyncExecutorThreadFv
 0002:804B2860       __ct__33FunctionAsyncExecutorOnMainThreadFP8OSThread
 0002:804B2930       __ct__21FunctionAsyncExecutorFv
 0002:804B2A90       startOnMainThread__21FunctionAsyncExecutorFRCQ22MR11FunctorBasePCc
 0002:804B2D90       createAndAddExecInfo__21FunctionAsyncExecutorFRCQ22MR11FunctorBaseiPCc
 0002:804B2E50       getSuspendThread__21FunctionAsyncExecutorFv
 0002:804B2E90       __dt__27FunctionAsyncExecutorThreadFv
 0002:804B2EF0       __ct__22SaveDataHandleSequenceFv
 0002:804B63D0       main
 0002:804B64D0       __ct__10GameSystemFv
 0002:804B6550       init__10GameSystemFv
 0002:804B66F0       isExecuteLoadSystemArchive__10GameSystemCFv
 0002:804B6700       isDoneLoadSystemArchive__10GameSystemCFv
 0002:804B6710       startToLoadSystemArchive__10GameSystemFv
 0002:804B6770       exeInitializeAudio__10GameSystemFv
 0002:804B6860       exeInitializeLogoScene__10GameSystemFv
 0002:804B68D0       exeLoadStationedArchive__10GameSystemFv
 0002:804B6940       initGX__10GameSystemFv
 0002:804B6990       initAfterStationedResourceLoaded__10GameSystemFv
 0002:804B6A00       prepareReset__10GameSystemFv
 0002:804B6A70       frameLoop__10GameSystemFv
 0002:804B6AE0       draw__10GameSystemFv
 0002:804B6BA0       update__10GameSystemFv
 0002:804B6C70       updateSceneController__10GameSystemFv
 0002:804B6D50       calcAnim__10GameSystemFv
 0002:804B6DA0       __dt__10GameSystemFv
 0002:804B6F80       nullsub_146
 0002:804B7280       __ct__24GameSystemDimmingWatcherFv
 0002:804B7370       __ct__22GameSystemErrorWatcherFv
 0002:804B7440       initAfterResourceLoaded__22GameSystemErrorWatcherFv
 0002:804B7C80       init__19GameSystemExceptionFv
 0002:804B7E70       __ct__20GameSystemFontHolderFv
 0002:804B7EA0       createFontFromEmbeddedData__20GameSystemFontHolderFv
 0002:804B7FA0       createFontFromFile__20GameSystemFontHolderFv
 0002:804B8290       getMessageFont__20GameSystemFontHolderCFv
 0002:804B82B0       __ct__22GameSystemFrameControlFv
 0002:804B82F0       setMovement60fps__22GameSystemFrameControlFv
 0002:804B8350       getLogoScene__32@unnamed@GameSystemFunction_cpp@Fv
 0002:804B8370       getAudSystemWrapper__32@unnamed@GameSystemFunction_cpp@Fv
 0002:804B8590       tryToLoadSystemArchive__18GameSystemFunctionFv
 0002:804B85E0       isDisplayStrapRemineder__18GameSystemFunctionFv
 0002:804B8640       requestChangeArchivePlayer__18GameSystemFunctionFb
 0002:804B8660       isEndChangeArchivePlayer__18GameSystemFunctionFv
 0002:804B86C0       isResetProcessing__18GameSystemFunctionFv
 0002:804B8D90       __ct__19GameSystemObjHolderFv
 0002:804B8E40       init__19GameSystemObjHolderFv
 0002:804B8EE0       nullsub_119
 0002:804B8FA0       initAfterStationedResourceLoaded__19GameSystemObjHolderFv
 0002:804B9060       drawStarPointer__19GameSystemObjHolderFv
 0002:804B9070       drawBeforeEndRender__19GameSystemObjHolderFv
 0002:804B9090       captureIfAllowForScreenPreserver__19GameSystemObjHolderFv
 0002:804B90A0       getRenderModeObj__19GameSystemObjHolderCFv
 0002:804B9140       initAudio__19GameSystemObjHolderFv
 0002:804B91C0       initRenderMode__19GameSystemObjHolderFv
 0002:804B92A0       initNameObj__19GameSystemObjHolderFv
 0002:804B9320       initMessageResource__19GameSystemObjHolderFv
 0002:804B9400       initResourceHolderManager__19GameSystemObjHolderFv
 0002:804B9440       initGameController__19GameSystemObjHolderFv
 0002:804B94A0       initDisplay__19GameSystemObjHolderFv
 0002:804B95C0       getGameSystemObjHolder__2MRFv
 0002:804B9E10       __ct__30GameSystemResetAndPowerProcessFv
 0002:804BA120       __ct__25GameSystemSceneControllerFv
 0002:804BA780       drawScene__25GameSystemSceneControllerFv
 0002:804BA7E0       getNameObjListExecutor__25GameSystemSceneControllerCFv
 0002:804BA830       getCurrentScenarioNo__25GameSystemSceneControllerCFv
 0002:804BA860       setSceneInitializeState__25GameSystemSceneControllerF20SceneInitializeState
 0002:804BA8C0       setCurrentScenarioNo__25GameSystemSceneControllerFll
 0002:804BA8E0       isScenarioDecided__25GameSystemSceneControllerCFv
 0002:804BB8E0       __ct__32GameSystemStationedArchiveLoaderFv
 0002:804BB940       update__32GameSystemStationedArchiveLoaderFv
 0002:804BB950       isDone__32GameSystemStationedArchiveLoaderCFv
 0002:804BBA10       prepareReset__32GameSystemStationedArchiveLoaderFv
 0002:804BCC10       setCurrentHeapToStationedHeap__17HeapMemoryWatcherFv
 0002:804BCDA0       createRootHeap__17HeapMemoryWatcherFv
 0002:804BCE40       createHeaps__17HeapMemoryWatcherFv
 0002:804BCF90       __ct__17HeapMemoryWatcherFv
 0002:804BD010       memoryErrorCallback__17HeapMemoryWatcherFPvUli
 0002:804BD030       nullsub_42
 0002:804BD040       setupRsoHomeButtonMenu__3RSOFv
 0002:804BD160       HBMCreate__3RSOFPC11HBMDataInfo
 0002:804BD1D0       checkRestMemory__17HeapMemoryWatcherFv
 0002:804BD1E0       getDecidedLanguageFromIPL__2MRFv
 0002:804BD230       getLanguage__2MRFv
 0002:804BD240       getLanguageFromIPL__2MRFv
 0002:804BD270       getCurrentLanguagePrefix__2MRFv
 0002:804BD2D0       getCurrentRegionPrefix__2MRFv
 0002:804BD390       getLanguageNum__2MRFv
 0002:804BD3A0       getLanguagePrefixByIndex__2MRFUl
 0002:804BD3C0       __ct__12LayoutHolderFR10JKRArchive
 0002:804BD430       __dt__12LayoutHolderFv
 0002:804BD490       GetResource__12LayoutHolderFUlPCcPUl
 0002:804BD560       GetFont__12LayoutHolderFPCc
 0002:804BD650       isAnimationHashEqual__12LayoutHolderCFUlUl
 0002:804BD6A0       initializeArc__12LayoutHolderFv
 0002:804BD770       initEachResTable__12LayoutHolderFP8ResTablePCPCc
 0002:804BD8F0       mount__12LayoutHolderFPc
 0002:804BDAD0       getResOtherName__12LayoutHolderCFUl
 0002:804BDBF0       __dt__17MainLoopFrameworkFv
 0002:804BDD90       prepareCopyDisp__17MainLoopFrameworkFv
 0002:804BDE90       drawendXfb_single__17MainLoopFrameworkFv
 0002:804BE0B0       copyXfb_triple__17MainLoopFrameworkFv
 0002:804BE120       preGX__17MainLoopFrameworkFv
 0002:804BE280       waitForRetrace__17MainLoopFrameworkFv
 0002:804BE2C0       beginRender__17MainLoopFrameworkFv
 0002:804BE3F0       endRender__17MainLoopFrameworkFv
 0002:804BE460       endFrame__17MainLoopFrameworkFv
 0002:804BE550       setTickRateFromFrame__17MainLoopFrameworkFUs
 0002:804BE5B0       clearEfb__17MainLoopFrameworkF8_GXColor
 0002:804BE600       clearEfb__17MainLoopFrameworkFiiii8_GXColor
 0002:804BE970       calcCombinationRatio__17MainLoopFrameworkFv
 0002:804BEA00       frameToTick__17MainLoopFrameworkFf
 0002:804BEA60       setForOSResetSystem__17MainLoopFrameworkFv
 0002:804BEAE0       waitForTick__31@unnamed@MainLoopFramework_cpp@FUlUs
 0002:804BEC10       waitDrawDoneAndSetAlarm__31@unnamed@MainLoopFramework_cpp@Fv
 0002:804BED20       __dt__Q22MR37BothDirLink<22MainLoopFrameworkAlarm>Fv
 0002:804BED80       handleGXAbortAlarm__31@unnamed@MainLoopFramework_cpp@FP7OSAlarmP9OSContext
 0002:804C2F40       getSystemMessageDirect__13MessageSystemFP15TalkMessageInfoPCc
 0002:804C32A0       nullsub_129
 0002:804C3390       __ct__17NANDErrorSequenceFP22SaveDataHandleSequenceP13SysInfoWindowP13SysInfoWindow
 0002:804C3590       tryLessBlockOrInode__17NANDErrorSequenceFUl
 0002:804C3630       tryNoRecoverErroSequence__17NANDErrorSequenceFl
 0002:804C3700       isPermitToReset__17NANDErrorSequenceCFv
 0002:804C3730       prepareReset__17NANDErrorSequenceFv
 0002:804C3780       isPreparedReset__17NANDErrorSequenceCFv
 0002:804C3880       restoreFromReset__17NANDErrorSequenceFv
 0002:804C4710       getCode__14NANDResultCodeCFv
 0002:804C4720       isSuccess__14NANDResultCodeCFv
 0002:804C4730       isSaveDataCorrupted__14NANDResultCodeCFv
 0002:804C4750       isNANDCorrupted__14NANDResultCodeCFv
 0002:804C4770       isMaxBlocks__14NANDResultCodeCFv
 0002:804C4790       isMaxFiles__14NANDResultCodeCFv
 0002:804C47B0       isNoExistFile__14NANDResultCodeCFv
 0002:804C47D0       isBusyOrAllocFailed__14NANDResultCodeCFv
 0002:804C47F0       isUnknown__14NANDResultCodeCFv
 0002:804C4810       addRequestToNANDManager__2MRFP15NANDRequestInfo
 0002:804C4820       __ct__17NANDManagerThreadFiiP7JKRHeap
 0002:804C4BB0       __ct__13NerveExecutorFPCc
 0002:804C4BD0       __dt__13NerveExecutorFv
 0002:804C4C40       initNerve__13NerveExecutorFPC5NervePC5Nerve
 0002:804C4CA0       updateNerve__13NerveExecutorFv
 0002:804C4CC0       setNerve__13NerveExecutorFPC5Nerve
 0002:804C4CD0       isNerve__13NerveExecutorCFPC5Nerve
 0002:804C4D10       getNerveStep__13NerveExecutorCFv
 0002:804C4D20       __ct__15OSThreadWrapperFUliiP7JKRHeap
 0002:804C4DA0       __dt__15OSThreadWrapperFv
 0002:804C5140       adjustSize__10JKRExpHeapFv
 0002:804C52B0       getMaxAllocatableSize__7JKRHeapFi
 0002:804C54C0       PSMTXRotRad
 0002:804C5660       queryMapAddress_single__12JUTExceptionFPcUllPUlPUlPcUlbb
 0002:804C5720       nullsub_43
 0002:804C79A0       __dt__Q317JASThreadingModel71InterruptsDisable<50JASMemPool_MultiThreaded<Q28JASTrack11TChannelMgr>>4LockFv
 0002:804C9810       getSuitableRenderMode__2MRFv
 0002:804C9920       isAspectRatioFlag16Per9__2MRFv
 0002:804C9950       getRequiredExternalFrameBufferSize__2MRFv
 0002:804C9960       getViWidthMax__13RenderModeObjFv
 0002:804CA6D0       createAndAdd__21ResourceHolderManagerFPCcP7JKRHeap
 0002:804CAA60       startCreateResourceHolderOnMainThread__21ResourceHolderManagerFPCcP24CreateResourceHolderArgs
 0002:804CAB90       createAndAddInner__21ResourceHolderManagerFPCcPFPcUlPCc_bPFPCcP24CreateResourceHolderArgs_v
 0002:804CADE0       __dt__Q235@unnamed@ResourceHolderManager_cpp@17GDCurrentRestorerFv
 0002:804CAE30       createLayoutHolder__21ResourceHolderManagerFPCcP24CreateResourceHolderArgs
 0002:804CAFE0       __cl__Q22MR131FunctorV2M<P21ResourceHolderManager,M21ResourceHolderManagerFPCvPvPCcP24CreateResourceHolderArgs_v,PCc,P24CreateResourceHolderArgs>CFv
 0002:804CB020       clone__Q22MR131FunctorV2M<P21ResourceHolderManager,M21ResourceHolderManagerFPCvPvPCcP24CreateResourceHolderArgs_v,PCc,P24CreateResourceHolderArgs>CFP7JKRHeap
 0002:804CB190       __ct__8ResTableFv
 0002:804CB1A0       newFileInfoTable__8ResTableFUl
 0002:804CB200       add__8ResTableFPCcPvb
 0002:804CB270       getResName__8ResTableCFUl
 0002:804CB2A0       getRes__8ResTableCFPCc
 0002:804CB2B0       findFileInfo__8ResTableCFPCc
 0002:804CB300       getFileInfo__8ResTableCFUl
 0002:804CB310       isExistRes__8ResTableCFPCc
 0002:804CB340       findRes__8ResTableCFPCc
 0002:804CB390       getResIndex__8ResTableCFPCc
 0002:804CB460       __ct__12ScenarioDataFPCc
 0002:804CB6B0       getPowerStarNum__12ScenarioDataCFv
 0002:804CB760       getValueString__12ScenarioDataCFPCclPPCc
 0002:804CB940       getZoneNum__12ScenarioDataCFv
 0002:804CB9A0       getZoneId__12ScenarioDataCFPCc
 0002:804CBA80       getScenarioDataIter__12ScenarioDataCFl
 0002:804CBD30       __ct__18ScenarioDataParserFPCc
 0002:804CBE10       getScenarioData__18ScenarioDataParserCFPCc
 0002:804CBE90       makeAccessor__18ScenarioDataParserCFPCc
 0002:804CBEC0       getScenarioDataParser__20ScenarioDataFunctionFv
 0002:804CBED0       getCurrentCommonLayers__20ScenarioDataFunctionFPCc
 0002:804CBF10       getCurrentScenarioLayers__20ScenarioDataFunctionFPCcl
 0002:804CBFB0       __dt__18ScenarioDataParserFv
 0002:804CC010       __ct__19ShapePacketUserDataFv
 0002:804CC050       init__19ShapePacketUserDataFP11J3DMaterial
 0002:804CCB10       j_decModeCounter__26StarPointerOnOffControllerFPv
 0002:804CD7A0       updateMode__26StarPointerOnOffControllerFv
 0002:804CD978       def_804CD82C
 0002:804CDA00       incModeCounter__26StarPointerOnOffControllerFPvl
 0002:804CDAD0       decModeCounter__26StarPointerOnOffControllerFPv
 0002:804CDB80       __dt__26StarPointerOnOffControllerFv
 0002:804CDBE0       __dt__Q222StationedArchiveLoader9ConditionFv
 0002:804CDC20       getProperHeap__Q222StationedArchiveLoader9ConditionCFPCQ22MR17StationedFileInfo
 0002:804CDC30       getProperHeap__22StationedArchiveLoaderFPCQ22MR17StationedFileInfo
 0002:804CDC60       loadResourcesFromTable__22StationedArchiveLoaderFRCQ222StationedArchiveLoader9Condition
 0002:804CDD40       loadScenarioData__22StationedArchiveLoaderFP7JKRHeap
 0002:804CDF70       getStationedFileInfoTable__2MRFv
 0002:804CDF80       __ct__4WPadFl
 0002:804CE150       setReadInfo__4WPadFP16WPadReadDataInfo
 0002:804CE160       update__4WPadFv
 0002:804CE240       getRumbleInstance__4WPadCFv
 0002:804CE250       startLeaveWatcher__4WPadFv
 0002:804CE260       getBattery__4WPadCFv
 0002:804CE270       connected__4WPadFv
 0002:804CE2C0       disconnected__4WPadFv
 0002:804CE310       connectCallback__4WPadFll
 0002:804CE370       extensionCallback__4WPadFll
 0002:804CE3F0       getInfoCallback__4WPadFll
 0002:804CE420       isDeviceFreeStyle__2MRFPC10KPADStatus
 0002:804CE600       getKPadStatus__4WPadCFUl
 0002:804CE610       getValidStatusCount__4WPadCFv
 0002:804CE620       getEnableAccelPastCount__4WPadCFUl
 0002:804CE640       getAcceleration__4WPadCFPQ29JGeometry8TVec3<f>Ul
 0002:804CE660       getPastAcceleration__4WPadCFPQ29JGeometry8TVec3<f>lUl
 0002:804CE680       __ct__16WPadAccelerationFPC4WPadUl
 0002:804CE750       getAcceleration__16WPadAccelerationCFPQ29JGeometry8TVec3<f>
 0002:804CE7B0       getPastAcceleration__16WPadAccelerationCFPQ29JGeometry8TVec3<f>l
 0002:804CE820       isStationary__16WPadAccelerationCFv
 0002:804CE830       isBalanced__16WPadAccelerationCFv
 0002:804CE850       update__16WPadAccelerationFv
 0002:804CEE40       __ct__10WPadButtonFPC4WPad
 0002:804CEEA0       update__10WPadButtonFv
 0002:804CEF50       testButtonUp__10WPadButtonCFv
 0002:804CEF60       testButtonDown__10WPadButtonCFv
 0002:804CEF70       testButtonLeft__10WPadButtonCFv
 0002:804CEF80       testButtonRight__10WPadButtonCFv
 0002:804CEF90       testButtonA__10WPadButtonCFv
 0002:804CEFA0       testButtonB__10WPadButtonCFv
 0002:804CEFB0       testButtonMinus__10WPadButtonCFv
 0002:804CEFC0       testButtonPlus__10WPadButtonCFv
 0002:804CEFD0       testButton1__10WPadButtonCFv
 0002:804CEFE0       testButton2__10WPadButtonCFv
 0002:804CEFF0       testButtonC__10WPadButtonCFv
 0002:804CF000       testButtonZ__10WPadButtonCFv
 0002:804CF010       testTriggerUp__10WPadButtonCFv
 0002:804CF020       testTriggerDown__10WPadButtonCFv
 0002:804CF030       testTriggerLeft__10WPadButtonCFv
 0002:804CF040       testTriggerRight__10WPadButtonCFv
 0002:804CF050       testTriggerA__10WPadButtonCFv
 0002:804CF060       testTriggerB__10WPadButtonCFv
 0002:804CF070       testTriggerMinus__10WPadButtonCFv
 0002:804CF080       testTriggerHome__10WPadButtonCFv
 0002:804CF0E0       isChangeAnyState__10WPadButtonCFv
 0002:804CF130       __ct__11WPadHVSwingFPC4WPadUl
 0002:804CF180       updateSwing__11WPadHVSwingFv
 0002:804CF290       updateCentrifugal__11WPadHVSwingFv
 0002:804CF430       update__11WPadHVSwingFv
 0002:804CF550       getKPadStatus__16WPadReadDataInfoCFUl
 0002:804CF590       getValidStatusCount__16WPadReadDataInfoCFv
 0002:804CF720       __ct__10WPadHolderFv
 0002:804CFB50       getWPad__10WPadHolderFl
 0002:804CFC40       getWPadHolder__24@unnamed@WPadHolder_cpp@Fv
 0002:804CFC50       getWPad__2MRFl
 0002:804CFDF0       __ct__15WPadInfoCheckerFP4WPad
 0002:804CFE10       getBattery__15WPadInfoCheckerCFv
 0002:804CFE20       successGetInfo__15WPadInfoCheckerFv
 0002:804CFE30       startCheck__15WPadInfoCheckerFv
 0002:804CFE80       reset__15WPadInfoCheckerFv
 0002:804CFEA0       update__15WPadInfoCheckerFv
 0002:804CFEE0       __ct__16WPadLeaveWatcherFP4WPad
 0002:804CFF00       update__16WPadLeaveWatcherFv
 0002:804CFFF0       start__16WPadLeaveWatcherFv
 0002:804D0010       __ct__11WPadPointerFPC4WPad
 0002:804D00E0       reset__11WPadPointerFv
 0002:804D01C0       update__11WPadPointerFv
 0002:804D03A0       getPointingPos__11WPadPointerCFPQ29JGeometry8TVec2<f>
 0002:804D0450       getEnablePastCount__11WPadPointerCFv
 0002:804D0460       getPointingPosBasedOnScreen__11WPadPointerCFPQ29JGeometry8TVec2<f>
 0002:804D0510       clear__13RumbleChannelFv
 0002:804D0530       update__13RumbleChannelFv
 0002:804D05A0       setPattern__13RumbleChannelFPCvRC13RumblePatternUlb
 0002:804D05C0       __ct__10WPadRumbleFP4WPad
 0002:804D0740       registInstance__10WPadRumbleFv
 0002:804D0780       stop__10WPadRumbleFv
 0002:804D07F0       update__10WPadRumbleFv
 0002:804D09B0       getRumbleInstance__10WPadRumbleCFv
 0002:804D09D0       vibratePatternIfNotExist__10WPadRumbleFPCvPCc
 0002:804D0D20       nullsub_1
 0002:804D0D30       __ct__9WPadStickFPC4WPad
 0002:804D0D70       update__9WPadStickFv
 0002:804D0F90       isChanged__9WPadStickCFv
 0002:804D1264       updateLastModified__16ConfigDataHolderFv
 0002:804D1270       getLastModified__16ConfigDataHolderCFv
 0002:804D1400       setMiiOrIconId__13ConfigDataMiiFPCvPCUl
 0002:804D1760       getLastModified__14ConfigDataMiscCFv
 0002:804D1770       updateLastModified__14ConfigDataMiscFv
 0002:804D1900       __ct__20GalaxyStatusAccessorFPC12ScenarioData
 0002:804D1990       getPowerStarNum__20GalaxyStatusAccessorCFv
 0002:804D1A10       getZoneNum__20GalaxyStatusAccessorCFv
 0002:804D1A20       getZoneId__20GalaxyStatusAccessorCFPCc
 0002:804D1A30       getZoneName__20GalaxyStatusAccessorCFi
 0002:804D1C10       getCometName__20GalaxyStatusAccessorCFl
 0002:804D1D70       hasPowerStar__20GalaxyStatusAccessorCFl
 0002:804D2280       makeGalaxyStatusAccessor__2MRFPCc
 0002:804D22C0       makeCurrentGalaxyStatusAccessor__2MRFv
 0002:804D2410       getSaveDataHandleSequence__16GameDataFunctionFv
 0002:804D2590       hasPowerStar__16GameDataFunctionFPCcl
 0002:804D26E0       calcCurrentPowerStarNum__2MRFv
 0002:804D2B60       isActiveDefaultGameLayout__2MRFv
 0002:804D2E10       isStarPieceCounterStop__2MRFv
 0002:804D3920       nullsub_18
 0002:804D48C0       isOnGameEventFlag__14GameDataHolderCFPCc
 0002:804D49D0       calcCurrentPowerStarNum__14GameDataHolderCFv
 0002:804D57F0       __ct__20GameSequenceDirectorFv
 0002:804D5980       draw__20GameSequenceDirectorCFv
 0002:804D5A20       getSaveDataHandleSequence__34@unnamed@GameSequenceFunction_cpp@Fv
 0002:804D6190       tryNANDErrorSequence__20GameSequenceFunctionFl
 0002:804D70D0       getStageStateKeeper__13EventFunctionFv
 0002:804D8560       requestChangeScene__2MRFPCc
 0002:804D9DE0       tryNANDErrorSequence__22SaveDataHandleSequenceFl
 0002:804D9E40       isActive__22SaveDataHandleSequenceCFv
 0002:804D9E70       isPermitToReset__22SaveDataHandleSequenceCFv
 0002:804D9E90       prepareReset__22SaveDataHandleSequenceFv
 0002:804D9EB0       isPreparedReset__22SaveDataHandleSequenceCFv
 0002:804DA010       restoreFromReset__22SaveDataHandleSequenceFv
 0002:804DAA90       getSysConfigFile__22SaveDataHandleSequenceFv
 0002:804DAAA0       getCurrentUserFile__22SaveDataHandleSequenceFv
 0002:804DB340       __ct__15SaveDataHandlerFPC13SysConfigFilePC8UserFile
 0002:804DC310       nullsub_105
 0002:804DD110       getPowerStarNumOwned__25GameDataSomeGalaxyStorageCFv
 0002:804DD550       calcCurrentPowerStarNum__24GameDataAllGalaxyStorageCFv
 0002:804DEF40       __ct__13SysConfigFileFv
 0002:804DEFE0       __ct__8UserFileFv
 0002:804DF080       getPowerStarNum__8UserFileCFv
 0002:804DF130       getLastModified__8UserFileCFv
 0002:804DF150       isViewCompleteEnding__8UserFileCFv
 0002:804DF3C0       LMSi_AnalyzeMessageBinary
 0002:804DF400       LMSi_SearchBlockByName
 0002:804DF480       LMSi_GetHashTableIndexFromLabel
 0002:804DF540       MSBF_GetFlowEntryCount
 0002:804DF570       LMS_GetAttrInfoIndexByName
 0002:804DF770       LMS_SetMemFuncs
 0002:804DF780       LMSi_Malloc
 0002:804DF790       LMSi_MemCmp
 0002:804DF7D0       LMS_InitMessage
 0002:804DF860       LMS_GetTextIndexByLabel
 0002:804E0690       nullsub_44
 0002:804EF760       j_updateNerve__13NerveExecutorFv_3
 0002:804FE6C0       getMailSender__2MRFPCc
 0002:804FE6D0       getNWC24Messenger__28@unnamed@NWC24Messenger_cpp@Fv
 0002:804FE6E0       __ct__14NWC24MessengerFPCc
 0002:804FE7C0       __ct__Q217NWC24MessengerSub8SendTaskFv
 0002:804FE840       send__14NWC24MessengerFPCcPCwPCwPCUcUlbbUsUc
 0002:804FEC60       __ct__Q217NWC24MessengerSub9SendStateFP14NWC24Messenger
 0002:804FF4A4       def_804FF458
 0002:804FF4F0       exeSendFatalErrorFG__Q217NWC24MessengerSub9SendStateFv
 0002:804FFA30       doneTask__Q217NWC24MessengerSub9SendStateFv
 0002:804FFA60       appearSysInfo__Q217NWC24MessengerSub9SendStateFPCcl
 0002:804FFAF0       isEndSysInfoMini__Q217NWC24MessengerSub9SendStateCFv
 0002:804FFB10       setNerveAfterSysInfoWindowMiniDisappear__Q217NWC24MessengerSub9SendStateFPC5Nerve
 0002:804FFB70       __ct__Q22MR11SendMailObjFPCc
 0002:804FFBA0       setMessageDirect__Q22MR11SendMailObjFPCw
 0002:804FFBB0       setSenderID__Q22MR11SendMailObjFPCc
 0002:804FFBF0       setImage__Q22MR11SendMailObjFPCUcUl
 0002:804FFC00       setBGEnable__Q22MR11SendMailObjFv
 0002:804FFC20       send__Q22MR11SendMailObjFv
 0002:80500640       __ct__11NWC24SystemFP7JKRHeapl
 0002:80500F60       __ct__7JKRHeapFPvUlP7JKRHeapb
 0002:80501100       __dt__7JKRHeapFv
 0002:805012E0       becomeCurrentHeap__7JKRHeapFv
 0002:80501310       alloc__7JKRHeapFUliP7JKRHeap
 0002:80501350       alloc__7JKRHeapFUli
 0002:80501360       free__7JKRHeapFPvP7JKRHeap
 0002:805013C0       free__7JKRHeapFPv
 0002:805013D0       callAllDisposer__7JKRHeapFv
 0002:80501430       freeTail__7JKRHeapFv
 0002:80501470       getFreeSize__7JKRHeapFv
 0002:805017E0       copyMemory__7JKRHeapFPvPvUl
 0002:80501810       JKRDefaultMemoryErrorRoutine__FPvUli
 0002:80501830       setErrorHandler__7JKRHeapFPFPvUli_v
 0002:80501850       __nw__FUl
 0002:80501860       __nw__FUlP7JKRHeapi
 0002:80501870       __nwa__FUl
 0002:80501880       __nwa__FUli
 0002:80501890       __nwa__FUlP7JKRHeapi
 0002:805018A0       __dl__FPv
 0002:805018B0       __dla__FPv
 0002:805018C0       state_register__7JKRHeapCFPQ27JKRHeap6TStateUl
 0002:805018D0       state_compare__7JKRHeapCFRCQ27JKRHeap6TStateRCQ27JKRHeap6TState
 0002:805018F0       state_dump__7JKRHeapCFRCQ27JKRHeap6TState
 0002:80501900       setAltAramStartAdr__7JKRHeapFUl
 0002:80501910       getAltAramStartAdr__7JKRHeapFv
 0002:80501A70       create__10JKRExpHeapFUlP7JKRHeapb
 0002:80501C90       __ct__10JKRExpHeapFPvUlP7JKRHeapb
 0002:80503670       create__12JKRSolidHeapFUlP7JKRHeapb
 0002:80503780       __ct__12JKRSolidHeapFPvUlP7JKRHeapb
 0002:80503F00       create__11JKRUnitHeapFUlUlUlP7JKRHeapb
 0002:805040C0       __ct__11JKRUnitHeapFPUcPUcUlUlUlUlP7JKRHeapb
 0002:805041D0       clearBatArea__11JKRUnitHeapFv
 0002:80504B50       __ct__11JKRDisposerFv
 0002:805050A0       __as__Q28JUtility6TColorFRCQ28JUtility6TColor
 0002:805050F0       __sinit_\JKRThread_cpp
 0002:80505160       __ct__19JSUList<9JKRThread>Fb
 0002:80505190       __dt__19JSUList<9JKRThread>Fv
 0002:805051F0       __ct__17JSUList<7JKRTask>Fv
 0002:80505220       __dt__17JSUList<7JKRTask>Fv
 0002:80505280       create__7JKRAramFUlUllll
 0002:80505420       checkOkAddress__7JKRAramFPUcUlP12JKRAramBlockUl
 0002:80505750       JKRCheckCompressed_noASR__FPUc
 0002:80505780       JKRDecompExpandSize__FPUc
 0002:805057B0       decideAramGroupId__7JKRAramFi
 0002:805057D0       aramToMainRam__7JKRAramFUlPUcUl15JKRExpandSwitchUlP7JKRHeapiPUl
 0002:80506170       alloc__11JKRAramHeapFUlQ211JKRAramHeap10EAllocMode
 0002:805068C0       orderSync__12JKRAramPieceFiUlUlUlP12JKRAramBlock
 0002:805076B0       mount__10JKRArchiveFPCcQ210JKRArchive10EMountModeP7JKRHeapQ210JKRArchive15EMountDirection
 0002:80507E60       countResource__10JKRArchiveCFv
 0002:805093F0       fetchResource__14JKRAramArchiveFPQ210JKRArchive12SDIFileEntryPUl
 0002:805094F0       JKRConvertAttrToCompressionType__Fi
 0002:80509510       fetchResource__14JKRAramArchiveFPvUlPQ210JKRArchive12SDIFileEntryPUl
 0002:80509600       fetchResource_subroutine__14JKRAramArchiveFUlUlPUcUli
 0002:805096C0       fetchResource_subroutine__14JKRAramArchiveFUlUlP7JKRHeapiPPUc
 0002:8050ABB0       fetchResource__14JKRCompArchiveFPQ210JKRArchive12SDIFileEntryPUl
 0002:8050B400       open__10JKRDvdFileFl
 0002:8050B730       loadToMainRAM__12JKRDvdRipperFPCcPUc15JKRExpandSwitchUlP7JKRHeapQ212JKRDvdRipper15EAllocDirectionUlPiPUl
 0002:8050D310       prepareCommand__9JKRDecompFPUcPUcUlUlPFUl_v
 0002:8050D3A0       sync__9JKRDecompFP16JKRDecompCommandi
 0002:8050D400       orderSync__9JKRDecompFPUcPUcUlUl
 0002:8050D790       checkCompressed__9JKRDecompFPUc
 0002:8050D810       __ct__16JKRDecompCommandFv
 0002:8050D860       __ct__10JSUPtrLinkFPv
 0002:8050D880       __dt__11JKRDisposerFv
 0002:8050D8F0       __ct__10JSUPtrListFb
 0002:8050D930       __dt__10JSUPtrListFv
 0002:8050D9A0       initiate__10JSUPtrListFv
 0002:8050D9C0       setFirst__10JSUPtrListFP10JSUPtrLink
 0002:8050D9F0       append__10JSUPtrListFP10JSUPtrLink
 0002:8050DAA0       prepend__10JSUPtrListFP10JSUPtrLink
 0002:8050DB50       insert__10JSUPtrListFP10JSUPtrLinkP10JSUPtrLink
 0002:8050DC20       remove__10JSUPtrListFP10JSUPtrLink
 0002:8050DCD0       read__14JSUInputStreamFPvl
 0002:8050DD30       setState__10JSUIosBaseFQ210JSUIosBase8EIoState
 0002:8050E4B0       getHashCode__7JGadgetFPCc
 0002:8050E6E0       __ct__10JUTTextureFii9_GXTexFmt
 0002:8050E860       storeTIMG__10JUTTextureFPC7ResTIMGUc
 0002:8050E9E0       setEmbPaletteDelFlag__10JUTTextureFb
 0002:8050EB30       attachPalette__10JUTTextureFP10JUTPalette
 0002:8050EB70       init__10JUTTextureFv
 0002:8050EBA0       initTexObj__10JUTTextureFv
 0002:8050ECA0       initTexObj__10JUTTextureF7_GXTlut
 0002:8050EDA0       load__10JUTTextureF11_GXTexMapID
 0002:8050EE00       capture__10JUTTextureFii9_GXTexFmtbUc
 0002:8050EEC0       storeTLUT__10JUTPaletteF7_GXTlutP7ResTLUT
 0002:8050EF50       storeTLUT__10JUTPaletteF7_GXTlut10_GXTlutFmt15JUTTransparencyUsPv
 0002:8050EF80       load__10JUTPaletteFv
 0002:8050F000       __ct__10JUTNameTabFPC7ResNTAB
 0002:8050F040       setResource__10JUTNameTabFPC7ResNTAB
 0002:8050F080       getIndex__10JUTNameTabCFPCc
 0002:8050F120       getName__10JUTNameTabCFUs
 0002:8050F180       __dt__10JUTNameTabFv
 0002:8050F1C0       setCharColor__7JUTFontFQ28JUtility6TColor
 0002:8050F490       run__12JUTExceptionFv
 0002:8050F7D0       panic_f__12JUTExceptionFPCciPCce
 0002:8050F960       showFloat__12JUTExceptionFP9OSContext
 0002:8050FA70       searchPartialModule__12JUTExceptionFUlPUlPUlPUlPUl
 0002:8050FB30       showStack__12JUTExceptionFP9OSContext
 0002:8050FC20       showMainInfo__12JUTExceptionFUsP9OSContextUlUl
 0002:8050FE60       showGPR__12JUTExceptionFP9OSContext
 0002:8050FF10       showMapInfo_subroutine__12JUTExceptionFUlb
 0002:805100C0       showGPRMap__12JUTExceptionFP9OSContext
 0002:805101C0       showSRR0Map__12JUTExceptionFP9OSContext
 0002:80510280       printDebugInfo__12JUTExceptionFQ212JUTException9EInfoPageUsP9OSContextUlUl
 0002:80510330       isEnablePad__12JUTExceptionCFv
 0002:80510370       printContext__12JUTExceptionFUsP9OSContextUlUl
 0002:80510810       waitTime__12JUTExceptionFl
 0002:805108A0       createFB__12JUTExceptionFv
 0002:80510980       setPreUserCallback__12JUTExceptionFPFUsP9OSContextUlUl_v
 0002:80510990       queryMapAddress__12JUTExceptionFPcUllPUlPUlPcUlbb
 0002:80510B70       __dt__12JUTExceptionFv
 0002:80510BD0       __sinit_\JUTException_cpp
 0002:80510C20       __ct__39JSUList<Q212JUTException12JUTExMapFile>Fb
 0002:80510C50       __dt__39JSUList<Q212JUTException12JUTExMapFile>Fv
 0002:80510CB0       start__14JUTDirectPrintFv
 0002:80510D30       erase__14JUTDirectPrintFiiii
 0002:80510DD0       drawChar__14JUTDirectPrintFiii
 0002:80511020       changeFrameBuffer__14JUTDirectPrintFPvUsUs
 0002:80511240       setCharColor__14JUTDirectPrintFUcUcUc
 0002:805113C0       nullsub_2
 0002:805116D0       createManager__8JUTVideoFPC16_GXRenderModeObj
 0002:80511730       destroyManager__8JUTVideoFv
 0002:80511C50       nullsub_3
 0002:80512670       print_f__10JUTConsoleFPCce
 0002:80512730       print__10JUTConsoleFPCc
 0002:80512D60       drawDirect__17JUTConsoleManagerCFb
 0002:80518318       def_805181F8
 0002:805185D8       def_80518520
 0002:805198D0       drawInit__6J3DSysFv
 0002:8051B4D0       callDL__17J3DDisplayListObjCFv
 0002:8051BC70       prepareDraw__14J3DShapePacketCFv
 0002:8051C334       def_8051C150
 0002:8051C61C       def_8051C3EC
 0002:80522E90       nullsub_203
 0002:80522EA0       nullsub_204
 0002:80522EB0       nullsub_205
 0002:80522EC0       nullsub_206
 0002:80522ED0       nullsub_207
 0002:80525B98       def_80525AA0
 0002:80525D04       def_80525C70
 0002:80525E60       def_80525DD8
 0002:80525F8C       def_80525F28
 0002:80528434       def_805281D4
 0002:80528790       def_805284C4
 0002:80528BC0       initialize__13J3DDrawBufferFv
 0002:80528BF0       calcZRatio__13J3DDrawBufferFv
 0002:80528C30       allocBuffer__13J3DDrawBufferFUl
 0002:80528C90       frameInit__13J3DDrawBufferFv
 0002:805290F0       draw__13J3DDrawBufferCFv
 0002:80536180       nullsub_106
 0002:80536310       nullsub_107
 0002:8053A900       JMAVECScaleAdd__FPC3VecPC3VecP3Vecf
 0002:8053A930       JMAVECLerp__FPC3VecPC3VecP3Vecf
 0002:8053A960       JMAMTXApplyScale__FPA4_CfPA4_ffff
 0002:8053A9B0       __ct__Q25JMath13TRandom_fast_FUl
 0002:8053A9C0       atan2___Q25JMath18TAtanTable<1024,f>CFff
 0002:8053AAD0       get___Q25JMath18TAtanTable<1024,f>CFff
 0002:8053AB20       __sinit_\JMATrigonometric_cpp
 0002:8053AB60       __ct__Q25JMath18TSinCosTable<14,f>Fv
 0002:8053AC70       __ct__Q25JMath18TAtanTable<1024,f>Fv
 0002:8053AD30       __ct__Q25JMath22TAsinAcosTable<1024,f>Fv
 0002:8053ADF0       __ct__18JPAResourceManagerFPCvP7JKRHeap
 0002:8053AE50       swapTexture__18JPAResourceManagerFPC7ResTIMGPCc
 0002:8053AEF0       registRes__18JPAResourceManagerFP11JPAResource
 0002:8053AF10       registTex__18JPAResourceManagerFP10JPATexture
 0002:8053AF30       __ct__11JPAResourceFv
 0002:8053AFA0       init__11JPAResourceFP7JKRHeap
 0002:8053C094       def_8053BFB4
 0002:8053C3F0       def_8053C310
 0002:8053C980       drawP__11JPAResourceFP18JPAEmitterWorkData
 0002:8053CCB0       drawC__11JPAResourceFP18JPAEmitterWorkData
 0002:8053CFA0       setPTev__11JPAResourceFv
 0002:8053D644       def_8053D5C0
 0002:8053D830       calcWorkData_d__11JPAResourceFP18JPAEmitterWorkData
 0002:8053EAD0       nullsub_45
 0002:8053F840       setGX__12JPABaseShapeCFP18JPAEmitterWorkData
 0002:8054198C       def_805417FC
 0002:80541C60       __ct__17JPAResourceLoaderFPCUcP18JPAResourceManager
 0002:80544010       GDInitGDLObj
 0002:80544040       GDPadCurr32
 0002:805443C4       def_805441F8
 0002:80544B80       GDSetTexCoordGen
 0002:80544C88       def_80544BD0
 0002:80547B20       GDSetCurrentMtx
 0002:80548E50       def_80548928
 0002:8054FE20       nullsub_37
 0002:8054FE30       nullsub_38
 0002:8054FE40       nullsub_39
 0002:8054FE50       RSONotifyPreRSOLinkFar
 0002:8054FE60       RSONotifyPostRSOLinkFar
 0002:80550630       FindExportIndex
 0002:80550830       RSOFindExportSymbolAddr
 0002:80550CA0       RSOListInit
 0002:80550DF0       RSOLinkList
 0002:80550E00       cnvJumpCode
 0002:80550F10       RSOGetJumpCodeSize
 0002:80550F20       RSOMakeJumpCode
 0002:805510D0       RSOLinkJump
 0002:805511E0       RFLGetWorkSize
 0002:80551200       RFLInitResAsync
 0002:805515A0       RFLExit
 0002:80551730       bootloadDB2Res_
 0002:80551960       RFLAvailable
 0002:80551980       RFLiAlloc32
 0002:805519A0       RFLiFree
 0002:805519B0       RFLiGetDBManager
 0002:805519D0       RFLiGetHDBManager
 0002:805519F0       RFLiGetLoader
 0002:80551A10       RFLiGetWorking
 0002:80551A30       RFLiSetWorking
 0002:80551A40       RFLiGetManager
 0002:80551A50       RFLGetAsyncStatus
 0002:80551B60       RFLiGetUseDeluxTex
 0002:80551B80       RFLiGetLastReason
 0002:80551BA0       RFLiSetFileBroken
 0002:80551C10       RFLiInitLoader
 0002:80552BF0       RFLFreeCachedResource
 0002:80552C60       RFLIsResourceCached
 0002:80552CB0       RFLiInitAccessInfo
 0002:80552D30       RFLiExitAccessInfo
 0002:80552D80       RFLiIsWorking
 0002:80552D90       RFLiStartWorking
 0002:80553058       def_80552EB4
 0002:80554090       RFLiCloseAsync
 0002:805544F0       RFLGetModelBufferSize
 0002:805545D0       RFLInitCharModel
 0002:80554640       RFLiInitCharModel
 0002:805549B0       RFLSetMtx
 0002:80554A00       RFLSetExpression
 0002:80554A10       RFLGetFavoriteColor
 0002:80554A30       RFLiGetFacelineColor
 0002:80554A60       RFLLoadDrawSetting
 0002:80554D60       RFLDrawOpa
 0002:80554D70       RFLDrawXlu
 0002:80554D80       RFLLoadVertexSetting
 0002:80554E50       RFLLoadMaterialSetting
 0002:80556400       RFLSetModelDrawDoneCallback
 0002:805564B0       RFLiSetupCopyTex
 0002:80558C50       RFLMakeIcon
 0002:80558CD0       RFLiMakeIcon
 0002:80559190       RFLSetIconDrawDoneCallback
 0002:805591C0       RFLiInitHiddenDatabase
 0002:80559200       RFLiInitDatabase
 0002:80559270       bootloadCheckCRCCb_
 0002:805592E0       bootloadDBcallback_
 0002:80559520       RFLiBootLoadDatabaseAsync
 0002:8055A0A0       alarmCheckCb_
 0002:8055A250       RFLiInitCtrlBuf
 0002:8055ACA0       RFLiPickupCharInfo
 0002:8055AF00       RFLiClearDBBuffer
 0002:8055AFBC       NETGetUniversalCalendar
 0002:8055B0A0       NETGetRexPPCVersionPrintable
 0002:8055B0A8       NETMemCpy
 0002:8055B468       NETMemSet
 0002:8055B56C       Mail_strcpy
 0002:8055B59C       Mail_strlen
 0002:8055B5C0       STD_strnlen
 0002:8055B5F0       Mail_memcpy
 0002:8055B5F4       Mail_memset
 0002:8055B5F8       Mail_strcat
 0002:8055B648       Mail_strncat
 0002:8055B6A8       convNum
 0002:8055BC10       Mail_sprintf
 0002:8055BC9C       Mail_vsprintf
 0002:8055C080       def_8055BE04
 0002:8055C15C       NWC24FOpen
 0002:8055C250       NWC24iFOpenNand
 0002:8055C2D0       def_8055C28C
 0002:8055C388       NWC24iFOpenVF
 0002:8055DF14       def_8055DF04
 0002:8055DF9C       NWC24IsMsgLibOpened
 0002:8055DFB0       NWC24IsMsgLibOpenedByTool
 0002:805639E4       NWC24iEpochSecondsToDate
 0002:80563BB4       NWC24iDateToOSCalendarTime
 0002:80564614       NWC24iGetUniversalTime
 0002:80564A10       NWC24iSynchronizeRtcCounter
 0002:8057DD20       nullsub_4
 0002:8057EBD0       def_8057EBC4
 0002:8057F8E0       VFSysPDMDisk2DriveP
 0002:80580D20       nullsub_46
 0002:80580D80       dCommon_GetPhysicalOffset
 0002:805810E0       dCommon_ReadDummyBPB
 0002:80581260       dCommon_WriteDummyBPB
 0002:80581460       dCommon_getFileSizeFromDisk
 0002:80581580       dCommon_setLastDeviceErrorToDisk
 0002:805815F0       dCommon_setFatTypeToDisk
 0002:80581650       dCommon_getResvSecNumFromDisk
 0002:80581F60       A32_NANDRead
 0002:80582310       A32_NANDWrite
 0002:80582580       _MountPrfFile
 0002:80582C30       nanddrv_BuildUpFSInfoSector
 0002:80582C70       nanddrv_BuildUpBootSector
 0002:80582D70       nanddrv_mount
 0002:80582DE0       nanddrv_format
 0002:80583090       VFi_nanddrv_init_drv_tbl
 0002:80583250       nanddrv_physical_write
 0002:805833F0       VFi_InitSDWrok
 0002:80583400       imixcopy__7JASCalcFPCsPCsPsUl
 0002:80583430       bcopyfast__7JASCalcFPCvPvUl
 0002:80583470       bcopy__7JASCalcFPCvPvUl
 0002:80583550       bzerofast__7JASCalcFPvUl
 0002:80583580       bzero__7JASCalcFPvUl
 0002:80583650       pow2__7JASCalcFf
 0002:805839C0       alloc__64JASMemChunkPool<1024,Q217JASThreadingModel19ObjectLevelLockable>FUl
 0002:80583F80       __ct__7JASHeapFP11JASDisposer
 0002:80583FF0       initRootHeap__7JASHeapFPvUl
 0002:805848F0       alloc__17JASGenericMemPoolFUl
 0002:80584A60       getSystemHeap__9JASKernelFv
 0002:80584A70       getCommandHeap__9JASKernelFv
 0002:80584A80       setupAramHeap__9JASKernelFUlUl
 0002:80584B60       getResSize__15JASResArcLoaderFPC10JKRArchiveUs
 0002:80584EC0       JASReport__FPCce
 0002:80584FD0       execAllCommand__10JASPortCmdFv
 0002:80585010       execCommandOnce__Q210JASPortCmd9TPortHeadFv
 0002:80585090       execCommandStay__Q210JASPortCmd9TPortHeadFv
 0002:80585100       __sinit_\JASCmdStack_cpp
 0002:80585170       __ct__Q210JASPortCmd9TPortHeadFv
 0002:805851A0       __dt__Q210JASPortCmd9TPortHeadFv
 0002:80585200       __ct__8JASTrackFv
 0002:80585290       __ct__Q27JGadget13TLinkListNodeFv
 0002:805852A0       __dt__8JASTrackFv
 0002:80585320       __dl__58JASPoolAllocObject_MultiThreaded<Q28JASTrack11TChannelMgr>FPvUl
 0002:805853A0       __ct__Q317JASThreadingModel71InterruptsDisable<50JASMemPool_MultiThreaded<Q28JASTrack11TChannelMgr>>4LockFRC50JASMemPool_MultiThreaded<Q28JASTrack11TChannelMgr>
 0002:805854A0       setChannelMgrCount__8JASTrackFUl
 0002:80585580       __nw__58JASPoolAllocObject_MultiThreaded<Q28JASTrack11TChannelMgr>FUl
 0002:805855F0       init__8JASTrackFv
 0002:80585830       initTimed__8JASTrackFv
 0002:80585880       inherit__8JASTrackFRC8JASTrack
 0002:80585930       assignExtBuffer__8JASTrackFUlP14JASSoundParams
 0002:80585950       setSeqData__8JASTrackFPvUl
 0002:80585960       startSeq__8JASTrackFv
 0002:805859C0       __ct__18JASCriticalSectionFv
 0002:80585A50       start__8JASTrackFv
 0002:80585A60       close__8JASTrackFv
 0002:805863D0       updateTempo__8JASTrackFv
 0002:80586F20       append__Q28JASTrack5TListFP8JASTrack
 0002:80587230       nullsub_47
 0002:80587350       nullsub_48
 0002:80587510       __ct__Q28JASTrack11TChannelMgrFP8JASTrack
 0002:805875D0       init__Q28JASTrack11TChannelMgrFv
 0002:80587680       releaseAll__Q28JASTrack11TChannelMgrFv
 0002:80587CA0       init__12JASTrackPortFv
 0002:80587DD0       __ct__16JASRegisterParamFv
 0002:80587DF0       init__16JASRegisterParamFv
 0002:80588000       def_80587F58
 0002:80588010       __ct__10JASSeqCtrlFv
 0002:80588080       init__10JASSeqCtrlFv
 0002:805880E0       start__10JASSeqCtrlFPvUl
 0002:80588700       def_80588598
 0002:80589720       def_80589634
 0002:8058D1B0       nullsub_149
 0002:8058D1C0       nullsub_148
 0002:8058D530       createWaveBank__11JASWSParserFPCvP7JKRHeap
 0002:8058DAA0       createBank__12JASBNKParserFPCvP7JKRHeap
 0002:8058EAD0       getCurrentDir__16JASWaveArcLoaderFv
 0002:8058EAE0       __ct__10JASWaveArcFv
 0002:8058EF70       setEntryNum__10JASWaveArcFl
 0002:8058F280       release__10JASChannelFUs
 0002:80590260       free__10JASChannelFv
 0002:80594620       zero__Q224JAISoundParamsTransition11TTransitionFv
 0002:80596340       releaseHandle__8JAISoundFv
 0002:805966E0       asSe__8JAISoundFv
 0002:805966F0       asSeq__8JAISoundFv
 0002:80596700       asStream__8JAISoundFv
 0002:80596710       die_JAISound___8JAISoundFv
 0002:80596790       increasePrepareCount_JAISound___8JAISoundFv
 0002:805977A0       nullsub_173
 0002:80598400       __ct__22JAUAudioArcInterpreterFv
 0002:80598420       __dt__22JAUAudioArcInterpreterFv
 0002:80598460       parse__22JAUAudioArcInterpreterFPCv
 0002:805984D0       readCommandMore__22JAUAudioArcInterpreterFUl
 0002:805984E0       readCommand___22JAUAudioArcInterpreterFv
 0002:805988A0       __ct__17JAUAudioArcLoaderFP10JAUSection
 0002:805988F0       load__17JAUAudioArcLoaderFPCv
 0002:80598900       load__17JAUAudioArcLoaderFPCc
 0002:80598970       readWS__17JAUAudioArcLoaderFUlPCvUl
 0002:805989D0       readBNK__17JAUAudioArcLoaderFUlPCv
 0002:805989F0       readBSC__17JAUAudioArcLoaderFPCvUl
 0002:80598A00       readBST__17JAUAudioArcLoaderFPCvUl
 0002:80598A10       readBSTN__17JAUAudioArcLoaderFPCvUl
 0002:80598A20       readBMS__17JAUAudioArcLoaderFUlPCvUl
 0002:80598A50       readBMS_fromArchive__17JAUAudioArcLoaderFUl
 0002:80598A80       newVoiceBank__17JAUAudioArcLoaderFUlUl
 0002:80598AA0       newDynamicSeqBlock__17JAUAudioArcLoaderFUl
 0002:80598AE0       asSectionHeap__10JAUSectionFv
 0002:80598B00       readBSFT__17JAUAudioArcLoaderFPCv
 0002:80598B10       beginBNKList__17JAUAudioArcLoaderFUlUl
 0002:80598B20       endBNKList__17JAUAudioArcLoaderFv
 0002:80598B30       readMaxSeCategory__17JAUAudioArcLoaderFiii
 0002:80598B50       j_append__10JSUPtrListFP10JSUPtrLink
 0002:805992C0       __dt__Q228@unnamed@JAUSectionHeap_cpp@16TPushCurrentHeapFv
 0002:80599320       test__Q23std11bitset<255>CFUl
 0002:805994F0       newSoundTable__10JAUSectionFPCvUlb
 0002:805995C0       newSoundNameTable__10JAUSectionFPCvUlb
 0002:80599690       newStreamFileTable__10JAUSectionFPCvb
 0002:80599820       newSeSeqCollection__10JAUSectionFPCvUl
 0002:805998C0       newStaticSeqDataBlock___10JAUSectionF10JAISoundIDUl
 0002:80599A10       newStaticSeqData__10JAUSectionF10JAISoundIDPCvUl
 0002:80599A80       newStaticSeqData__10JAUSectionF10JAISoundID
 0002:80599B50       loadDVDFile__10JAUSectionFPCcb15JKRExpandSwitch
 0002:80599BF0       newCopy__10JAUSectionFPCvUll
 0002:80599C60       newWaveBank__10JAUSectionFUlPCv
 0002:80599D40       set__Q23std11bitset<255>FUlb
 0002:80599DE0       loadWaveArc__10JAUSectionFUlUl
 0002:80599EB0       loadWaveArc__10JAUSectionFUl
 0002:8059A090       newVoiceBank__10JAUSectionFUlUl
 0002:8059A180       beginNewBankTable__10JAUSectionFUlUl
 0002:8059A270       endNewBankTable__10JAUSectionFv
 0002:8059A330       setSeqDataArchive__14JAUSectionHeapFP10JKRArchive
 0002:8059A390       JAUNewSectionHeap__FP12JKRSolidHeapb
 0002:8059A410       JAUNewSectionHeap__Fb
 0002:8059A690       newDynamicSeqBlock__14JAUSectionHeapFUl
 0002:8059AAC0       init__16JAUSeqCollectionFPCv
 0002:8059ABA0       __ct__27JAUSeqDataMgr_SeqCollectionFv
 0002:8059ACF0       __ct__15JAUSeqDataBlockFv
 0002:8059AF90       appendDynamicSeqDataBlock__23JAUDynamicSeqDataBlocksFP15JAUSeqDataBlock
 0002:8059B030       loadDynamicSeq__23JAUDynamicSeqDataBlocksF10JAISoundIDbP14JAISeqDataUser
 0002:8059C1F0       stopSound__14JAUSoundObjectF10JAISoundIDUl
 0002:8059C390       init__13JAUSoundTableFPCv
 0002:8059C800       init__17JAUSoundNameTableFPCv
 0002:8059CDE0       __ct__18JAUStreamFileTableFv
 0002:8059CDF0       init__18JAUStreamFileTableFPCv
 0002:8059CE40       getNumFiles__18JAUStreamFileTableCFv
 0002:8059CE50       getFilePath__18JAUStreamFileTableCFi
 0002:8059D0E0       ARGetBaseAddress
 0002:8059D480       __dt__Q44nw4r2ut6detail12LinkListImplFv
 0002:8059D510       Erase__Q44nw4r2ut6detail12LinkListImplFQ54nw4r2ut6detail12LinkListImpl8Iterator
 0002:8059D560       Insert__Q44nw4r2ut6detail12LinkListImplFQ54nw4r2ut6detail12LinkListImpl8IteratorPQ34nw4r2ut12LinkListNode
 0002:8059D590       Erase__Q44nw4r2ut6detail12LinkListImplFPQ34nw4r2ut12LinkListNode
 0002:8059DC10       __ct__Q34nw4r2ut19TagProcessorBase<w>Fv
 0002:8059DC20       __dt__Q34nw4r2ut19TagProcessorBase<w>Fv
 0002:8059F1D0       GetFontHeight__Q34nw4r2ut10CharWriterCFv
 0002:8059F230       GetFontAscent__Q34nw4r2ut10CharWriterCFv
 0002:805A14B0       j_vsnprintf
 0002:805A2A70       __dt__Q34nw4r2ut17TextWriterBase<w>Fv
 0002:805A3600       CalcStringRect__Q34nw4r2ut17TextWriterBase<w>CFPQ34nw4r2ut4RectPCwi
 0002:805A3B00       Print__Q34nw4r2ut17TextWriterBase<w>FPCwi
 0002:805A4BF0       Console_Printf__Q24nw4r2dbFPQ44nw4r2db6detail11ConsoleHeadPCce
 0002:805A4C60       Console_GetTotalLines__Q24nw4r2dbFPQ44nw4r2db6detail11ConsoleHead
 0002:805A67F0       Assertion_Printf___Q24nw4r2dbFPCce
 0002:805A6890       ShowStack___Q24nw4r2dbFUl
 0002:805A6A00       Panic__Q24nw4r2dbFPCciPCce
 0002:805A6DE0       LytInit__Q24nw4r3lytFv
 0002:805A6E40       __ct__Q34nw4r3lyt4PaneFPCQ44nw4r3lyt3res4Pane
 0002:805A6F70       __dt__Q34nw4r3lyt4PaneFv
 0002:805A70B0       SetName__Q34nw4r3lyt4PaneFPCc
 0002:805A70F0       AppendChild__Q34nw4r3lyt4PaneFPQ34nw4r3lyt4Pane
 0002:805A7140       RemoveChild__Q34nw4r3lyt4PaneFPQ34nw4r3lyt4Pane
 0002:805A7180       GetVtxColor__Q34nw4r3lyt4PaneCFUl
 0002:805A7190       SetVtxColor__Q34nw4r3lyt4PaneFUlQ34nw4r2ut5Color
 0002:805A71A0       GetColorElement__Q34nw4r3lyt4PaneCFUl
 0002:805A71C0       nullsub_126
 0002:805A71D0       SetColorElement__Q34nw4r3lyt4PaneFUlUc
 0002:805A71F0       nullsub_127
 0002:805A7200       GetVtxColorElement__Q34nw4r3lyt4PaneCFUl
 0002:805A7210       SetVtxColorElement__Q34nw4r3lyt4PaneFUlUc
 0002:805A7220       FindPaneByName__Q34nw4r3lyt4PaneFPCcb
 0002:805A72D0       FindMaterialByName__Q34nw4r3lyt4PaneFPCcb
 0002:805A7390       CalculateMtx__Q34nw4r3lyt4PaneFRCQ34nw4r3lyt8DrawInfo
 0002:805A7690       Draw__Q34nw4r3lyt4PaneFRCQ34nw4r3lyt8DrawInfo
 0002:805A7720       DrawSelf__Q34nw4r3lyt4PaneFRCQ34nw4r3lyt8DrawInfo
 0002:805A7730       Animate__Q34nw4r3lyt4PaneFUl
 0002:805A77C0       AnimateSelf__Q34nw4r3lyt4PaneFUl
 0002:805A7880       BindAnimation__Q34nw4r3lyt4PaneFPQ34nw4r3lyt13AnimTransformb
 0002:805A78A0       UnbindAnimation__Q34nw4r3lyt4PaneFPQ34nw4r3lyt13AnimTransformb
 0002:805A7930       UnbindAllAnimation__Q34nw4r3lyt4PaneFb
 0002:805A7950       UnbindAnimationSelf__Q34nw4r3lyt4PaneFPQ34nw4r3lyt13AnimTransform
 0002:805A79B0       AddAnimationLink__Q34nw4r3lyt4PaneFPQ34nw4r3lyt13AnimationLink
 0002:805A79F0       FindAnimationLinkSelf__Q34nw4r3lyt4PaneFPQ34nw4r3lyt13AnimTransform
 0002:805A7A10       SetAnimationEnable__Q34nw4r3lyt4PaneFPQ34nw4r3lyt13AnimTransformbb
 0002:805A7F80       __dt__Q34nw4r3lyt5GroupFv
 0002:805B07E0       __ct__Q34nw4r3lyt8DrawInfoFv
 0002:805B1D50       FindAnimationLink__Q34nw4r3lyt6detailFPQ34nw4r2ut38LinkList<Q34nw4r3lyt13AnimationLink,0>PQ34nw4r3lyt13AnimTransform
 0002:805B1DD0       UnbindAnimationLink__Q34nw4r3lyt6detailFPQ34nw4r2ut38LinkList<Q34nw4r3lyt13AnimationLink,0>PQ34nw4r3lyt13AnimTransform
 0002:805B1E60       __dt__Q34nw4r3lyt16ResourceAccessorFv
 0002:805B1EA0       __ct__Q34nw4r3lyt16ResourceAccessorFv
 0002:805B1EC0       EqualsResName__Q34nw4r3lyt6detailFPCcPCc
 0002:805B1EF0       EqualsMaterialName__Q34nw4r3lyt6detailFPCcPCc
 0002:805B2A90       PPCMfmsr
 0002:805B2AA0       PPCMtmsr
 0002:805B2AB0       PPCMfhid0
 0002:805B2AC0       PPCMthid0
 0002:805B2AD0       PPCMfl2cr
 0002:805B2AE0       PPCMtl2cr
 0002:805B2B00       PPCSync
 0002:805B2B10       PPCHalt
 0002:805B2B90       PPCMffpscr
 0002:805B2BB0       PPCMtfpscr
 0002:805B2BE0       PPCMfhid2
 0002:805B2BF0       PPCMthid2
 0002:805B2C10       PPCMtwpar
 0002:805B3770       OSInit
 0002:805B40D0       OSRegisterVersion
 0002:805B41F0       OSCreateAlarm
 0002:805B4450       OSSetAlarm
 0002:805B4550       OSCancelAlarm
 0002:805B49A0       OnReset
 0002:805B4A30       OSSetAlarmUserData
 0002:805B4A40       OSGetAlarmUserData
 0002:805B4A50       OSSetAlarmTag
 0002:805B4CC0       OSFreeToHeap
 0002:805B4D50       OSInitAlloc
 0002:805B4DC0       OSCreateHeap
 0002:805B4E50       OSGetArenaHi
 0002:805B4E60       OSGetMEM1ArenaLo
 0002:805B4E70       OSGetMEM2ArenaLo
 0002:805B4E80       OSGetArenaLo
 0002:805B4E90       OSSetMEM1ArenaHi
 0002:805B4EA0       OSSetMEM2ArenaHi
 0002:805B4EB0       OSSetArenaHi
 0002:805B4EC0       OSSetMEM1ArenaLo
 0002:805B4ED0       OSSetMEM2ArenaLo
 0002:805B4EE0       OSSetArenaLo
 0002:805B4EF0       OSAllocFromMEM1ArenaLo
 0002:805B4F30       __AIClockInit
 0002:805B5150       __OSInitAudioSystem
 0002:805B5320       __OSStopAudioSystem
 0002:805B53F0       DCEnable
 0002:805B5410       DCInvalidateRange
 0002:805B5440       DCFlushRange
 0002:805B5470       DCStoreRange
 0002:805B54A0       DCFlushRangeNoSync
 0002:805B54D0       DCStoreRangeNoSync
 0002:805B5500       DCZeroRange
 0002:805B5530       ICInvalidateRange
 0002:805B5570       ICFlashInvalidate
 0002:805B55D0       DMAErrorHandler
 0002:805B5720       __OSCacheInit
 0002:805B5A70       OSSaveFPUContext
 0002:805B5A80       OSSetCurrentContext
 0002:805B5AE0       OSGetCurrentContext
 0002:805B5AF0       OSSaveContext
 0002:805B5B70       OSLoadContext
 0002:805B5C50       OSGetStackPointer
 0002:805B5C60       OSSwitchFiber
 0002:805B5C90       OSSwitchFiberEx
 0002:805B5CC0       OSClearContext
 0002:805B5CF0       OSInitContext
 0002:805B5DB0       OSDumpContext
 0002:805B6210       OSReport
 0002:805B6290       OSVReport
 0002:805B62A0       OSPanic
 0002:805B63D0       OSSetErrorHandler
 0002:805B6660       __OSUnhandledException
 0002:805B6E60       __OSGetExecParams
 0002:805B6E90       callback
 0002:805B6EA0       __OSLaunchNextFirmware
 0002:805B76A0       __OSLaunchMenu
 0002:805B99D0       OSDisableInterrupts
 0002:805B99F0       OSEnableInterrupts
 0002:805B9A10       OSRestoreInterrupts
 0002:805B9A40       __OSSetInterruptHandler
 0002:805B9DA0       __OSMaskInterrupts
 0002:805B9E20       __OSUnmaskInterrupts
 0002:805BA1C0       OSInitMessageQueue
 0002:805BA220       OSSendMessage
 0002:805BA2F0       OSReceiveMessage
 0002:805BA510       MEMIntrruptHandler
 0002:805BA560       OSProtectRange
 0002:805BA630       ConfigMEM1_24MB
 0002:805BA6B0       ConfigMEM1_48MB
 0002:805BA790       ConfigMEM2_52MB
 0002:805BA870       ConfigMEM2_56MB
 0002:805BAD10       OSInitMutex
 0002:805BAD50       OSLockMutex
 0002:805BAE30       OSUnlockMutex
 0002:805BAF00       __OSUnlockAllMutex
 0002:805BB0C0       OSRegisterShutdownFunction
 0002:805BB890       __OSReturnToMenuForError
 0002:805BB9D0       OSResetSystem
 0002:805BB9F0       WriteSramCallback
 0002:805BBB30       __OSInitSram
 0002:805BBD30       UnlockSram
 0002:805BC010       __OSSyncSram
 0002:805BC020       __OSReadROM
 0002:805BC150       OSGetWirelessID
 0002:805BC1D0       OSSetWirelessID
 0002:805BC270       __OSGetRTCFlags
 0002:805BC390       __OSClearRTCFlags
 0002:805BC4A0       SystemCallVector
 0002:805BC4C0       __OSInitSystemCall
 0002:805BC520       DefaultSwitchThreadCallback
 0002:805BC530       __OSThreadInit
 0002:805BC7C0       OSInitThreadQueue
 0002:805BC7D0       OSGetCurrentThread
 0002:805BC7E0       OSIsThreadSuspended
 0002:805BC800       OSIsThreadTerminated
 0002:805BC830       OSDisableScheduler
 0002:805BC870       OSEnableScheduler
 0002:805BC8B0       UnsetRun
 0002:805BC920       __OSGetEffectivePriority
 0002:805BC960       SetEffectivePriority
 0002:805BCB10       __OSPromoteThread
 0002:805BCB60       SelectThread
 0002:805BCD90       __OSReschedule
 0002:805BCDB0       OSYieldThread
 0002:805BCDF0       OSCreateThread
 0002:805BD060       OSExitThread
 0002:805BD150       OSCancelThread
 0002:805BD330       OSJoinThread
 0002:805BD480       OSDetatchThread
 0002:805BD520       OSResumeThread
 0002:805BD7C0       OSSuspendThread
 0002:805BD950       OSSleepThread
 0002:805BDA40       OSWakeupThread
 0002:805BDC40       SleepAlarmHandler
 0002:805BDCC0       OSSleepTicks
 0002:805BDD70       OSGetTime
 0002:805BDD90       OSGetTick
 0002:805BDDA0       __OSGetSystemTime
 0002:805BDE10       __OSTimeToSystemTime
 0002:805BDE70       OSTicksToCalendarTime
 0002:805BE1A0       OSUTF8to32
 0002:805BE2C0       OSUTF16to32
 0002:805BE330       OSUTF32toANSI
 0002:805BE3B0       OSUTF32toSJIS
 0002:805BE3F0       __OSGetIPCBufferHi
 0002:805BE400       __OSGetIPCBufferLo
 0002:805BE410       __OSInitIPCBuffer
 0002:805BE430       OSSetPowerCallback
 0002:805BE520       OSGetResetButtonState
 0002:805BE5D0       __OSInitSTM
 0002:805BE6F0       __OSShutdownToSBY
 0002:805BE770       __OSHotReset
 0002:805BE7F0       __OSSetVIForceDimming
 0002:805BE8F0       __OSSetIdleLEDMode
 0002:805BE930       __OSUnRegisterStateEvent
 0002:805BE9B0       __OSVIDimReplyHandler
 0002:805BE9C0       __OSDefaultResetCallback
 0002:805BE9D0       __OSDefaultPowerCallback
 0002:805BE9E0       __OSStateEventHandler
 0002:805BEB40       PlayRecordAlarmCallback
 0002:805BEB50       PlayRecordCallback
 0002:805BED9C       def_805BEBBC
 0002:805BF260       __OSWriteStateFlags
 0002:805BF350       __OSReadStateFlags
 0002:805BF540       __OSCreateNandbootInfo
 0002:805BF750       OSPlayTimeIsLimited
 0002:805BF930       __OSWriteExpiredFlag
 0002:805BFC00       __OSGetPlayTime
 0002:805C02F0       exit
 0002:805C0430       EXIImm
 0002:805C06B0       EXIImEx
 0002:805C0760       EXIDma
 0002:805C0860       EXISync
 0002:805C0ED0       EXISelect
 0002:805C1000       EXIDeselect
 0002:805C1680       EXILock
 0002:805C1780       EXIUnlock
 0002:805C33E0       __VIRetraceHandler
 0002:805C3744       def_805C372C
 0002:805C3BF0       VISetPreRetraceCallback
 0002:805C3C40       VISetPostRetraceCallback
 0002:805C3C90       getTiming
 0002:805C3DA0       def_805C3CAC
 0002:805C3DB0       __VIInit
 0002:805C3FB0       VIInit
 0002:805C4458       def_805C4440
 0002:805C4500       VIWaitForRetrace
 0002:805C54C0       VIFlush
 0002:805C5660       VIGetCurrentFrameBuffer
 0002:805C5670       VISetBlack
 0002:805C5790       VIGetTvFormat
 0002:805C57D4       def_805C57C4
 0002:805C5BB0       def_805C5BA0
 0002:805C5C60       VIResetDimmingCount
 0002:805C7800       __VISetRGBModeImm
 0002:805C7850       __VISetRevolutionModeSimple
 0002:805C7D00       PSMTXIdentity
 0002:805C7D30       PSMTXCopy
 0002:805C7D70       PSMTXConcat
 0002:805C7E40       PSMTXInverse
 0002:805C80C0       __PSMTXRotAxisRadInternal
 0002:805C8170       PSMTXRotAxisRad
 0002:805C81F0       PSMTXTrans
 0002:805C8230       PSMTXTransApply
 0002:805C8280       PSMTXScale
 0002:805C82B0       PSMTXScaleApply
 0002:805C8310       PSMTXQuat
 0002:805C83C0       C_MTXLookAt
 0002:805C86D0       PSMTXMultVec
 0002:805C8820       C_MTXPerspective
 0002:805C8910       C_MTXOrtho
 0002:805C8AA0       PSVECScale
 0002:805C8AC0       PSVECNormalize
 0002:805C8B60       PSVECMag
 0002:805C8BD0       PSVECCrossProduct
 0002:805C8C10       PSVECDistance
 0002:805C92F0       __GXInitRevisionBits
 0002:805C9420       GXInit
 0002:805C9930       __GXInitGX
 0002:805CA350       GXInitFifoBase
 0002:805CA4E0       GXSetCPUFifo
 0002:805CA6C0       GXSetGPFifo
 0002:805CA950       __GXSaveFifo
 0002:805CAA50       __GXIsGPFifoReady
 0002:805CAA60       GXGetGPStatus
 0002:805CAAB0       GXGetCPUFifo
 0002:805CAB40       GXGetFifoPtrs
 0002:805CAB60       GXGetFifoCount
 0002:805CAB70       GXGetFifoWrap
 0002:805CAB80       GXSetBreakPtCallback
 0002:805CACC0       __GXFifoInit
 0002:805CAEE0       GXSetVtxDesc
 0002:805CB0F4       def_805CAEFC
 0002:805CB330       GXClearVtxDesc
 0002:805CB370       GXSetVtxAttrFmt
 0002:805CB4E0       def_805CB39C
 0002:805CB698       def_805CB554
 0002:805CB7B0       GXSetTexCoordGen2
 0002:805CB858       def_805CB7D8
 0002:805CBA00       GXSetNumTexGens
 0002:805CBA30       GXSetMisc
 0002:805CBAB0       GXFlush
 0002:805CBB50       __GXAbort
 0002:805CBE80       GXSetDrawSync
 0002:805CBFF0       GXDrawDone
 0002:805CC0C0       GXPixModeSync
 0002:805CC290       GXSetDrawSyncCallback
 0002:805CC370       GXSetDrawDoneCallback
 0002:805CC440       n__GXPEInit
 0002:805CC4B0       __GXSetDirtyState
 0002:805CC730       GXBegin
 0002:805CCA20       GXSetCullMode
 0002:805CCAC0       GXSetDispCopySrc
 0002:805CCB00       GXSetTexCopySrc
 0002:805CCB40       GXSetDispCopyDst
 0002:805CCB70       GXSetTexCopyDst
 0002:805CCCA0       GXSetCopyClamp
 0002:805CCCD0       GXGetNumXfbLines
 0002:805CCD60       GXGetYScaleFactor
 0002:805CCF90       GXSetDispCopyYScale
 0002:805CD060       GXSetCopyClear
 0002:805CD0E0       GXSetCopyFilter
 0002:805CD2D0       GXSetDispCopyGamma
 0002:805CD430       GXCopyTex
 0002:805CD860       GXInitLightPos
 0002:805CD9D0       GXInitLightColor
 0002:805CD9E0       GXLoadLightObjImm
 0002:805CDA60       GXSetChanAmbColor
 0002:805CDB40       GXSetChanMatColor
 0002:805CDC20       GXSetNumChans
 0002:805CDC50       GXSetChanCtrl
 0002:805CDD00       GXGetTexBufferSize
 0002:805CDD44       def_805CDD1C
 0002:805CDE74       def_805CDE4C
 0002:805CDEF0       GXInitTexObj
 0002:805CE098       def_805CE030
 0002:805CE100       GXInitTexObjCI
 0002:805CE150       GXInitTexObjLOD
 0002:805CE5F0       GXLoadTexObj
 0002:805CE650       GXInitTlutObj
 0002:805CE680       GXLoadTlut
 0002:805CE720       GXInitTexCacheRegion
 0002:805CE7D0       GXInitTlutRegion
 0002:805CE7F0       GXInvalidateTexAll
 0002:805CE840       GXSetTexRegionCallback
 0002:805CE860       GXSetTlutRegionCallback
 0002:805CEBE0       __GXSetTmemConfig
 0002:805CEF30       GXSetTevIndirect
 0002:805CF2B0       GXSetNumIndStages
 0002:805CF2D0       GXSetTevDirect
 0002:805CF380       nullsub_6
 0002:805CF390       __GXSetIndirectMask
 0002:805CF3C0       __GXFlushTextureState
 0002:805CF490       GXSetTevColorIn
 0002:805CF4D0       GXSetTevAlphaIn
 0002:805CF510       GXSetTevColorOp
 0002:805CF570       GXSetTevAlphaOp
 0002:805CF5D0       GXSetTevColor
 0002:805CF630       GXSetTevColorS10
 0002:805CF750       GXSetTevKAlphaSel
 0002:805CF860       GXSetAlphaCompare
 0002:805CF8A0       GXSetZTexture
 0002:805CF930       GXSetTevOrder
 0002:805CFA90       GXSetNumTevStages
 0002:805CFAC0       GXSetFog
 0002:805CFCF0       GXSetFogRangeAdj
 0002:805CFE00       GXSetBlendMode
 0002:805CFE50       GXSetColorUpdate
 0002:805CFE80       GXSetAlphaUpdate
 0002:805CFEB0       GXSetZMode
 0002:805CFEF0       GXSetZCompLoc
 0002:805CFF20       GXSetPixelFmt
 0002:805CFFD0       GXSetDither
 0002:805D0000       GXSetDstAlpha
 0002:805D0030       GXSetFieldMask
 0002:805D0070       GXSetFieldMode
 0002:805D0250       GXCallDisplayList
 0002:805D04B0       GXSetProjection
 0002:805D0520       GXSetProjectionv
 0002:805D0570       GXGetProjectionv
 0002:805D05B0       GXLoadPosMtxImm
 0002:805D0600       GXLoadNrmMtxImm
 0002:805D0660       GXSetCurrentMtx
 0002:805D0820       GXSetViewport
 0002:805D0850       GXGetViewportv
 0002:805D08A0       GXSetScissor
 0002:805D0910       GXGetScissor
 0002:805D0960       GXSetScissorBoxOffset
 0002:805D09A0       GXSetClipMode
 0002:805D09D0       __GXSetMatrixIndex
 0002:805D0A60       GXSetGPMetric
 0002:805D0F7C       def_805D0B78
 0002:805D1270       def_805D0F9C
 0002:805D1340       __DVDFSInit
 0002:805D1370       DVDConvertPathToEntrynum
 0002:805D1680       DVDFastOpen
 0002:805D16F0       DVDOpen
 0002:805D1810       DVDClose
 0002:805D1B90       DVDOpenDir
 0002:805D1CA0       DVDReadDir
 0002:805D1D30       DVDCloseDir
 0002:805D1E00       nullsub_117
 0002:805D1E10       DVDInit
 0002:805D4048       def_805D3FE4
 0002:805D4EDC       def_805D4E54
 0002:805D5390       def_805D4EFC
 0002:805D5F70       DVDGetCommandBlockStatus
 0002:805D6304       def_805D6280
 0002:805D647C       def_805D618C
 0002:805D653C       def_805D6538
 0002:805D6884       def_805D6788
 0002:805D6B20       __DVDTestAlarm
 0002:805D6B50       nullsub_49
 0002:805D6B60       __DVDClearWaitingQueue
 0002:805D79C0       DVDSetAutoFatalMessaging
 0002:805D7EC0       DVDLowInit
 0002:805DA200       DVDLowUnmaskStatusInterrupts
 0002:805DA210       DVDLowMaskCoverInterrupt
 0002:805DC500       MEMCreateExpHeapEx
 0002:805DC5B0       MEMDestroyExpHeap
 0002:805DC5E0       MEMAllocFromExpHeapEx
 0002:805DC690       MEMFreeToExpHeap
 0002:805DC760       MEMGetAllocatableSizeForExpHeapEx
 0002:805DC8C0       MEMFreeToAllocator
 0002:805DCF90       nandCreate
 0002:805DD150       NANDPrivateCreate
 0002:805DD1D0       NANDPrivateCreateAsync
 0002:805DD300       NANDPrivateDelete
 0002:805DD4D0       NANDReadAsync
 0002:805DD5C0       NANDWriteAsync
 0002:805DD640       NANDSeek
 0002:805DD6E0       NANDSeekAsync
 0002:805DDDA0       nandComposePerm
 0002:805DDE00       nandSplitPerm
 0002:805DDE90       nandGetStatus
 0002:805DDFF0       nandGetStatusCallback
 0002:805DE070       NANDGetStatus
 0002:805DE0E0       NANDPrivateGetStatus
 0002:805DE150       NANDPrivateGetStatusAsync
 0002:805DE1E0       NANDSetUserData
 0002:805DE1F0       NANDGetUserData
 0002:805DE6E0       NANDPrivateOpen
 0002:805DE770       NANDOpenAsync
 0002:805DE8F0       NANDClose
 0002:805DE960       NANDCloseAsync
 0002:805DEF0C       def_805DEC4C
 0002:805DF340       nandCloseCallback
 0002:805DF760       nandIsPrivatePath
 0002:805DF7A0       nandIsUnderPrivatePath
 0002:805DF800       nandIsInitialized
 0002:805DF840       nandConvertErrorCode
 0002:805DF9F0       nandGenerateAbsPath
 0002:805DFDF0       nandCallback
 0002:805E0500       NANDLoggingAddMessageAsync
 0002:805E16B0       UnpackItem
 0002:805E1830       DeleteItemByID
 0002:805E19D0       CreateItemByID
 0002:805E1C50       SCFindByteArrayItem
 0002:805E1D30       SCReplaceByteArrayItem
 0002:805E1E60       SCFindU8Item
 0002:805E2760       def_805E247C
 0002:805E2780       SCGetAspectRatio
 0002:805E27E0       SCGetDisplayOffsetH
 0002:805E28C0       SCGetIdleMode
 0002:805E28D0       SCGetLanguage
 0002:805E2940       SCGetScreenSaverMode
 0002:805E2DA0       SCGetProductArea
 0002:805E38A0       ESP_InitLib
 0002:805E3900       ESP_CloseLib
 0002:805E3950       ESP_LaunchTitle
 0002:805E39F0       ESP_GetTicketViews
 0002:805E3B10       ESP_DiGetTicketView
 0002:805E3BC0       ESP_DiGetTmd
 0002:805E3CB0       ESP_GetTmdView
 0002:805E3D50       ESP_GetDataDir
 0002:805E3EC0       IPCInit
 0002:805E3F10       IPCReInit
 0002:805E4540       __ios_Ipc2
 0002:805E48D0       IOS_Open
 0002:805E4A00       IOS_CloseAsync
 0002:805E4AC0       IOS_Close
 0002:805E5160       IOS_IoctlAsync
 0002:805E52A0       IOS_Ioctl
 0002:805E5600       IOS_Ioctlv
 0002:805E56E0       IOS_IoctlvReboot
 0002:805E5D40       iosAllocAligned
 0002:805E6480       _isfsFuncCb
 0002:805E6C10       ISFS_GetAttrAsync
 0002:805E7260       ISFS_CreateFile
 0002:805E7360       ISFS_CreateFileAsync
 0002:805E79C0       j_IOS_Close
 0002:805E79D0       ISFS_CloseAsync
 0002:805E8134       def_805E80F0
 0002:805E8DD4       def_805E84C0
 0002:805EB410       WPADProbe
 0002:805EB5C0       WPADSetExtensionCallback
 0002:805EB790       WPADGetInfoAsync
 0002:805EB9B0       WPADControlMotor
 0002:805F017C       def_805EF0C0
 0002:805F0778       def_805F0694
 0002:805F2488       def_805F1858
 0002:805F408C       def_805F3EFC
 0002:805F4148       def_805F3E18
 0002:805F7660       nullsub_108
 0002:805FE9E0       nullsub_53
 0002:805FE9F0       nullsub_54
 0002:80600970       GKI_getpoolbuf
 0002:80601E50       nullsub_7
 0002:80601E60       nullsub_8
 0002:80601E70       nullsub_9
 0002:80601E80       nullsub_10
 0002:80601FD0       nullsub_11
 0002:80603470       LogMsg
 0002:80603530       LogMsg_0
 0002:80603550       LogMsg_1
 0002:80603570       LogMsg_2
 0002:80603590       LogMsg_3
 0002:806035F0       LogMsg_6
 0002:8060663C       nullsub_52
 0002:806080F4       def_806080B8
 0002:80608288       def_80608128
 0002:80608368       def_8060832C
 0002:8060844C       def_80608410
 0002:80608BD4       def_80608B88
 0002:80608D70       def_80608C00
 0002:806096DC       def_80609658
 0002:8060D958       nullsub_50
 0002:8060E8A8       nullsub_12
 0002:8060F10C       btm_initiate_rem_name
 0002:806138D0       btm_sec_execute_procedure
 0002:80613CB0       btm_sec_start_authorization
 0002:80614498       btu_hcif_send_cmd
 0002:80615F94       def_80615F58
 0002:80616154       def_80616118
 0002:806161EC       def_806161B0
 0002:80616330       def_806162F4
 0002:806163A0       def_80616364
 0002:80616444       def_80616408
 0002:80616E18       btsnd_hcic_auth_request
 0002:80616E94       btsnd_hcic_set_conn_encrypt
 0002:8061CA5C       nullsub_51
 0002:8061CD28       def_8061CB24
 0002:8061CE98       def_8061CDBC
 0002:8061CFFC       def_8061CF1C
 0002:8061D244       def_8061D094
 0002:8061D41C       def_8061D2D0
 0002:8061D7E4       def_8061D4AC
 0002:8061DA40       def_8061D874
 0002:8061DC24       def_8061DAD4
 0002:8061DD80       def_8061DCB0
 0002:8061FF28       def_8061F5D4
 0002:806200F8       l2cu_allocate_lcb
 0002:80621C5C       l2cu_create_conn
 0002:80623DFC       nullsub_112
 0002:80624520       def_806243CC
 0002:80624804       def_806247A0
 0002:80624978       def_806248C4
 0002:80624BB4       def_80624B4C
 0002:80624D28       def_80624C68
 0002:80625118       def_80625020
 0002:806252B4       def_80625194
 0002:80625474       def_80625338
 0002:806255C4       def_806254F4
 0002:806257AC       def_8062563C
 0002:806258CC       def_80625824
 0002:80625EF8       nullsub_55
 0002:8062B160       def_8062AD28
 0002:8062CE8C       def_8062CE28
 0002:8062D0C8       def_8062D054
 0002:8062D19C       def_8062D128
 0002:8062D678       def_8062D5D4
 0002:8062D760       sdpu_compare_uuid_arrays
 0002:8062D9D4       sdpu_compare_uuid_with_attr
 0002:8062DA64       sdpu_sort_attr_list
 0002:8062DAB4       strlen
 0002:8062DAD0       __va_arg
 0002:8062DB98       __register_global_object
 0002:8062DBB0       __destroy_global_chain
 0002:8062DBF8       __construct_new_array
 0002:8062DCFC       __dt__26__partial_array_destructorFv
 0002:8062DDB8       __construct_array
 0002:8062DEB0       __destroy_arr
 0002:8062DF28       __destroy_new_array
 0002:8062DFA8       __ptmf_test
 0002:8062DFD8       __ptmf_cmpr
 0002:8062E014       __ptmf_scall
 0002:8062E03C       __cvt_fp2unsigned
 0002:8062E098       __save_fpr
 0002:8062E0BC       __save_fpr23
 0002:8062E0C0       __save_fpr24
 0002:8062E0C8       __save_fpr26
 0002:8062E0CC       __save_fpr27
 0002:8062E0E4       __restore_fpr
 0002:8062E130       __save_gpr
 0002:8062E13C       _savegpr_17
 0002:8062E140       _savegpr_18
 0002:8062E144       _savegpr_19
 0002:8062E148       _savegpr_20
 0002:8062E14C       _savegpr_21
 0002:8062E150       _savegpr_22
 0002:8062E154       _savegpr_23
 0002:8062E158       _savegpr_24
 0002:8062E15C       _savegpr_25
 0002:8062E160       _savegpr_26
 0002:8062E164       _savegpr_27
 0002:8062E168       _savegpr_28
 0002:8062E16C       _savegpr_29
 0002:8062E188       _restgpr_17
 0002:8062E190       _restgpr_19
 0002:8062E194       _resgpr_20
 0002:8062E198       _restgpr_21
 0002:8062E19C       _restgpr_22
 0002:8062E1A0       _restgpr_23
 0002:8062E1A4       _restgpr_24
 0002:8062E1A8       _restgpr_25
 0002:8062E1AC       _restgpr_26
 0002:8062E1B0       _restgpr_27
 0002:8062E1B4       _restgpr_28
 0002:8062E1B8       _restgpr_29
 0002:8062E1C8       __div2u
 0002:8062E2B4       __div2i
 0002:8062E3EC       __mod2u
 0002:8062E4D0       __mod2i
 0002:8062E5DC       __shl2i
 0002:8062E600       __shr2u
 0002:8062E788       __cvt_dbl_usll
 0002:8062E854       __cvt_dbl_ull
 0002:8062E8FC       __init_cpp_exceptions
 0002:8062E938       __fini_cpp_exceptions
 0002:8062E96C       __register_fragment
 0002:8062E9B8       __unregister_fragment
 0002:8062E9E0       __sys_free
 0002:8062EA98       Block_link
 0002:8062EC90       deallocate_from_fixed_pools
 0002:8062EE7C       free
 0002:8062EFAC       __close_all
 0002:8062F050       __flush_all
 0002:8062F0BC       __ull2dec
 0002:8062F198       __timesdec
 0002:8062F420       __str2dec
 0002:8062F50C       __two_exp
 0002:8062F740       def_8062F548
 0002:8062F828       __equals_dec
 0002:8062F90C       __less_dec
 0002:8062FA0C       __minus_dec
 0002:8062FEE8       __num2dec_internal
 0002:8063004C       __num2dec
 0002:806301F0       __dec2num
 0002:8063094C       __prep_buffer
 0002:80630974       __flush_buffer
 0002:80630D34       fclose
 0002:80630DF0       fflush
 0002:80630F24       _ftell
 0002:80630FCC       ftell
 0002:80630FD0       _fseek
 0002:80631194       mbtowc
 0002:806311AC       __mbtowc_noconv
 0002:806311F8       __wctomb_noconv
 0002:80631214       mbstowcs
 0002:806312D4       wcstombs
 0002:8063138C       memmove
 0002:80631458       memchr
 0002:80631484       __memrchr
 0002:806314B0       memcmp
 0002:806314FC       __copy_longs_aligned
 0002:806315B8       __copy_longs_rev_aligned
 0002:80631660       __copy_longs_unaligned
 0002:80631720       __copy_longs_rev_unaligned
 0002:8063182C       __signbitd
 0002:80631844       __fpclassifyd
 0002:806318C0       __stdio_atexit
 0002:806318D0       parse_format
 0002:80631E44       def_80631C60
 0002:80631E8C       long2str
 0002:806320CC       longlong2str
 0002:8063237C       double2hex
 0002:80632744       round_decimal
 0002:8063286C       float2str
 0002:80633008       __pformatter
 0002:806336B0       def_80633108
 0002:8063390C       __StringWrite
 0002:80633978       fprintf
 0002:80633ABC       vsnprintf
 0002:80633BC8       snprintf
 0002:80633CBC       sprintf
 0002:806343B8       def_80634064
 0002:80634424       __sformatter
 0002:8063484C       def_806347F4
 0002:806349E4       def_8063498C
 0002:80635070       def_806346A8
 0002:806350BC       __StringRead
 0002:80635144       sscanf
 0002:8063531C       strcpy
 0002:806353DC       strncpy
 0002:80635420       strcat
 0002:8063544C       strcmp
 0002:806355A8       strchr
 0002:806355D8       strrchr
 0002:80635620       strstr
 0002:8063568C       __strtold
 0002:80636DC4       __strtoull
 0002:80637E54       def_80637C60
 0002:8063983C       def_806391BC
 0002:80639AA4       swprintf
 0002:80639CF0       wcsncpy
 0002:80639D94       fwide
 0002:80639EE4       abort
 0002:80639F70       __ieee754_acos
 0002:8063A23C       __ieee754_asin
 0002:8063A4D4       __ieee754_atan2
 0002:8063A72C       __ieee754_fmod
 0002:8063AD60       __ieee754_log10
 0002:8063AE74       __ieee754_pow\
 0002:8063B688       __ieee754_rem_pio2
 0002:8063BA0C       __kernel_cos
 0002:8063D1D4       __kernel_sin
 0002:8063D860       copysign
 0002:8063D88C       cos
 0002:8063DAA4       frexp
 0002:8063DB2C       ldexp
 0002:8063DC98       sin
 0002:8063DDDC       acos
 0002:8063DDE0       asin
 0002:8063DDE4       atan2
 0002:8063DDE8       fmod
 0002:8063DDEC       log10
 0002:8063DDF0       pow
 0002:8063DDF4       __ieee754_sqrt
 0002:8063E03C       nan
 0002:8063E040       sqrt
 0002:8063E0E4       strcasecmp
 0002:8063E1B0       gdev_cc_initialize
 0002:8063E1EC       gdev_cc_close
 0002:8063E1F4       gdev_cc_open
 0002:8063E218       gdev_cc_shutdown
 0002:8063E220       gdev_cc_read
 0002:8063E2D4       gdev_cc_write
 0002:8063E348       gdev_cc_pre_continue
 0002:8063E36C       gdev_cc_initinterrupts
 0002:8063E390       gdev_cc_peek
 0002:8063E404       gdev_cc_post_stop
 0002:8063E428       MWInitializeCriticalSection
 0002:8063E42C       MWEnterCriticalSection
 0002:8063E45C       MWExitCriticalSection
 0002:8063E464       CBGetBytesAvailableForRead
 0002:8063E46C       CircleBufferInitialize
 0002:8063E490       CircleBufferWriteBytes
 0002:8063E598       CircleBufferReadBytes
 0002:8063E6D8       TRK_main
 0002:8063E714       TRKNubMainLoop
 0002:8063EA64       TRKDispatchMessage
 0002:8063EB68       def_8063EAA8
 0002:8063EB84       InitMetroTRK
 0002:8063EC1C       InitMetroTRK_BBA
 0002:8063ED1C       __TRK_copy_vectors
 0002:8063EE50       TRKInitializeTarget
 0002:8063EF68       InitMetroTRKCommTable
 0002:8063F0A0       nullsub_58
 0002:8063F1B0       ReserveEXI2Port
 0002:8063F1C4       UnreserveEXI2Port
 0002:8063F1D8       TRK_board_display
 0002:8063F1F0       InitializeProgramEndTrap
 0002:8063F2F8       TRKGetNextEvent
 0002:8063F468       TRKDestructEvent
 0002:8063F470       TRKInitializeNub
 0002:8063F51C       TRKTerminateNub
 0002:8063F540       TRKNubWelcome
 0002:8063F68C       TRKGetInput
 0002:8063F6F8       TRKInitializeSerialHandler
 0002:8063F700       TRKTerminateSerialHandler
 0002:8063FD48       TRKTargetContinue
 0002:8063FD7C       TRKSaveExtended1Block
 0002:8063FF40       TRKRestoreExtended1Block
 0002:806401C4       TRKGetBuffer
 0002:80640CA4       def_80640C78
 0002:80640EB4       def_80640E88
 0002:80641A24       __TRK_get_MSR
 0002:80642538       TRKSwapAndGo
 0002:80642650       TRKTargetInterrupt
 0002:80642B78       TRKTargetSupportRequest
 0002:80642D6C       TRKTargetStopped
 0002:80642D7C       TRKTargetSetStopped
 0002:80643258       __DBMtrHandler
 0002:80643278       nullsub_133
 0002:8064327C       __DBIntrHandler
 0002:8064329C       nullsub_134
 0002:806432A0       DBInitComm
 0002:806432FC       DBOpen
 0002:80643350       DBQueryData
 0002:806433F4       DBRead
 0002:80643474       DBWrite
 0002:80643584       DBInitInterrupts
 0002:80643588       DBClose
 0002:8064358C       __EXI2Imm
 0002:80643874       __DBEXIInit
 0002:80643930       __DBEXIReadReg
 0002:80643A54       __DBEXIWriteReg
 0002:80643B58       __DBEXIReadRam
 0002:80643C38       __DBEXIWriteRam
 0008:80645208       gZeroVec
 0008:80646D80       aAudioresSpkres
 0008:80647080       sKeepBendPower__24@unnamed@DinoPackun_cpp@
 0008:8064709C       sJointRadius__24@unnamed@DinoPackun_cpp@
 0008:80647968       sCameraTable__26@unnamed@CameraHolder_cpp@
 0008:80647E58       sEffectDataTable__29@unnamed@SimpleEffectObj_cpp@
 0008:80648410       hNoMoveNoTurnParam__19@unnamed@Karon_cpp@
 0008:80648C88       sUniquePlanetCreateFuncTable__16PlanetMapCreator
 0008:80649130       cHitSensorOffsetCage__13BreakableCage
 0008:8064913C       cHitSensorOffsetFixation__13BreakableCage
 0008:80649930       cCreateTable__28@unnamed@NameObjFactory_cpp@
 0008:80649970       cCreateTable__14NameObjFactory
 0008:8064B9F8       aFacea
 0008:8064BB00       sAnimSoundTable__25@unnamed@GhostPlayer_cpp@
 0008:8064BF08       aTonguepos
 0008:8064C8D0       sL1RadAndOfs__25@unnamed@BloomEffect_cpp@
 0008:8064C8E0       sL2RadAndOfs__25@unnamed@BloomEffect_cpp@
 0008:8064C8F8       sTexMtxID__25@unnamed@BloomEffect_cpp@
 0008:8064CA30       cRemoveString__27@unnamed@LayoutManager_cpp@
 0008:8064CAD8       sGroupFunctionTable__Q219ReplaceTagProcessor8ImplArgs
 0008:8064CAF0       cStarPaneName__34@unnamed@ScenarioSelectLayout_cpp@
 0008:8064CB08       cQuestionPaneName__34@unnamed@ScenarioSelectLayout_cpp@
 0008:8064CF18       cLanguages__22@unnamed@Language_cpp@
 0008:8064CF80       sLayoutExt__26@unnamed@LayoutHolder_cpp@
 0008:8064CFC0       GXNtscIntDf
 0008:8064D278       cStationedFileInfo__31@unnamed@StationedFileInfo_cpp@
 0008:8064E040       aGamedataBin
 0008:8064E050       aBannerBin
 0008:8064E220       aRarc
 0008:8064E880       aMsgstdbn_0
 0008:80654798       miiFavoriteColors
 0008:8065AD68       a0123456789abcd
 0008:8065B6E0       __ptmf_null
 0008:8065B708       aGcnMemAllocCIn
 0008:8065B73E       aMetrowerksCwRu
 0008:8065BC70       aABETY
 0008:8065BC80       aIMSP
 0008:8065BC8C       aMDY
 0008:8065BC98       aSunSundayMonMo
 0008:8065BCF0       aJanJanuaryFebF
 0008:8065BD78       aInf
 0008:8065BD7D       aInf_0
 0008:8065BD82       aInf_1
 0008:8065BD86       aInf_2
 0008:8065BD8A       aNan
 0008:8065BD8F       aNan_0
 0008:8065BD94       aNan_1
 0008:8065BD98       aNan_2
 0009:8065C780       aS03d_2
 0009:8065C78C       aS03d_1
 0009:8065C798       aSS03d
 0009:8065C7A8       aSS03d_0
 0009:8065C7B8       aSS_12
 0009:8065C7C0       aSCanm
 0009:8065C7C8       aInitfunction
 0009:8065C7D8       aData_0
 0009:8065C7E0       aMapobj
 0009:8065C7E8       aMapobjstrongli
 0009:8065C7FC       aMapobjnoshadow
 0009:8065C80C       aMapobjnosilhou
 0009:8065C820       aMapobjdecorati
 0009:8065C834       aMapobjnocalcan
 0009:8065C848       aMapobjmovement
 0009:8065C858       aMapobjnomoveme
 0009:8065C86C       aMapobjindirect
 0009:8065C87C       aMapobjindirect_0
 0009:8065C898       aMapobjnomoveme_0
 0009:8065C8C8       aClippedmappart
 0009:8065C8D8       aCollisionmapob
 0009:8065C8E8       aCollisionmapob_0
 0009:8065C908       aCollisionmapob_1
 0009:8065C920       aCollisionmapob_2
 0009:8065C944       aCollisionmapob_3
 0009:8065C968       aEnemy
 0009:8065C970       aEnemydecoratio
 0009:8065C980       aEnemyindirect
 0009:8065C990       aEnemysilhouett
 0009:8065C9A0       aEnemynoshadow
 0009:8065C9B0       aEnemynomovemen
 0009:8065C9C0       aBoss
 0009:8065C9C8       aNpcnoshadow
 0009:8065C9D4       aNpcnocalcanim
 0009:8065C9E4       aRide
 0009:8065C9EC       aRidesilhouette
 0009:8065C9FC       aPlanet
 0009:8065CA04       aPlanetindirect
 0009:8065CA14       aDynamicmapobj
 0009:8065CA24       aPlayerdecorati
 0009:8065CA38       aItem
 0009:8065CA40       aBloom
 0009:8065CA48       aBossbussun
 0009:8065CA54       aCrystalitem
 0009:8065CA60       aFirebarball
 0009:8065CA70       aGlibird
 0009:8065CA78       aHipdropstarmov
 0009:8065CA88       aStorybook
 0009:8065CA98       aStorybookfilte
 0009:8065CAA8       aWorldmapminiob
 0009:8065CAB8       aGhostmazemask
 0009:8065CAC8       aCrystal
 0009:8065CAD0       aTamakoro
 0009:8065CADC       aSuperdreamer
 0009:8065CAEC       aGhost2dwater
 0009:8065CAFC       aWoodlogbridge
 0009:8065CB50       aBinder
 0009:8065CB58       aEnemyattack
 0009:8065CB64       aEnemysimple
 0009:8065CB70       aMapobjpress
 0009:8065CB7C       aMapobjsimple
 0009:8065CB90       aMessage
 0009:8065CB98       aPukupuku
 0009:8065CBA4       aKillertargetma
 0009:8065CBB8       aPriorbinder
 0009:8065CBC4       aSwitch
 0009:8065CBCC       aPush
 0009:8065CBD8       aBellydragonhea
 0009:8065CBE8       aBellydragonbod
 0009:8065CBF8       aBellydragonwea
 0009:8065CC10       aKoopajrrobot
 0009:8065CC20       aKoopajrcastle
 0009:8065CC30       aKoopajrcastlet
 0009:8065CC48       aBossbussunshot
 0009:8065CC60       aGhost
 0009:8065CC68       aHipdropstar
 0009:8065CC74       aJumphole
 0009:8065CC80       aKarikari
 0009:8065CC8C       aKinokooneup
 0009:8065CC98       aKuribo
 0009:8065CCA0       aLeafboard
 0009:8065CCAC       aPunchbox
 0009:8065CCB8       aSandbird
 0009:8065CCC4       aSnowstep
 0009:8065CCD0       aSphereplayer
 0009:8065CCE0       aSphereplayerbi
 0009:8065CCF8       aSphereplayerhi
 0009:8065CD08       aSpincloudblock
 0009:8065CD18       aSupporttico
 0009:8065CD24       aSwitchname
 0009:8065CD30       aUsetype
 0009:8065CD38       aInitactorBcsv
 0009:8065CD48       aInitactorSBcsv
 0009:8065CD5C       aSArc
 0009:8065CD64       aRail
 0009:8065CD6C       aNeed
 0009:8065CD74       aDefaultpos
 0009:8065CD80       aUsescaleforpar
 0009:8065CD94       aModel
 0009:8065CD9C       aExecutor
 0009:8065CDA8       aLight
 0009:8065CDB0       aBinder_0
 0009:8065CDB8       aParam00f32
 0009:8065CDC4       aParam01f32
 0009:8065CDD0       aParam00int
 0009:8065CDDC       aEffect
 0009:8065CDE4       aSound
 0009:8065CDEC       aParam00vecx
 0009:8065CDF8       aParam00vecy
 0009:8065CE04       aParam00vecz
 0009:8065CE10       aShadowS
 0009:8065CE1C       aShadow
 0009:8065CE24       aClipping
 0009:8065CE30       aFarmax
 0009:8065CE38       aGroupclipping
 0009:8065CE48       aDemosimplecast
 0009:8065CE5C       aStarpointer
 0009:8065CE68       aParam00str
 0009:8065CE74       aInitcollisionS
 0009:8065CE8C       aCollisionname
 0009:8065CE9C       aSensorname
 0009:8065CEA8       aJointname
 0009:8065CEB4       aInitscaleSBcsv
 0009:8065CEC8       aScale
 0009:8065CED0       aInitsensorSBcs
 0009:8065CEE4       aSensortype
 0009:8065CEF0       aRadius
 0009:8065CEF8       aOffset
 0009:8065CF00       aHitsensornumma
 0009:8065CF10       aCallback
 0009:8065CF1C       aInitswitchSBcs
 0009:8065CF30       aSwAppear
 0009:8065CF40       aUseread
 0009:8065CF48       aNeedread
 0009:8065CF58       aSwDead
 0009:8065CF60       aUsewrite
 0009:8065CF6C       aNeedwrite
 0009:8065CF78       aUsewriteauto
 0009:8065CF88       aNeedwriteauto
 0009:8065CF98       aSwA
 0009:8065CFA0       aSwB
 0009:8065CFA8       aSwAwake
 0009:8065CFB8       aPlanemodecube
 0009:8065CFC8       aTowermodecylin
 0009:8065CFE0       aBody_0
 0009:8065CFE8       aSurfacecircle
 0009:8065CFF8       aSurfaceoval
 0009:8065D004       aSurfacebox
 0009:8065D010       aVolumesphere
 0009:8065D020       aVolumeoval
 0009:8065D02C       aVolumeovalpole
 0009:8065D03C       aVolumecylinder
 0009:8065D04C       aVolumebox
 0009:8065D058       aVolumeflatmode
 0009:8065D068       aVolumeline
 0009:8065D0A0       aSBcsv
 0009:8065D0A8       aName
 0009:8065D0B0       aGroupname
 0009:8065D0BC       aJoint
 0009:8065D0C4       aType
 0009:8065D0CC       aRadius_0
 0009:8065D0D4       aSize
 0009:8065D0DC       aModel_0
 0009:8065D0E4       aLinestart
 0009:8065D0F0       aLineend
 0009:8065D0F8       aLinestartradiu
 0009:8065D108       aLineendradius
 0009:8065D118       aDropoffset
 0009:8065D124       aActorTrans
 0009:8065D134       aBaseMatrix
 0009:8065D144       aFixPosition
 0009:8065D154       aOtherTrans
 0009:8065D164       aOtherMatrix
 0009:8065D174       aLocalrotate
 0009:8065D180       aDroplength
 0009:8065D18C       aDropstart
 0009:8065D198       aFollowscale
 0009:8065D1A4       aSyncshow
 0009:8065D1B0       aCollision
 0009:8065D1C0       aGravity
 0009:8065D1C8       aVolumestart
 0009:8065D1D4       aVolumeend
 0009:8065D1E0       aVolumecut
 0009:8065D1EC       jpt_80018560
 0009:8065D278       aGame_5
 0009:8065D280       aMbgmSmg2Boss08
 0009:8065D294       aMbgmSmg2Boss01
 0009:8065D2A8       aMbgmSmg2Boss03
 0009:8065D2BC       aMbgmSmgBoss03a
 0009:8065D2D1       aBgmSmgBoss03b
 0009:8065D2E4       aMbgmSmgBoss05a
 0009:8065D2F8       aMbgmSmgBoss05b
 0009:8065D30C       aMbgmSmgBoss01a
 0009:8065D320       aMbgmSmgBoss01b
 0009:8065D334       jpt_8001B7B4
 0009:8065D358       aBgmSmg2EvDepar
 0009:8065D370       aJunglegliderga_0
 0009:8065D384       aMbgmGlider
 0009:8065D390       aChallengeglide_0
 0009:8065D3A8       aMbgmSmg2Galaxy
 0009:8065D3BC       aAbekobegalaxy
 0009:8065D3CC       aMbgmMiniGame
 0009:8065D3E0       aBgmEvBossrush
 0009:8065D3F0       aBgmEvBossrush0
 0009:8065D404       aVskoopalv1gala
 0009:8065D418       aVskoopagravity
 0009:8065D430       aVskoopalv3gala
 0009:8065D448       aQuicksandgalax
 0009:8065D458       aStmStarChance3
 0009:8065D46C       aMbgmStarChance
 0009:8065D480       aMbgmStarChance_0
 0009:8065D494       aBgmJgAppearPla
 0009:8065D4AC       aMbgmSmg2Galaxy_0
 0009:8065D4C4       aMbgmSmg2MarioS
 0009:8065D4DC       aMbgmSmg2MarioS_0
 0009:8065D4F4       aMbgmSmg2MarioS_1
 0009:8065D50C       aStmSmg2FirstAs
 0009:8065D524       aStmSmg2SecondA
 0009:8065D53C       aVskoopajrlv1ga
 0009:8065D550       aStmSmg2FirstAs_0
 0009:8065D568       aStmSmg2Galaxy0
 0009:8065D57C       aBgmSmg2Boss04a
 0009:8065D590       aBgmSmg2EvPorte
 0009:8065D5A4       aBgmFireA
 0009:8065D5C4       aCamTypeEyeposF_2
 0009:8065D5E0       aCamTypeDead
 0009:8065D5F0       aCamTypeDpd_0
 0009:8065D600       aCamTypeAnim
 0009:8065D610       aCamTypeBlackHo
 0009:8065D624       aCamTypeObjPara
 0009:8065D63C       aCamTypePointFi
 0009:8065D650       aSD_1
 0009:8065D6B8       aSS_13
 0009:8065D728       aHitmarknormal_0
 0009:8065D738       aDreamerdeadcou_1
 0009:8065D750       aO_13
 0009:8065D764       aO_14
 0009:8065D778       aO_15
 0009:8065D790       aAiaO
 0009:8065D7A8       aAiO
 0009:8065D7BC       aInO
 0009:8065D81C       aIA
 0009:8065D834       a1up
 0009:8065D848       aA_1
 0009:8065D860       aIA_0
 0009:8065D87C       aI_16
 0009:8065D8A0       a2p
 0009:8065D8B4       aO_7
 0009:8065D8C8       aEnIn_0
 0009:8065D8E4       a120EnIn_1
 0009:8065D900       aDark
 0009:8065D908       aQuick
 0009:8065D910       aPurple_1
 0009:8065D918       aEnIn
 0009:8065D934       a120EnIn_2
 0009:8065D954       aIslandfleetgal
 0009:8065D968       aLocalizedataS
 0009:8065D97C       aObjectdataS
 0009:8065D98C       aLightdataS
 0009:8065D99C       aDemodataS
 0009:8065D9AC       aMappartsdataS
 0009:8065D9C0       aSArc_1
 0009:8065D9C8       aRegionLayoutda
 0009:8065D9E0       aLayoutdataS
 0009:8065D9F0       a16x9_0
 0009:8065D9F8       aSSArc
 0009:8065DA04       aDesign_0
 0009:8065DA0C       aSound_1
 0009:8065DA14       aDemo_1
 0009:8065DA1C       aLight_3
 0009:8065DA24       aZoneinfo_0
 0009:8065DA30       aStagedataSSsce
 0009:8065DA50       aFootprintctrl
 0009:8065DA68       aFootprintBti
 0009:8065DA78       aSBcsv_8
 0009:8065DA8C       aFootnummax
 0009:8065DA98       aSideoffset
 0009:8065DAA4       aSidesize
 0009:8065DAB0       aFrontsize
 0009:8065DABC       aDistancemin
 0009:8065DAC8       aSS_8
 0009:8065DB24       aID
 0009:8065DD38       sFurParam__22@unnamed@FurMulti_cpp@
 0009:8065DDA0       aBody_1
 0009:8065DDA8       aLengthBti
 0009:8065DDB4       aIndirectBti
 0009:8065DDC4       aDensityBti
 0009:8065DDD0       aFurTxt
 0009:8065DDF8       aRange_0
 0009:8065DE00       aDistant
 0009:8065DE08       aPriority_0
 0009:8065DE14       aGravityId
 0009:8065DE20       aGravityType
 0009:8065DE30       aNormal_4
 0009:8065DE38       aShadow_15
 0009:8065DE40       aMagnet
 0009:8065DE48       aPower
 0009:8065DE50       aLight_2
 0009:8065DE58       aHeavy
 0009:8065DE60       aInverse
 0009:8065DE68       aType_0
 0009:8065DE70       aName_2
 0009:8065DE78       aObjArg0
 0009:8065DE84       aShapemodelno
 0009:8065DE94       aAreashapeno
 0009:8065DEA0       aPosX
 0009:8065DEA8       aPosY
 0009:8065DEB0       aPosZ
 0009:8065DEB8       aDirX
 0009:8065DEC0       aDirY
 0009:8065DEC8       aDirZ
 0009:8065DED0       aScaleX_0
 0009:8065DED8       aScaleY_0
 0009:8065DEE0       aScaleZ
 0009:8065DEE8       aObjArg1
 0009:8065DEF4       aObjArg2
 0009:8065DF00       aObjArg3
 0009:8065DF0C       aObjArg4
 0009:8065DF18       aObjArg5
 0009:8065DF24       aObjArg6
 0009:8065DF30       aObjArg7
 0009:8065DF3C       aFollowid
 0009:8065DF48       aGroupid
 0009:8065DF50       aClippinggroupi
 0009:8065DF60       aDemogroupid
 0009:8065DF6C       aLId_1
 0009:8065DF74       aPriority
 0009:8065DF80       aCommonpathId
 0009:8065DF90       aSwA_0
 0009:8065DF98       aSwB_0
 0009:8065DFA0       aSwAppear_0
 0009:8065DFB0       aSwDead_0
 0009:8065DFB8       aSwAwake_0
 0009:8065DFC4       aSwParam
 0009:8065DFD0       aMessageid
 0009:8065DFDC       aCamerasetid
 0009:8065DFE8       aViewgroupid
 0009:8065DFF4       aParamscale
 0009:8065E000       aCastid_0
 0009:8065E008       aDemoname
 0009:8065E014       aTimesheetname
 0009:8065E024       aDemoskip
 0009:8065E030       aPathArg0
 0009:8065E03C       aPathArg1
 0009:8065E048       aPathArg2
 0009:8065E054       aPathArg3
 0009:8065E060       aPathArg4
 0009:8065E06C       aPathArg5
 0009:8065E078       aPathArg6
 0009:8065E084       aPathArg7
 0009:8065E090       aPathId
 0009:8065E098       aUsage
 0009:8065E0A0       aPnt0X
 0009:8065E0A8       aPnt0Y
 0009:8065E0B0       aPnt0Z
 0009:8065E0B8       aPnt1X
 0009:8065E0C0       aPnt1Y
 0009:8065E0C8       aPnt1Z
 0009:8065E0D0       aPnt2X
 0009:8065E0D8       aPnt2Y
 0009:8065E0E0       aPnt2Z
 0009:8065E0E8       aClosed_0
 0009:8065E0F0       aClose_3
 0009:8065E0F8       aObjId
 0009:8065E100       aMappartsId
 0009:8065E10C       aGeneratorid
 0009:8065E120       aAbuttonpositio
 0009:8065E180       aNw4rPointerMus
 0009:8065E1A4       aLinklistH
 0009:8065E1B0       aNw4rPointerMus_0
 0009:8065E1D4       aLinklistH_0
 0009:8065E1E0       aNw4rPointerMus_1
 0009:8065E204       aLinklistH_1
 0009:8065E210       aNw4rPointerMus_2
 0009:8065E234       aLinklistH_2
 0009:8065E240       aNw4rPointerMus_3
 0009:8065E264       aLinklistH_3
 0009:8065E270       aNw4rFailedAsse
 0009:8065E2A4       aCommonH
 0009:8065E2B0       aNw4rFailedAsse_0
 0009:8065E2E4       aMaterialH
 0009:8065E2F0       aNw4rFailedAsse_1
 0009:8065E324       aMaterialH_0
 0009:8065E330       aInddummy_0
 0009:8065E33C       aScreendummy_0
 0009:8065E348       aMirrortex_0
 0009:8065E3AC       aSKcl
 0009:8065E3B4       aSPa
 0009:8065E3BC       aMovelimit
 0009:8065E3C8       aWatersurface
 0009:8065E448       aMirrorarea_2
 0009:8065E460       aBody_70
 0009:8065E468       aS02d_0
 0009:8065E470       aShadowtype
 0009:8065E47C       aMoveconditiont
 0009:8065E490       aRotatespeed
 0009:8065E49C       aRotateangle
 0009:8065E4A8       aRotateaxis
 0009:8065E4B8       aRotateacceltyp
 0009:8065E4C8       aRotatestoptime
 0009:8065E4D8       aRotatetype
 0009:8065E4E4       aSignmotiontype
 0009:8065E4F8       aWater_2
 0009:8065E500       aShallow
 0009:8065E508       aPullback_0
 0009:8065E530       aGalaxyname
 0009:8065E558       aFilecachesize
 0009:8065E568       aGame_3
 0009:8065E570       aSD_0
 0009:8065E590       a0
 0009:8065E592       a000
 0009:8065E5A4       aGalaxynameS
 0009:8065E5B4       aGalaxynameshor
 0009:8065E5C8       aScenarionameGr
 0009:8065E5E4       aScenarionameSD
 0009:8065E5F8       aGalaxynameWorl
 0009:8065E618       aSS_9
 0009:8065E620       aS03d
 0009:8065E628       aAnimblendsingl
 0009:8065E640       aAnimblenddoubl
 0009:8065E658       aAnimblendtripl
 0009:8065E670       aActionname_1
 0009:8065E67C       aBckname1st
 0009:8065E688       aBckname2nd
 0009:8065E694       aBckname3rd
 0009:8065E6A0       aAnimblendquadB
 0009:8065E6B4       aMario_2
 0009:8065E6BC       aLuigi_1
 0009:8065E6C4       aMariohandl
 0009:8065E6D0       aMariohandr
 0009:8065E6DC       aMarioface
 0009:8065E6E8       aLuigiface
 0009:8065E6F4       aMarioshadow
 0009:8065E700       aLuigishadow
 0009:8065E70C       aIcemario_0
 0009:8065E718       aIceluigi_0
 0009:8065E724       aIcemariohandl
 0009:8065E734       aIcemariohandr
 0009:8065E744       aInvinciblemari
 0009:8065E75C       aInvinciblemari_0
 0009:8065E778       aInvinciblemari_1
 0009:8065E788       aInvincibleluig
 0009:8065E798       aBeemario_0
 0009:8065E7A4       aBeeluigi_0
 0009:8065E7B0       aHoppermario_0
 0009:8065E7BC       aHopperluigi_0
 0009:8065E7C8       aBonemario
 0009:8065E7D4       aBoneluigi
 0009:8065E7E0       aSearchlightcon
 0009:8065E7F0       aFlexiblesphere
 0009:8065E800       aFlexiblesandpl
 0009:8065E818       aScaledownrelay
 0009:8065E830       aGhostmario
 0009:8065E83C       aGhostluigi
 0009:8065E848       aInfernomario_2
 0009:8065E858       aKoura
 0009:8065E860       aYoshihandl
 0009:8065E86C       aYoshihandr
 0009:8065E878       aCloudmario
 0009:8065E884       aCloudluigi
 0009:8065E890       aRockmario
 0009:8065E89C       aRockluigi
 0009:8065E8A8       aSArc_3
 0009:8065E8B0       aNormal_3
 0009:8065E8B8       aSKcl_0
 0009:8065E8C0       aObjectdataSArc_0
 0009:8065E8D4       aSS_10
 0009:8065E8DC       aBloom_1
 0009:8065E9D8       aS03d02d
 0009:8065E9F0       aObjectdataSArc_1
 0009:8065EA04       aSwimwait_0
 0009:8065EA10       aWatchturnswim
 0009:8065EA20       aWatch
 0009:8065EA28       aWatchturn
 0009:8065EA44       jpt_8004A068
 0009:8065EC98       aDeatharea_1
 0009:8065ECA4       aDarkmatterarea_1
 0009:8065ECB4       aArc
 0009:8065ECBC       aSArc_2
 0009:8065ECC4       aSBti
 0009:8065ECCC       aBcsv
 0009:8065ECD8       aSBcsv_13
 0009:8065ECE0       aStagedataSSSAr_0
 0009:8065ECF8       aZoneinfo_1
 0009:8065ED04       aUseresource_0
 0009:8065ED10       a100In
 0009:8065ED38       aGrandstar_2
 0009:8065ED44       aPowerstar_2
 0009:80669070       aO_12
 0009:8066907C       aNormal_5
 0009:80669084       aWait_40
 0009:8066908C       jpt_8005086C
 0009:80669148       aPathArg0_0
 0009:80669154       aPathArg1_0
 0009:80669160       aPathArg2_0
 0009:8066916C       aPathArg3_0
 0009:80669178       aPathArg4_0
 0009:80669184       aPathArg5_0
 0009:80669190       aPathArg6_0
 0009:8066919C       aPathArg7_0
 0009:806691A8       aPointArg0
 0009:806691B4       aPointArg1
 0009:806691C0       aPointArg2
 0009:806691CC       aPointArg3
 0009:806691D8       aPointArg4
 0009:806691E4       aPointArg5
 0009:806691F0       aPointArg6
 0009:806691FC       aPointArg7
 0009:80669208       jpt_80053CB4
 0009:80669240       aZone
 0009:80669248       aPeachcastlegal
 0009:8066925C       aMariofaceshipg
 0009:80669270       aChildroomgalax
 0009:80669280       aStaffrollgalax
 0009:80669290       aOceanringgalax
 0009:806692A0       aEggstargalaxy
 0009:806692B0       aFileselect
 0009:806692BC       aO_2
 0009:806692D0       aCosmosgardenga
 0009:806692E4       aHoneybeevillag_0
 0009:806692FC       aMokumokuvalley_1
 0009:80669314       aTwistertowerga_1
 0009:80669328       aUndergrounddan_1
 0009:80669344       aWorldmap01gala_0
 0009:80669358       aWorldmap02gala_0
 0009:8066936C       aWorldmap03gala_0
 0009:80669380       aWorldmap04gala_0
 0009:80669394       aWorldmap05gala_0
 0009:806693A8       aWorldmap06gala_0
 0009:806693BC       aWorldmap07gala_0
 0009:806693D0       aWorldmap08gala_0
 0009:806693E4       aKingofkingsgal
 0009:806693F8       aDimensionbigca_0
 0009:80669414       aBigtree2galaxy_0
 0009:80669424       aTamakoroslider_0
 0009:8066943C       aAnN
 0009:80669470       aMemoryroadgala
 0009:80669484       aOmoteulandgala
 0009:80669498       aTimerswitching
 0009:806694B8       aCloudgardengal_0
 0009:806694CC       aJunglegliderga_1
 0009:806694E0       aChallengeglide_1
 0009:806694F8       aRedblueexgalax
 0009:80669508       aVskoopajrlv1ga_1
 0009:8066951C       aGororockgalaxy_0
 0009:80669530       aStarcreekgalax_1
 0009:80669540       aGhostconveyorg
 0009:80669554       aMysterycandyga
 0009:80669568       aKoopajrlv2gala_0
 0009:8066957C       aWanwanfactoryg_0
 0009:80669590       aThunderfleetga
 0009:806695A4       aVskoopajrlv3ga
 0009:806695B8       aKachikochilava_0
 0009:806695D0       aMagicgalaxy_0
 0009:806695DC       aMarioonmarioga_0
 0009:806695F0       aSwitchmovebloc
 0009:80669608       aDigminegalaxy_0
 0009:80669618       aVskoopalv3gala_0
 0009:8066962C       aVskoopalv1gala_0
 0009:80669640       aVskoopagravity_1
 0009:80669658       aBigwaterfallga_0
 0009:80669670       aPosname_1
 0009:80669678       aGeneralrestart
 0009:80669690       aGeneral
 0009:80669698       aCamera_1
 0009:806696A0       aCameraparamBca
 0009:806696B4       aStartscenarioD
 0009:806696CC       aDreamerDPad
 0009:806696DC       aUseresourceBcs
 0009:806696F0       aI_13
 0009:806696FC       aEI
 0009:8066970C       aEI_0
 0009:80669720       aO_6
 0009:80669738       aOI
 0009:80669748       aSeSy5up
 0009:80669754       aSeSy1up
 0009:806697A0       aSeSyReadRiddle
 0009:806697B4       aCsSpinHit
 0009:806697C0       aSePmSpinHit
 0009:806697D0       aSeSvLvSupportt
 0009:806697F4       aSeEmLvDpdPoint
 0009:80669808       aMe2pAssistJump
 0009:8066981C       aSeSy2pAssistJu
 0009:80669834       aCsDpdJump
 0009:80669840       aMe2pAssistJump_0
 0009:80669854       aSeSy2pAssistJu_0
 0009:8066986C       aCsDpdJumpHigh
 0009:80669880       aMe2pAssistAtta
 0009:80669894       aSeSy2pAssistAt
 0009:806698AC       aCsDpdPunch
 0009:806698BC       aSeOjStarPieceH
 0009:806698D8       aSeSyStarGetJin
 0009:806698F0       aSeSyGrandStarG
 0009:80669910       aBluestarguidan_1
 0009:80669928       aPointerguidanc
 0009:80669944       aTicoseedguidan_1
 0009:80669960       aPointerguidanc_0
 0009:80669978       aPointerguidanc_1
 0009:80669994       aPointerguidanc_2
 0009:806699B4       aSystemFilesele_7
 0009:806699CC       aSystemFilesele_8
 0009:806699E4       aPointerguidanc_3
 0009:80669A08       aYoshieatguidan_1
 0009:80669A20       aPointerguidanc_4
 0009:80669A3C       aPointerguidanc_5
 0009:80669A58       aYoshicapturegu_1
 0009:80669A74       aPointerguidanc_6
 0009:80669B08       aSS_7
 0009:80669B10       aSystemDate000
 0009:80669B20       aSystemTime002
 0009:80669B30       aSystemTime000
 0009:80669B40       aSystemTime003
 0009:80669B50       aSystemTime001
 0009:80669B60       aFf
 0009:80669B68       aDDDD
 0009:80669B78       aFfFfFfFf
 0009:80669BB8       jpt_8006173C
 0009:80669BD8       aSoundplayarea
 0009:80669BE8       aSoundemittercu
 0009:80669BFC       aSoundemittersp
 0009:80669C10       aSoundemitterpo_0
 0009:80669C24       aWater
 0009:80669C2C       aAreamovesphere_0
 0009:80669C3C       aPlanemodecube_0
 0009:80669C4C       aTowermodecylin_0
 0009:80669CA0       __vt__25CollisionPartsFilterActor
 0009:80669D40       aMappartsinfo
 0009:80669D50       aObjinfo_0
 0009:80669D60       aLId
 0009:80669E38       aDefault_0
 0009:80669E44       aName_1
 0009:80669E4C       aInterpole
 0009:80669E58       aPlayFrame
 0009:80669E64       aStartFrame
 0009:80669E70       aEndFrame
 0009:80669E7C       aAttribute
 0009:80669F50       aNull
 0009:80669F58       aDupNonGroup_0
 0009:80669F78       aNotInitialized
 0009:80669F88       aNonGroup
 0009:80669F98       aScaleX
 0009:80669FA0       aScaleY
 0009:8066A088       aAreamovesphere
 0009:8066A098       aAudioeffectare
 0009:8066A0A8       aBeewallshortdi
 0009:8066A0C0       aBgmchangearea
 0009:8066A0D0       aBgmvolumefadea
 0009:8066A0E8       aBindend
 0009:8066A0F0       aBluestarguidan
 0009:8066A104       aCamerarepulsiv
 0009:8066A118       aCancelbeemorph
 0009:8066A12C       aCelestrial
 0009:8066A138       aClipdrawarea
 0009:8066A148       aCollisionarea
 0009:8066A158       aCometfiredance
 0009:8066A170       aComethopperare
 0009:8066A180       aCometnospinare
 0009:8066A190       aCometrainbowar
 0009:8066A1A4       aCubecamera
 0009:8066A1B0       aCumulativetime
 0009:8066A1CC       aDarkmatterarea
 0009:8066A1DC       aDashchargearea
 0009:8066A1EC       aDeatharea
 0009:8066A1F8       aDemoplayerforb
 0009:8066A214       aDodoryucloseda
 0009:8066A228       aDreamerdeadcou
 0009:8066A240       aDrillholehidde
 0009:8066A254       aEffect_0
 0009:8066A260       aEnforcejumpare
 0009:8066A270       aExtrawallcheck
 0009:8066A284       aExtrawallcheck_0
 0009:8066A29C       aFalls
 0009:8066A2A4       aForbidjump
 0009:8066A2B0       aForbidsupportt
 0009:8066A2C8       aForbidtriangle
 0009:8066A2DC       aForbidwatersea
 0009:8066A2F0       aForcedashcube
 0009:8066A300       aGlaringlightar
 0009:8066A314       aHaze
 0009:8066A31C       aHeavysteering
 0009:8066A330       aHipdropguidanc
 0009:8066A340       aImageeffectare
 0009:8066A350       aLensflarearea
 0009:8066A360       aLightarea
 0009:8066A36C       aMarionocaparea
 0009:8066A37C       aMercatorcube
 0009:8066A38C       aMessagearea
 0009:8066A398       aMirrorarea
 0009:8066A3A8       aMorphswitchare
 0009:8066A3B8       aNomessagearea
 0009:8066A3C8       aNonsleep
 0009:8066A3D8       aOnimasu
 0009:8066A3E0       aPipemode
 0009:8066A3EC       aPlanecircularm
 0009:8066A400       aPlanecollision
 0009:8066A410       aPlanemode
 0009:8066A41C       aPlayermorphlim
 0009:8066A434       aPlayersearea
 0009:8066A448       aPlayersidereta
 0009:8066A460       aPullback
 0009:8066A470       aQuakeeffectare
 0009:8066A480       aRacejudge
 0009:8066A48C       aRasterscrollar
 0009:8066A4A0       aRecoveryfloorc
 0009:8066A4BC       aRepeatblocksha
 0009:8066A4D8       aRollingwaterbr
 0009:8066A4F0       aScenechangeare
 0009:8066A500       aSceneexitarea
 0009:8066A510       aShadecube
 0009:8066A520       aShadowcolorare
 0009:8066A530       aShadowfarclipc
 0009:8066A548       aSloperunningca
 0009:8066A560       aSmokeeffectcol
 0009:8066A578       aSoundemittercu_0
 0009:8066A58C       aSoundemittersp_0
 0009:8066A5A0       aSoundplayarea_0
 0009:8066A5B0       aSpincloudfront
 0009:8066A5CC       aSpinguidance
 0009:8066A5DC       aSpinswitcharea
 0009:8066A5EC       aStorybookareat
 0009:8066A600       aStorybookareaw
 0009:8066A614       aSunlightarea
 0009:8066A624       aSwitcharea
 0009:8066A630       aTamakorojumpgu
 0009:8066A648       aTamakoromovegu
 0009:8066A660       aTicoseedguidan
 0009:8066A674       aTogepinattackf
 0009:8066A68C       aTowermodecylin_1
 0009:8066A6A0       aTripodbossstep
 0009:8066A6B4       aViewgroupctrl
 0009:8066A6C4       aWarpcube
 0009:8066A6D0       aWater_0
 0009:8066A6D8       aWorldmapaccess
 0009:8066A6EC       aWorldmapsyncso
 0009:8066A70C       aYoshicapturegu
 0009:8066A728       aYoshieatguidan
 0009:8066A740       aYoshisendoffar
 0009:8066A950       aEAN
 0009:8066A960       aBody_59
 0009:8066AA10       aValidity
 0009:8066AA20       aInvalid
 0009:8066AEA8       aPlaysound
 0009:8066AEB4       aSoundemittercu_2
 0009:8066AF98       aPlaysound_0
 0009:8066AFA8       aSoundplayareaD
 0009:8066AFF0       aSpinguidancear
 0009:8066B004       aTamakoromovegu_0
 0009:8066B020       aTamakorojumpgu_0
 0009:8066B0E8       aSunlightarea_2
 0009:8066B0F8       aSwitcharea_1
 0009:8066B104       aSeSyReadRiddle_0
 0009:8066B118       aSeSyReadRiddle_1
 0009:8066B130       __vt__10SwitchArea
 0009:8066B1A0       aDC_0
 0009:8066B290       aAudioresSmrSzs
 0009:8066B2A4       aAudioresSeqsJa
 0009:8066B2C0       aAudioresInfoJa
 0009:8066B2DC       aAudioresInfoJa_0
 0009:8066B2F8       aAudioresInfoJa_1
 0009:8066B318       aAudioresInfoSo
 0009:8066B890       aAudioresInfoMu
 0009:8066B8B0       aMultibgminfoBc
 0009:8066B8C4       aMultibgmname
 0009:8066B8D8       aBgmname
 0009:8066B8E0       aStreamname
 0009:8066B8EC       aBeatratio
 0009:8066B8F8       aIntobeat
 0009:8066B904       aLoopbeat
 0009:8066B910       aLoopstartsampl
 0009:8066B920       aLoopendsample
 0009:8066BA30       aSeRsRemixNoteG
 0009:8066BA4C       aSeRsRemixNoteG_0
 0009:8066BA68       aSeRsRemixNoteG_1
 0009:8066BA84       aSeRsRemixNoteG_2
 0009:8066BAA0       aSeRsRemixNoteG_3
 0009:8066BABC       aSeRsRemixNoteG_4
 0009:8066BAD8       aSeRsRemixNoteG_5
 0009:8066BAF4       aSeRsRemixNoteG_6
 0009:8066BB10       aSeRsRemixNoteG_7
 0009:8066BB2C       aSeRsRemixNoteG_8
 0009:8066BB48       aSeRsRemixNoteG_9
 0009:8066BB64       aSeRsRemixNoteG_10
 0009:8066BB80       aSeRsRemixNoteG_11
 0009:8066BB9C       aSeRsRemixNoteG_12
 0009:8066BBB8       aSeRsRemixNoteG_13
 0009:8066BBD4       aSeRsRemixNoteG_14
 0009:8066BC30       aDummy
 0009:8066BC38       aGame_0
 0009:8066BC40       aBigwaterfallga
 0009:8066BC54       aTamakoroslider
 0009:8066BC6C       aBigtree2galaxy
 0009:8066BC7C       aTropicalresort
 0009:8066BC94       aWorldmap01gala
 0009:8066BCA8       aWorldmap02gala
 0009:8066BCBC       aWorldmap03gala
 0009:8066BCD0       aWorldmap04gala
 0009:8066BCE4       aWorldmap05gala
 0009:8066BCF8       aWorldmap06gala
 0009:8066BD0C       aWorldmap07gala
 0009:8066BD20       aWorldmap08gala
 0009:8066BD34       aStaticsound1st
 0009:8066BD44       aStaticsound
 0009:8066BD50       aMario
 0009:8066BD58       aStarpiece
 0009:8066BD64       aModelwipescene
 0009:8066BD88       aGame_1
 0009:8066BE00       aSoundidtoinstl
 0009:8066BE18       aBankprogno
 0009:8066BE28       aSoundid
 0009:8066BE30       aSoundname
 0009:8066BE3C       aAnonymous
 0009:8066BE48       aIndexOutOfRang
 0009:8066BE70       aAudioresInfoBg
 0009:8066BE8C       aBgmparamBcsv
 0009:8066BE9C       aSoundidname
 0009:8066BEA8       aVolume
 0009:8066BEB0       aAudioresInfoSt
 0009:8066BED0       aStagebgminfoBc
 0009:8066BEE4       aScenariobgminf
 0009:8066BEFC       aStagename
 0009:8066BF08       aChangebgmidnam
 0009:8066BF1C       aChangebgmstate
 0009:8066BF30       aScenariono
 0009:8066BF3C       aBgmidname
 0009:8066BF48       aStarttype
 0009:8066BF54       aStartframe
 0009:8066BF60       aIsprepare
 0009:8066BF70       aFileselect_0
 0009:8066BF7C       aSoundScenario1
 0009:8066BF90       aMariofaceshipg_0
 0009:8066BFA4       aSoundScenario2
 0009:8066BFB8       aSoundScenario4
 0009:8066BFCC       aPeachcastlegal_0
 0009:8066BFE0       aStagedataFiles
 0009:8066C010       aStagedataMario
 0009:8066C054       aStagedataPeach
 0009:8066C1CC       aBattanking
 0009:8066C1D8       aBody_2
 0009:8066C1E0       aVolumebox_0
 0009:8066C1EC       aArml
 0009:8066C1F4       aArmr
 0009:8066C1FC       aHandl_0
 0009:8066C204       aVolumecylinder_0
 0009:8066C214       aHandr
 0009:8066C21C       aLegl
 0009:8066C224       aLegr
 0009:8066CC30       aRoot
 0009:8066CC38       aBody00
 0009:8066CC40       aMessage_0
 0009:8066CFCC       aSskip
 0009:8066CFD4       aHead_15
 0009:8066CFDC       aFlywaitnointer
 0009:8066D674       aHitmarknormal
 0009:8066D8EC       aBossbussunshot_0
 0009:8066D8FC       aSupportfreeze
 0009:8066D90C       aBody_3
 0009:8066D914       aShot
 0009:8066D91C       aLand
 0009:8066DE1C       aBossjugem
 0009:8066E064       aBossjugemcloud
 0009:8066E074       aJointroot
 0009:8066E080       aFloat
 0009:8066E760       aBody
 0009:8066E768       aBodyhipdrop
 0009:8066E780       aBodyground
 0009:8066E78C       aRightfoota3
 0009:8066E798       aLeftfoota3
 0009:8066E7A4       aRightfootb3
 0009:8066E7B0       aLeftfootb3
 0009:8066E7BC       aRightfootc3
 0009:8066E7C8       aLeftfootc3
 0009:8066E80C       aBossstinkbug
 0009:8066E81C       aShadow_0
 0009:8066F6EC       aTail1
 0009:8066F6F4       aTail2
 0009:8066F6FC       aTail3
 0009:8066F704       aTail4
 0009:8066F70C       aTail5
 0009:8066F714       aTail6
 0009:8066F71C       aTail7
 0009:8066F724       sJointName__24@unnamed@DinoPackun_cpp@
 0009:8066F74C       aDinopackun
 0009:8066F758       aDinopackun2
 0009:8066F764       aHead
 0009:8066F76C       aHead_0
 0009:8066F774       aBody_4
 0009:8066F77C       aShadow_1
 0009:8066F784       aOpeningdemo
 0009:8066F790       aFlowerall
 0009:8066F79C       aNormal_0
 0009:8066F7F0       aDinopackunfoot
 0009:8066F820       aEggshell
 0009:8066F840       aDinopackuneggs
 0009:8066F868       aDinopackuntail
 0009:8066F880       aCrydemo
 0009:8066F888       aAngrydemo_1
 0009:8066F894       aDowndemo_1
 0009:8066F8C4       aSpine1
 0009:8066F8CC       aOjstarpiecehit
 0009:8066F8E0       aFootl1
 0009:8066F8E8       aFootr1
 0009:8066FAC8       aBmdpakkuntailc
 0009:8066FADC       aBmlvdpakkuntai
 0009:8066FAF0       aBmdpakkuntailr
 0009:80671AB4       aActorstatewalk
 0009:80671AC8       aSBcsv_9
 0009:80671AD0       aActionname_0
 0009:80671ADC       aStatestep
 0009:80671AE8       aParamwalktopla
 0009:80671AFC       aParamescapefro
 0009:80671B14       aIsbreakcrystal
 0009:80671B78       aHead_11
 0009:80671B80       aHead_12
 0009:80671B88       aBody_53
 0009:80671B90       aLegLeft
 0009:80671B9C       aLegRight
 0009:80671BA8       aArmLeft
 0009:80671BB4       aArmRight
 0009:80671BC0       aTail
 0009:80671BC8       aStar_0
 0009:806722F8       aDodoryustatewa
 0009:8067230C       aDodoryudemoope
 0009:80672320       aDodoryustatelv
 0009:80672330       aDodoryudemoapp
 0009:80672348       aDodoryustatelv_0
 0009:80672358       aDodoryudemoang
 0009:80672370       aDodoryustatelv_1
 0009:80672380       aDodoryudemodow
 0009:80672474       aDodoryuleadhil
 0009:80672734       aOpeningdemo_0
 0009:80672740       aAppeardemo_0
 0009:8067274C       aAngrydemo
 0009:80672758       aDowndemo
 0009:80672764       aDmmeetboss
 0009:80672770       aEffectwalk
 0009:8067277C       aNormal_2
 0009:80672788       aBmlvdodoryumov
 0009:806727A0       aEffectwalkhide
 0009:806727B0       aOpeningappear
 0009:806727C0       aAppear_11
 0009:806727C8       aBvdodoryuappea
 0009:806727DC       aBmdodoryuappea
 0009:806727F0       aBmlvdodoryumov_0
 0009:80672808       aBvdodoryufaint
 0009:8067281C       aOpeningwalk
 0009:80672828       aWalk_6
 0009:80672830       aHide_0
 0009:80672838       aEffectwalkappe
 0009:8067284C       aOpeningdemo_1
 0009:80672858       aAppeardemo_1
 0009:80672864       aNose
 0009:8067286C       aOjstarpiecebur_0
 0009:80672880       aAngrydemo_0
 0009:8067288C       aAngrystart
 0009:80672898       aAngry
 0009:806728A0       aDowndemo_0
 0009:806728AC       aBmdodoryudie
 0009:80673B88       aKoopavs1
 0009:80673B94       aKoopalv2
 0009:80673BA0       aKoopavs2
 0009:80673BAC       aKoopalv3
 0009:80673BB8       aKoopavs3
 0009:80673BC4       aPhasesequence
 0009:806742B0       aGearl1
 0009:806742B8       aGearl2
 0009:806742C0       aGearl3
 0009:806742C8       aGearl4
 0009:806742D0       aGearl5
 0009:806742D8       aGearl6
 0009:806742E0       aGearl7
 0009:806742E8       aGearl8
 0009:806742F0       aGearl9
 0009:806742F8       aGearl10
 0009:80674300       aGearl11
 0009:80674308       aGearl12
 0009:80674310       aGearl13
 0009:80674318       aGearl14
 0009:80674320       aGearr1
 0009:80674328       aGearr2
 0009:80674330       aGearr3
 0009:80674338       aGearr4
 0009:80674340       aGearr5
 0009:80674348       aGearr6
 0009:80674350       aGearr7
 0009:80674358       aGearr8
 0009:80674360       aGearr9
 0009:80674368       aGearr10
 0009:80674370       aGearr11
 0009:80674378       aGearr12
 0009:80674380       aGearr13
 0009:80674388       aGearr14
 0009:80674390       aBodygear1
 0009:8067439C       aBodygear2
 0009:806743A8       aBodygear3
 0009:806743B4       aPropeller1
 0009:806743C0       aPropeller2
 0009:806743CC       aPropeller3
 0009:806743D8       aPropeller4
 0009:806743E4       aWindmill1
 0009:806743F0       aWindmill2
 0009:806743FC       aWindmill3
 0009:80674408       aWindmill4
 0009:80674440       aKoopajrcastleb
 0009:80674E50       aCannon1
 0009:80674E58       aJointroot_0
 0009:80674E64       aWait_1
 0009:80674E6C       aPanic
 0009:80674E78       aCannon3
 0009:80674E80       aBreak
 0009:80674E88       aSpin_0
 0009:80674E90       a1stdamage
 0009:80674E9C       aDamage
 0009:80674EA4       aCrack1
 0009:806759C8       aStarpiecegroup
 0009:80675B40       aElbowl
 0009:80675B48       aUpperarml
 0009:80675B54       aForearml
 0009:80675B60       aElbowr
 0009:80675B68       aUpperarmr
 0009:80675B74       aForearmr
 0009:80675B80       aAllroot_0
 0009:80675B88       aHead_1
 0009:80675BC0       aHandl
 0009:80675CC8       jpt_800DC49C
 0009:80676218       aDemoopeningkoo
 0009:806762DC       aDemodown_0
 0009:806762E8       aDemodownkoopaj
 0009:806763A0       aDemoweakpointh
 0009:80676820       aWeakpointfl
 0009:8067682C       aWeakpointleft
 0009:8067683C       aJrrobotweakpoi
 0009:80677010       aSealfixpossing
 0009:80677024       aSealfixposmult
 0009:80677038       aSealfixposmult_0
 0009:8067704C       aSealfixposmult_1
 0009:80677060       aSealfixposmult_2
 0009:80677074       aSealfixposmult_3
 0009:8067709C       aGravitylightro
 0009:806777D0       aDemokoopalastb
 0009:80677824       aFace
 0009:8067783C       aPeach_1
 0009:80677844       aPeachanim
 0009:80677850       aDemo_2
 0009:80677884       aTicobaby_0
 0009:80677890       aTicobabyanimvs
 0009:806778B0       aIOn
 0009:80677D44       aDemokoopavs3do
 0009:80677D70       aDemokoopalastb_0
 0009:80678520       aAppear_10
 0009:80678528       aDown_0
 0009:80678540       aOtaking
 0009:80678548       aAppear
 0009:80678550       aDown
 0009:80678558       aCrown
 0009:80678560       aWait_2
 0009:80678568       aFireball
 0009:80678574       aFirebubble
 0009:80678580       aOtakingmagma
 0009:80678590       aOtakingmagmabl
 0009:806785A4       aOtakingfoot
 0009:806785B0       aOtakinglongfoo
 0009:806785C0       aOtakinglv2
 0009:806785CC       aOtakingfootlv2
 0009:806785DC       aBody_5
 0009:806785E4       aFace_0
 0009:806785EC       aMeRallyComboLa
 0009:80678D38       aPolta
 0009:80678D40       aBreaklevel
 0009:80678D4C       aInner
 0009:80679A38       aCore
 0009:80679A40       aTongue3
 0009:80679A48       aBody1_0
 0009:80679A50       aHead1
 0009:80679A58       aBody2
 0009:80679A60       aHead2
 0009:80679A68       aBody3
 0009:80679A70       aHead3
 0009:80679A78       aArml1
 0009:80679A80       aArml2
 0009:80679A88       aHandl_1
 0009:80679A90       aFingerla1
 0009:80679A9C       aFingerla2
 0009:80679AA8       aFingerlb1
 0009:80679AB4       aFingerlb2
 0009:80679AC0       aFingerlc1
 0009:80679ACC       aFingerlc2
 0009:80679AD8       aFingerld1
 0009:80679AE4       aFingerld2
 0009:80679AF0       aArmr1
 0009:80679AF8       aArmr2
 0009:80679B00       aHandr_0
 0009:80679B08       aFingerra1
 0009:80679B14       aFingerra2
 0009:80679B20       aFingerrb1
 0009:80679B2C       aFingerrb2
 0009:80679B38       aFingerrc1
 0009:80679B44       aFingerrc2
 0009:80679B50       aFingerrd1
 0009:80679B5C       aFingerrd2
 0009:80679B68       aScream
 0009:80679B70       aTongue3_0
 0009:80679B78       aHead_2
 0009:80679B80       aHead5
 0009:8067A0E4       aHead_3
 0009:8067A0EC       aTouch
 0009:8067A8FC       aDemosandystart
 0009:8067AA84       aDemosandypower
 0009:8067AD64       aWait_3
 0009:8067AD6C       aWalk
 0009:8067AD74       aWalkchance
 0009:8067AD80       aJump
 0009:8067AD88       aBullet
 0009:8067AD90       aDamage_0
 0009:8067AD98       aChangeside
 0009:8067ADA4       aDemoopening
 0009:8067ADB0       aDemoexplosion
 0009:8067ADC0       aHead_4
 0009:8067ADC8       aOpening
 0009:8067ADD0       aExplosion
 0009:8067ADDC       aBody_6
 0009:8067ADE4       aStampleft
 0009:8067ADF0       aStampright
 0009:8067AE00       aReflect
 0009:8067AE08       aDamage0
 0009:8067AE10       aDamage1
 0009:8067AE18       aDamage2
 0009:8067AE20       aDamage3
 0009:8067AE28       aWeaken1st
 0009:8067AE34       aWeaken2nd
 0009:8067AE40       aWaitfar
 0009:8067AF78       aHorino
 0009:8067AF80       aSupportfreeze_0
 0009:8067AF90       aBody_7
 0009:8067AF98       aGroundboss
 0009:8067AFA4       aUnderground
 0009:8067AFB0       aScale_0
 0009:8067B2C4       aBoltl
 0009:8067B2CC       aBoltr
 0009:8067B2D8       aEyeball
 0009:8067B628       aOpening_0
 0009:8067B8B4       aDemoopening_0
 0009:8067B8C0       aDemodown
 0009:8067BD78       __vt__23CamTranslatorRaceFollow
 0009:8067BE88       __vt__18CamTranslatorDummy
 0009:8067C1B0       aN_17
 0009:8067C380       aA_3
 0009:8067C3A4       aOnlycamera
 0009:8067C3F8       aCameracover
 0009:8067C404       aN_20
 0009:8067C418       aINN_0
 0009:8067C42C       aN_23
 0009:8067C440       aN_24
 0009:8067C468       aCamTypeTalk
 0009:8067C478       aSeSyCameraNg
 0009:8067C488       aSeSyCameraMove
 0009:8067C49C       aSeSyCameraRese
 0009:8067C4B0       aCamTypeSubject
 0009:8067C8C0       aCameraheightar
 0009:8067C900       aCamTypeXzPara
 0009:8067C91C       aCamTypeTower
 0009:8067C930       aCamTypeFollow_1
 0009:8067C940       aO_17
 0009:8067C94C       aCamTypeWonderP_0
 0009:8067C970       aCamTypePointFi_0
 0009:8067C990       aCamTypeEyeposF_3
 0009:8067C9B0       aCamTypeSlider_0
 0009:8067C9CC       aCamTypeInwardT_1
 0009:8067C9EC       aCamTypeEyeposF_4
 0009:8067CA14       aCamTypeTowerPo
 0009:8067CA44       aCamTypeTripodP_0
 0009:8067CA68       aCamTypeDead_0
 0009:8067CA84       aCamTypeInwardS
 0009:8067CAA4       aCamTypeRailDem
 0009:8067CAC4       aCamTypeRailFol_0
 0009:8067CADC       aO_16
 0009:8067CAEC       aCamTypeObjPara_0
 0009:8067CB04       aOE_1
 0009:8067CB14       aCamTypeCharmed_0
 0009:8067CB2C       aN_25
 0009:8067CB38       aCamTypeGround
 0009:8067D19C       aCameraracefoll
 0009:8067D468       aCamTypeAnim_1
 0009:8067D56C       aGame_4
 0009:8067D574       aCamTypeWaterFo
 0009:8067D590       aCamTypeFollow
 0009:8067D5A0       aCamTypeFooFigh_0
 0009:8067D5B8       aCamTypeAnim_0
 0009:8067D5C8       aCamTypeEyeposF_0
 0009:8067D5E4       aCubecamera_0
 0009:8067D654       aBase
 0009:8067D940       aFlagNoreset
 0009:8067D950       aFlagNofovy
 0009:8067D960       aFlagLofserpoff
 0009:8067D970       aFlagAntiblurof
 0009:8067D984       aFlagCollisiono
 0009:8067D998       sFlagName__30@unnamed@CameraParamChunk_cpp@
 0009:8067D9C8       aCamtype
 0009:8067D9D0       aCamTypePlanet
 0009:8067D9E0       aWoffset
 0009:8067D9E8       aLoffset
 0009:8067D9F0       aLoffsetv
 0009:8067D9FC       aRoll
 0009:8067DA04       aFovy
 0009:8067DA0C       aCamint
 0009:8067DA14       aUpper
 0009:8067DA1C       aLower
 0009:8067DA24       aGndint
 0009:8067DA2C       aUplay
 0009:8067DA34       aLplay
 0009:8067DA3C       aPushdelay
 0009:8067DA48       aPushdelaylow
 0009:8067DA58       aUdown
 0009:8067DA60       aVpanuse
 0009:8067DA68       aVpanaxis
 0009:8067DA74       aDist
 0009:8067DA7C       aAxis
 0009:8067DA84       aWpoint
 0009:8067DA8C       aAnglea
 0009:8067DA94       aAngleb
 0009:8067DA9C       aNum1
 0009:8067DAA4       aNum2
 0009:8067DAAC       aString
 0009:8067DAB4       aCamTypeDonkets
 0009:8067DACC       aCamTypeBossDon
 0009:8067DAE4       aCamTypeBehindD
 0009:8067DB00       aCamTypeSlider
 0009:8067DB10       aCamTypeInwardT
 0009:8067DB2C       aCamTypeInwardT_0
 0009:8067DB44       aCamTypeEyeFixe
 0009:8067DB64       aCamTypeEyeposF
 0009:8067DB80       aCamTypeIcecube
 0009:8067DB98       aCamTypeCubePla_0
 0009:8067DBB0       aGflagThru
 0009:8067DBC0       aGflagEnableend
 0009:8067DBD8       aGflagCamendint
 0009:8067DBE8       aEflagEnableerp
 0009:8067DC00       aEflagEnableend
 0009:8067DC18       aCamendint
 0009:8067DC24       aEvfrm
 0009:8067DC2C       aEvpriority
 0009:8067DC80       aEvent
 0009:8067DC88       aGame_6
 0009:8067DC90       aBase_0
 0009:8067DC98       aSBcam
 0009:8067DCA0       aCamTypeFollow_0
 0009:8067DCB0       aGame_7
 0009:8067DCB8       aCamTypeRailFol
 0009:8067DCD0       aCamTypeCubePla_1
 0009:8067DCE8       aCamTypeWaterFo_0
 0009:8067DD00       aCamTypeCharmed
 0009:8067DD18       aCamTypeMedianT
 0009:8067DD30       aCamTypeEyeposF_1
 0009:8067DD4C       aCamTypeMedianP_0
 0009:8067DD64       aCamTypeDpd
 0009:8067DD74       aCamTypeXzPara_0
 0009:8067DDB4       aBase_1
 0009:8067DDC0       aC04x
 0009:8067DDC8       aGSDD
 0009:8067DDD4       aOS
 0009:8067DDDC       aES
 0009:8067DDE4       aS04x
 0009:8067DF30       aLId_2
 0009:8067EA50       aNEnIn
 0009:8067EA6C       aDemoepilog
 0009:8067EA78       aNEnIn_0
 0009:8067EAAC       aRosettareading
 0009:8067EABC       aJointroot_1
 0009:8067EBE8       jpt_80134368
 0009:8067EC38       aAction
 0009:8067EC40       aPartname
 0009:8067EC4C       aCastname
 0009:8067EC58       aCastid
 0009:8067EC60       aActiontype
 0009:8067EC70       aPosname
 0009:8067EC78       aAnimname
 0009:8067EC88       aPartname_0
 0009:8067EC94       aCameratargetna
 0009:8067ECA8       aCameratargetca
 0009:8067ECBC       aAnimcameraname
 0009:8067ECCC       aAnimcamerastar
 0009:8067ECE4       aAnimcameraendf
 0009:8067ECF8       aIscontinuous
 0009:8067ED08       aSS
 0009:8067ED10       aCamera
 0009:8067F238       aSeabottombigdo
 0009:8067F24C       aSeabottombigdo_0
 0009:8067F260       aSeabottombigdo_1
 0009:8067F274       aOpen
 0009:8067F280       aPlayer
 0009:8067F288       aPartname_1
 0009:8067F298       aPosname_0
 0009:8067F2A0       aBckname
 0009:8067F2A8       aVisible
 0009:8067F410       aSubpart
 0009:8067F418       aSubpartname
 0009:8067F5F0       aEntryactorlist
 0009:8067F600       aDemotitleanim
 0009:8067F830       aSystemResultgr
 0009:8067FA84       aDemomarioshipt
 0009:8067FAE4       aMarioshiptakeo
 0009:8067FBC0       aDemomarioshipt_0
 0009:8067FD8C       aDemomeetkoopa
 0009:8067FEA4       aCrystalcages_1
 0009:8067FEB4       aKoopaassault
 0009:806800D0       aDemoending1st
 0009:806800E0       aDemoending2nd
 0009:806800F0       aDemoending3rd
 0009:80680100       aDemoending4th
 0009:806801D8       aPeach_2
 0009:806801E0       aPeachanimpeach
 0009:80680210       aRosetta_0
 0009:80680218       aNormalending
 0009:806803E0       aDemoastroplane
 0009:806803F0       aModel_1
 0009:80680768       aDemokoopacastl
 0009:80680950       aDigminegalaxy
 0009:80680960       aVskoopajrlv1ga_0
 0009:80680974       aKoopajrlv2gala
 0009:80680994       aBody_8
 0009:8068107C       aDummypagecurre
 0009:80681090       aDummypagenext
 0009:806814D8       aDemomeetmeiste
 0009:806818A0       jpt_80149B98
 0009:8068193C       aUniquename
 0009:80681948       aGroupname_0
 0009:80681C40       aParticlesJpc
 0009:80681C50       aParticlenamesB
 0009:80681C64       aAutoeffectlist
 0009:80681C78       aName_0
 0009:80681D08       aIcelayerbreak
 0009:80681D18       aSeOjIceLayerBr
 0009:80681D38       aLavavolcanoeru
 0009:80681D4C       aLavahomevolcan_2
 0009:80681D68       aSeAtLvFallingR
 0009:80681D80       aWaterlayerbrea_0
 0009:80681D90       aSeOjWaterLayer
 0009:80681DA8       aDrainpipebubbl_1
 0009:80681DBC       aSeOjLvPipeBubb
 0009:80681DD4       aDrainpipebubbl_2
 0009:80681DE8       aSeOjLvPipeBubb_0
 0009:80681E00       aStarpiececlust_2
 0009:80681E18       aSeOjCrystalCag
 0009:80681E34       aBattleshipexpl_1
 0009:80681E50       aSeAtBtlshipExp
 0009:80681E70       aBattleshipexpl_2
 0009:80681E88       aSeAtBtlshipExp_0
 0009:80681EA4       aSteam
 0009:80681EAC       aSeOjLvHdSteam
 0009:80681EC0       aIciclerockligh
 0009:80681ED0       aSeOjLvIcicleRo
 0009:80681EEC       aUfokinokolandi_0
 0009:80681F08       aSeOjLvUfoKinok
 0009:80681F24       aBigtreeleafspl
 0009:80681F68       aEffectemitstar
 0009:80681F78       aEffectemitting
 0009:806820F8       aWaterfortressr
 0009:8068210C       aRain
 0009:80682114       aRainslow
 0009:806821B0       aIn_4
 0009:806821CC       aTouch_2
 0009:806821D4       aPointertouch_0
 0009:80682238       aAN_0
 0009:806822B0       aAN_1
 0009:80682304       aAttackrock
 0009:80682310       aAttack
 0009:80682318       aBody_9
 0009:80682474       aAttackrock_0
 0009:80682480       aAttack_0
 0009:80682488       aLand_0
 0009:80682490       aBody_10
 0009:80682498       aInner_0
 0009:806824A0       aOuter
 0009:806824A8       aFinalwait
 0009:806824B4       aFinalfall
 0009:806824C0       aFinalfloat
 0009:806824CC       aFinalpower
 0009:806824D8       aGroundhit
 0009:806824E4       aBound_0
 0009:806824EC       aBreak_0
 0009:806824F4       aFinalbreak
 0009:806827DC       aAttackrock_1
 0009:806827E8       aAttack_1
 0009:806827F0       aLand_1
 0009:80682A4C       aBalloonfish
 0009:80682A58       aAppearfrombox
 0009:80682A68       aEmblnfishappea
 0009:80682A78       aDeath
 0009:80682A80       aEmblnfishexplo
 0009:80682A94       aAppearance
 0009:80682AA0       aEmblnfishpreda
 0009:80682AB4       aAttack_2
 0009:80682ABC       aSwimbubble
 0009:80682AC8       aAttackend
 0009:80682AD8       aEmlvblnfishdas
 0009:80682AE8       aBody_11
 0009:80682BA0       aBasabasaice_0
 0009:80682BAC       aBody_79
 0009:80682BB4       aJointroot_2
 0009:80682BC0       aAttack_16
 0009:80682BC8       aBasabasa_0
 0009:80682BD4       aWait_47
 0009:80682BDC       aFlystart_0
 0009:80682BE8       aEvbasabasafind
 0009:80682BF8       aEvbasabasadama
 0009:80682C0C       aEmstompeds_1
 0009:80682C18       aBlow_0
 0009:80682C20       aAttackstart
 0009:80682C2C       aAttack_17
 0009:80682C34       aEvbasabasaatta
 0009:80682C48       aEmlvbasabasaat
 0009:80682C5C       aAttackend_0
 0009:80682C68       aReaction_1
 0009:80682C74       aEmicebasaspinb
 0009:80682C88       aReturn_0
 0009:80682C90       aTouch_4
 0009:80682C98       aSwoon_0
 0009:80682CA0       aDeath_9
 0009:80682CA8       aEmexplodes_9
 0009:80682CB4       aEmlvicebasachi
 0009:80682CC8       aBasabasaicehan
 0009:80682CD8       aBasabasahang
 0009:80682F9C       aBattan
 0009:80683208       aBody1
 0009:80683210       aBody2_0
 0009:80683218       aBody3_0
 0009:80683220       aBody4
 0009:80683228       aBody5
 0009:8068345C       aBegomanbaby
 0009:80683468       aLocator1
 0009:80683478       aBabybegomanfac
 0009:80683488       aSupportfreeze_1
 0009:80683498       aWatercolumn
 0009:806834A4       aDeath_0
 0009:806834B0       aEmbegomanappea
 0009:806834C0       aEmexplodes
 0009:806834CC       aFall
 0009:806834D4       aEmlvbabybegoro
 0009:806834E8       aSignattack
 0009:806834F4       aEmbabybegoprep
 0009:80683508       aEmlvbabybegoro_0
 0009:80683520       aEmbabybegopurs
 0009:80683538       aEmlvbegomanpur
 0009:8068354C       aEmlvbabybegotu
 0009:80683560       aEmlvbegomanspa
 0009:80683578       aTrample
 0009:80683580       aEmbabybegostom
 0009:80683598       aEmlvbegomantur
 0009:806835A8       aEmbegomanrotst
 0009:806835BC       aStop
 0009:806835C4       aBound_1
 0009:806835CC       aTurn_0
 0009:806835D4       aEmfallintowate
 0009:806835E8       aDeathwater
 0009:806835F4       aEmbegomandeadi
 0009:8068360C       aSpark
 0009:80683614       aBody_12
 0009:8068361C       aEmbabybegocoll
 0009:80683638       aEmbabybegocoll_0
 0009:80683648       __vt__36JointControlDelegator<11BegomanBaby>
 0009:80683850       aSeEmLvBegomanD
 0009:80683868       aSeBmLvBbegoDas
 0009:80683888       aLocator1_0
 0009:80683894       aWait_4
 0009:8068389C       aBegomanspark
 0009:806838AC       aBegomanhit
 0009:806838B8       aBegomanfailure
 0009:806838CC       aSpark_0
 0009:806838D4       aFailurehit
 0009:806838E0       aCheck
 0009:806838E8       aBody_13
 0009:806838F0       aPushedRail
 0009:806838FC       aAttack_3
 0009:80683904       aTurn_1
 0009:8068390C       aBrake
 0009:80683918       aProvoke
 0009:80683920       aHitreaction
 0009:8068392C       aTired
 0009:80683934       aOngroundspark
 0009:80683944       aEmlvbegomancol
 0009:8068395C       aWatercolumn_0
 0009:80683968       aEmbegomanknock
 0009:80683980       aCenter
 0009:80683AF8       aTogebegomanlau
 0009:80683CD4       aBegomanspike
 0009:80683CE4       aCenter_0
 0009:80683CEC       aWatercolumn_1
 0009:80683CF8       aSupportfreeze_2
 0009:80683D08       aBegomanspikehe
 0009:80684154       aBegomanspring
 0009:80684164       aBegomanspringh
 0009:80684D8C       aBomb
 0009:80684D98       aBombhei
 0009:80684DA0       aBody_14
 0009:80684DA8       aExplode
 0009:80684DB0       aSupportfreeze_3
 0009:80684DC0       aIgnite
 0009:80684DC8       aWait_5
 0009:80684DD0       aStop_0
 0009:80684DD8       aStarting
 0009:80684DE4       aWalk_0
 0009:80684DEC       aCountdown
 0009:80684DF8       aEmbombheihit
 0009:80684E08       aSpin_1
 0009:80684E10       aPressed
 0009:80684E18       aEmbombheitramp
 0009:80684E2C       aSePvThrow
 0009:80684E38       aEmbombthrow
 0009:80684E44       aBound_2
 0009:80684E4C       aCarry
 0009:80684E54       aSePvLiftUp
 0009:80684E64       aEmbomblift
 0009:80684E70       aExplosion_0
 0009:80684E80       aEmbombexplosio
 0009:80684E90       aEmlvbombfuse
 0009:80684EA0       aEmlvbombalarmf
 0009:80684EB4       aEmlvbombalarmm
 0009:80684EC8       aEmlvbombalarms
 0009:80684EDC       aEmbombbound
 0009:80684EE8       __vt__31JointControlDelegator<7BombHei>
 0009:80685078       aBomblauncher
 0009:80685088       aBombheilaunche
 0009:80685098       aBody_15
 0009:806851C0       aTongue1
 0009:806851C8       aTongue2
 0009:806851D0       aNormal_1
 0009:806851D8       aEmlvbombteremo
 0009:806851EC       aSpinblur
 0009:806851F8       aBody_16
 0009:80685200       aAppear_0
 0009:80685208       aEmbombtereappe
 0009:8068521C       aShadow_2
 0009:80685224       aShadowappear
 0009:80685234       aBall
 0009:8068523C       aBallappear
 0009:80685248       aEmbombtereboun
 0009:80685258       aWait_6
 0009:80685260       aEvbombterelaug
 0009:80685270       aReturn
 0009:80685278       aEmlvbombtereto
 0009:80685290       aEvbombteretack
 0009:806852A4       aTacklesign
 0009:806852B0       aTackle
 0009:806852B8       aEmlvbombtereta
 0009:806852CC       aSpin_2
 0009:806852D4       aEmbombteretong
 0009:806852EC       aEmlvbombteresw
 0009:80685300       aHandr_1
 0009:80685308       aCountdown_0
 0009:80685314       aDrift
 0009:80685320       aEmbombterethro
 0009:80685330       aExplosion_1
 0009:8068533C       aEmbombtereexpl
 0009:80685350       aMisfire
 0009:80685358       aEmbombterehide
 0009:80685368       aHide
 0009:806860E4       aBody_66
 0009:806860EC       aShadow2d
 0009:806860F8       aShadow_16
 0009:80686100       aAttack_11
 0009:80686108       aOjdossunfallsi
 0009:8068611C       aOjlvdossunfall
 0009:8068612C       aOjdossunland
 0009:8068613C       aLand_6
 0009:80686144       aRise
 0009:80686150       aOjlvdossunuppe
 0009:80686160       aOjdossunstop
 0009:80686708       aVolumesphere_0
 0009:80686718       aFireballspread
 0009:806869BC       aFlowermimic
 0009:806869C8       aLeafcenter
 0009:806869D4       aFlowermimicund
 0009:806869E8       aCollision_0
 0009:806869F4       aSupportfreeze_4
 0009:80686A04       aBody_17
 0009:80686C34       aSupportfreeze_5
 0009:80686C44       aWait_7
 0009:80686C4C       aRotatesign
 0009:80686C58       aRotatesignwood
 0009:80686C68       aRotate
 0009:80686C70       aRotatewood
 0009:80686C7C       aFall_0
 0009:80686D58       aGesso
 0009:80686D60       aBody_18
 0009:80686D68       aSupportfreeze_6
 0009:80686D78       aDeath_1
 0009:80686D80       aFrombox
 0009:80686D88       aEmgessoswiml
 0009:80686D98       aWait_8
 0009:80686DA0       aSearch
 0009:80686DA8       aEmgessofind
 0009:80686DB4       aWalkfast
 0009:80686DC0       aWalk_1
 0009:80686DC8       aSinkfast
 0009:80686DD4       aSink
 0009:80686DDC       aCooldown
 0009:80686DE8       aAttack_4
 0009:80686DF0       aEmgessoink
 0009:80686DFC       aPunchdown
 0009:80686E08       aEmgessohitpunc
 0009:80686E18       aEmgessodead
 0009:80686E24       aStarpiece_0
 0009:80686E30       aEmlvgessostarp
 0009:80688DB8       aJugem
 0009:8068923C       aJumpbeamerbody
 0009:80689A48       aKabokurifire
 0009:80689A58       aBody_71
 0009:80689A60       aOjphantomtoach_1
 0009:80689A74       aOjlvphantomtoa_1
 0009:8068ACA0       aFaceposition
 0009:8068ACB0       aArml2_0
 0009:8068ACB8       aSpine1_0
 0009:8068ACC0       aShoulderr
 0009:8068ACF8       aKaron_0
 0009:8068AD00       aSupportfreeze_18
 0009:8068AD10       aCenter_7
 0009:8068AD18       aDeath_7
 0009:8068AD20       aEmexplodes_6
 0009:8068AD2C       aWait_43
 0009:8068AD34       aWalk_7
 0009:8068AD3C       aSearch_2
 0009:8068AD44       aEvkaronfind
 0009:8068AD50       aPursue_0
 0009:8068AD58       aSpinbreak
 0009:8068AD64       aEmkaronbroken
 0009:8068AD74       aEvkarondamage
 0009:8068AD84       aStepbreak
 0009:8068AD90       aRecovery
 0009:8068AD9C       aEmkaronrecover
 0009:8068ADAC       aStarpiece_3
 0009:8068ADB8       aAttackhit_0
 0009:8068ADC4       aEvlvkaronatksu
 0009:8068ADD8       aDown_2
 0009:8068ADE0       aSinkdown
 0009:8068ADEC       aEvlvkaronsink
 0009:8068ADFC       aEmlvkaronsink
 0009:8068AE0C       aLavadown
 0009:8068AE18       aBody_74
 0009:8068B3D0       aKotebug
 0009:8068B3D8       aSupportfreeze_7
 0009:8068B3E8       aCenter_1
 0009:8068B3F0       aAppear_1
 0009:8068B3F8       aDeath_2
 0009:8068B400       aPreescape
 0009:8068B40C       aEmkotebugfind
 0009:8068B41C       aWait_9
 0009:8068B424       aSyaka
 0009:8068B42C       aEmlvkotebugfly
 0009:8068B43C       aJitabata
 0009:8068B448       aEmlvkotebugpur
 0009:8068B460       aPote
 0009:8068B468       aEmkotebugovert
 0009:8068B480       aPotesmoke
 0009:8068B48C       aEmkotebugfalll
 0009:8068B4A0       aJitabata2
 0009:8068B4AC       aEmlvkotebugove
 0009:8068B4C0       aEmkotebugrecov
 0009:8068B4D4       aEmkotebugland
 0009:8068B4E4       aEmexplodes_0
 0009:8068B4F0       aEmstompeds
 0009:8068B4FC       aEmkotebugtramp
 0009:8068B510       aBody_19
 0009:8068B6D0       aKuribo_2
 0009:8068B6D8       aCenter_6
 0009:8068B6E0       aStagger_0
 0009:8068B6E8       aSupportfreeze_16
 0009:8068B6F8       aDeathsmokekuri
 0009:8068B70C       aEmexplodes_5
 0009:8068B718       aBlow
 0009:8068B720       aLand_7
 0009:8068B728       aEmkuribofind
 0009:8068B738       aEmlvkuribodash
 0009:8068B748       aEmcrashs
 0009:8068B754       aEmlvswoons_0
 0009:8068B760       aEmkuriboswoonr
 0009:8068B778       aAppearfrombox_0
 0009:8068B788       aHipdropdownrev
 0009:8068B79C       aHipdropdown
 0009:8068B7A8       aFlatdownrevers
 0009:8068B7B8       aFlatdown
 0009:8068B948       aKuribochief_0
 0009:8068B954       aSupportfreeze_17
 0009:8068B968       aStagger_1
 0009:8068BBA4       aKuribomini
 0009:8068BBB0       aSupportfreeze_8
 0009:8068BBC0       aStagger
 0009:8068BBC8       aHead_5
 0009:8068BBD0       aDeath_3
 0009:8068BBD8       aEmexplodes_1
 0009:8068BBE4       aBody_20
 0009:8068C374       aMechanickoopam
 0009:8068C388       aSupportfreeze_9
 0009:8068C398       aDeath_4
 0009:8068C3A0       aEmexplodes_2
 0009:8068C3AC       aWait_10
 0009:8068C3B4       aWalk_2
 0009:8068C3BC       aTurn_2
 0009:8068C3C4       aJumpstart
 0009:8068C3D0       aEmmkoopaminiju
 0009:8068C3E8       aJumpend
 0009:8068C3F0       aFind
 0009:8068C3F8       aPursue
 0009:8068C400       aPrefire
 0009:8068C408       aEmlvmkoopamini
 0009:8068C420       aFire
 0009:8068C428       aFire_0
 0009:8068C430       aEmlvmkoopamini_0
 0009:8068C448       aFireend
 0009:8068C450       aAttackhit
 0009:8068C460       aSpinhit
 0009:8068C468       aEmmkoopaminisp
 0009:8068C480       aTrample_0
 0009:8068C488       aBreak_1
 0009:8068C490       aEmmkoopaminibr
 0009:8068C4A4       aEmmkoopaminitr
 0009:8068C4B8       aBody_21
 0009:8068C8F8       aMeramera
 0009:8068C904       aIcemeramera
 0009:8068C910       aChildmeramera
 0009:8068C920       aChildicemerame
 0009:8068C938       sElementArcName__22@unnamed@Meramera_cpp@
 0009:8068C948       sElementList__22@unnamed@Meramera_cpp@
 0009:8068C958       aSupportfreeze_20
 0009:8068C968       aSupportfreezen
 0009:8068C97C       aExtinguishside
 0009:8068C98C       aExtinguishside_0
 0009:8068C9A0       aWait_46
 0009:8068C9A8       aEscape_0
 0009:8068C9B0       aExtinguishsmok
 0009:8068C9C0       aChasestart
 0009:8068C9CC       aChase
 0009:8068C9D4       aAttack_13
 0009:8068C9DC       aFall_3
 0009:8068C9E4       aBreak_11
 0009:8068C9EC       aBody_75
 0009:8068C9F4       aDamage_3
 0009:8068CA00       aHitmark
 0009:8068CA08       aAttack_14
 0009:8068CA10       aEmmeramerafind
 0009:8068CA20       aEmicemerapower
 0009:8068CA34       aEmmeramerafire
 0009:8068CA4C       aChasedash
 0009:8068CA58       aEmmerameradash
 0009:8068CA68       aChaseturn
 0009:8068CA74       aEmicemerablowc
 0009:8068CA88       aEmmeramerablow
 0009:8068CAA0       aEmmeramerasmok
 0009:8068CAB0       aEscaperock
 0009:8068CAC0       aEmmerameraboun
 0009:8068CAD0       aEmmeramerajump
 0009:8068CAE0       aEmmerameralava
 0009:8068CAF4       aFloat_0
 0009:8068CAFC       aEmmerameralava_0
 0009:8068CB10       aFloatignition
 0009:8068CB20       aEmicemeraignit
 0009:8068CB34       aEmmerameraigni
 0009:8068CB48       aDown_3
 0009:8068CB50       aEmmeramerastom
 0009:8068CB64       aEmmerameraexpl
 0009:8068CB78       aFlatdown_0
 0009:8068CB84       aEmexplodes_8
 0009:8068CB90       aEmlvicemerawai
 0009:8068CBA0       aEmlvmeramerawa
 0009:8068CBB4       aEmlvicemeracha
 0009:8068CBC8       aEmlvmeramerach
 0009:8068D2B4       aGliderbazooka
 0009:8068D2C4       aKillershooter
 0009:8068D9C0       aNokonokoland
 0009:8068D9D0       aAppear_2
 0009:8068D9D8       aBody_22
 0009:8068D9E0       aCenter_2
 0009:8068D9E8       aAttack_5
 0009:8068D9F0       aShell
 0009:8068D9F8       aTurtle
 0009:8068DA00       aSupportfreeze_10
 0009:8068DA10       aSupportfreezet
 0009:8068DA24       aDeath_5
 0009:8068DA2C       aEmturtleshellt
 0009:8068DA44       aEmlvnokolandre
 0009:8068DA60       aEmnokolandrevi
 0009:8068DA78       aEvnokonokoappe
 0009:8068DA8C       aRotate_0
 0009:8068DA94       aEmturtlehit
 0009:8068DAA0       aEvnokonokodama
 0009:8068DAB4       aEmexplodes_3
 0009:8068DAC0       aWalkfastwait
 0009:8068DAD0       aWalkwait
 0009:8068DADC       aLookaround
 0009:8068DAE8       aTurnstart
 0009:8068DAF4       aTurnloopstart
 0009:8068DB04       aTurnloop
 0009:8068DB10       aTurnend
 0009:8068DB18       aAttack_6
 0009:8068DB20       aRattle
 0009:8068DB28       aEmlvnokolandra
 0009:8068DB40       aShellstartshel
 0009:8068DB50       aShellstart
 0009:8068DB5C       aEvnokonokotram
 0009:8068DB70       aShellstartface
 0009:8068DB80       aShellstartpunc
 0009:8068DB90       aEmnokolandshel
 0009:8068DBA8       aEvnokonokopunc
 0009:8068DBBC       aShellwait
 0009:8068DBC8       aShellend
 0009:8068DBD4       aEmnokolandrecv
 0009:8068DBEC       aEvnokonokoreco
 0009:8068DE40       aNokonokolandbi
 0009:8068DE50       aSupportfreeze_11
 0009:8068DE60       aPush_0
 0009:8068DE68       aNeck
 0009:8068DE70       aBody_23
 0009:8068DE78       aDrilldamage
 0009:8068DE84       aAttack_7
 0009:8068E070       aHeadpos
 0009:8068E078       aBody5_0
 0009:8068E080       aBody4_0
 0009:8068E088       aBody3_1
 0009:8068E090       aBody2_1
 0009:8068E098       aBody1_1
 0009:8068E0A0       aAllroot_1
 0009:8068E1F4       aWaita
 0009:8068E1FC       aWaitb
 0009:8068E328       aOnimasu_1
 0009:8068E330       aMove_11
 0009:8068E338       aBody_80
 0009:8068E340       aFactorygalaxy
 0009:8068E350       aOjonimasuland
 0009:8068E360       aOjonimasujump
 0009:8068E4F0       aOtarock_0
 0009:8068E4F8       aOtarockdeath
 0009:8068E6F0       aOtarockpos
 0009:8068E6FC       aOtarockchief
 0009:8068E790       aOtarockpos_0
 0009:8068E79C       aWheell
 0009:8068E7A4       aWheelr
 0009:8068E7AC       aBattery01
 0009:8068E7B8       aBattery02
 0009:8068E7C4       aBattery03
 0009:8068E7D0       aBattery04
 0009:8068E7DC       aBattery05
 0009:8068E7E8       aBattery06
 0009:8068E7F4       aMouth
 0009:8068E7FC       aOtarocktankthr
 0009:8068E818       aOtarocktankthr_0
 0009:8068E834       aOtarocktankthr_1
 0009:8068E850       aOtarocktankthr_2
 0009:8068E86C       aOtarocktankthr_3
 0009:8068E888       aOtarocktankthr_4
 0009:8068E8A4       aThrow
 0009:8068F838       aBody_54
 0009:8068F840       aSpin_4
 0009:8068F848       aPetari
 0009:8068F850       aPointertouchma
 0009:8068F864       aShadow_13
 0009:8068F86C       aEmexplodes_4
 0009:8068F878       aInnerlight
 0009:8068F884       aHead1_0
 0009:8068F88C       aLeaveappearanc
 0009:8068F8A4       aWait_32
 0009:8068F8AC       aEmpetariwaitap
 0009:8068F8C0       aLeaveappearanc_0
 0009:8068F8DC       aEmpetariwaithi
 0009:8068F8F0       aStartsmoke
 0009:8068F8FC       aWalksmoke
 0009:8068F908       aEmlvpetarirun
 0009:8068F918       aRunsmoke
 0009:8068F924       aAppearance_0
 0009:8068F930       aEmpetariappear
 0009:8068F940       aSwoon
 0009:8068F948       aEmlvswoons
 0009:8068F954       aHide_1
 0009:8068F95C       aEmpetariwakeup
 0009:8068F96C       aEmpetarijump
 0009:8068F97C       aEmchangesmoke
 0009:8068F98C       aPress
 0009:8068F994       aEmstompeds_0
 0009:8068F9A0       aDamage_2
 0009:80690028       aBound
 0009:80690030       aCloseeye
 0009:8069003C       aFlystart
 0009:80690048       aOpeneye
 0009:80690050       aFlyend
 0009:80690058       aSwimstart
 0009:8069093C       aRingbeamer
 0009:80690948       aSupportfreeze_12
 0009:80690CD4       aSearchbeamer
 0009:80690CE4       aBody_24
 0009:80690CEC       aBeam
 0009:80690CF4       aFace_1
 0009:80690CFC       aBeamstart
 0009:80690D08       aPropeller
 0009:80690D18       aBeamend
 0009:80690D20       aSupportfreeze_13
 0009:80690D30       aWait_11
 0009:80690D38       aOpen_0
 0009:80690D40       aEmsearchbeamer
 0009:80690D58       aAttack_8
 0009:80690D60       aLambert5V
 0009:80690D6C       aEmlvsearchbeam
 0009:80690D84       aCore_0
 0009:80690D8C       aClose
 0009:80690D94       aStop_1
 0009:80690D9C       aBeamendair
 0009:80690F20       aStraightappear
 0009:80690F30       aStraightwait
 0009:80690F40       aStraightforwar
 0009:80690F50       aStraightforwar_0
 0009:80690F68       aStraightback
 0009:80690F78       aWait
 0009:80690F80       aForward
 0009:80690F88       aForwardsmoke
 0009:80690F98       aBack
 0009:80690FA0       aSnakeheadsmall
 0009:80690FB0       aUpperJaw
 0009:80690FBC       aUpperjaw
 0009:80690FC8       aHead_6
 0009:80690FD0       aHead_7
 0009:80690FD8       aBody_25
 0009:80690FE0       aBody03
 0009:80690FE8       aLowerJaw
 0009:80690FF4       aLowerjaw
 0009:80691000       aSnakehead
 0009:8069100C       aBody04
 0009:80691018       aSnakeheadshado
 0009:80691028       aSnakeheadsmall_0
 0009:80691040       aSupportfreeze_14
 0009:80691050       aEmexplodeunder
 0009:80691064       aDeath_6
 0009:80691070       aAntenna
 0009:80691078       aBody01
 0009:80691080       aWaylay
 0009:80691088       aWait_12
 0009:80691090       aForward_0
 0009:80691098       aEmsnakeheadfor
 0009:806910AC       aBack_0
 0009:806910B4       aEmsnakeheadbac
 0009:806910C8       aDamage_1
 0009:806910D0       aEvsnakeheaddam
 0009:806911C8       aShadow_3
 0009:80691240       aStinkbugparent_0
 0009:80691250       aBody_76
 0009:80691258       aHead_16
 0009:80691260       aFace_2
 0009:80691268       aSwitchchildj
 0009:80691278       aSwitch_0
 0009:8069128C       aAnger
 0009:80691294       aSupportfreeze_19
 0009:806912A4       aWait_44
 0009:806912AC       aSearch_1
 0009:806912B4       aAngersearch
 0009:806912C0       aRushstart
 0009:806912D0       aEvstinkbuglfin
 0009:806912E0       aEmlvstinkbugld
 0009:806912F8       aRush
 0009:80691300       aEmlvstinkbugld_0
 0009:80691314       aRushstop
 0009:80691320       aBack_2
 0009:80691328       aEmlvstinkbuglb
 0009:8069133C       aDeath_8
 0009:80691344       aEmstinkbugstom
 0009:80691358       aEvstinkbuglsto
 0009:8069136C       aAttack_15
 0009:80691374       aSpinaction
 0009:80691380       aEmguards
 0009:8069138C       aLoss
 0009:80691394       aEvstinkbuglpan
 0009:806913A8       aEmlvstinkbuglp
 0009:806913BC       aRushsmoke
 0009:806913C8       aBacksmoke_0
 0009:806913D4       aRepel
 0009:806913E4       aChilddeath
 0009:806913F0       aEvstinkbugssto
 0009:80691404       aEmexplodes_7
 0009:80691410       aEvstinkbuglsur
 0009:80691424       aIn_5
 0009:80691444       aEvlvstinkbugla
 0009:80691458       aEmlvstinkbugla
 0009:8069146C       aOjstarpiecebur_3
 0009:80691480       aEmstinkbuglang
 0009:80691494       aBgmPinch01
 0009:806914A4       aChildcenter
 0009:806927CC       aTeresa
 0009:806927D4       aSupportfreeze_15
 0009:806927E4       aTeresachief
 0009:806927F0       aSklroot
 0009:80692B88       aFollower1
 0009:80692B94       aFollower2
 0009:80692BA0       aFollower3
 0009:80692BAC       aFollower4
 0009:80694068       aAudioresInfoAc
 0009:80694088       aActionsoundBcs
 0009:806940A0       aObjname
 0009:806940A8       aSoundtype
 0009:806940B4       aSoundlabel
 0009:806940C0       aTriggertype
 0009:806940CC       aTriggername
 0009:806940D8       aSoundtype_0
 0009:806940E4       aSoundlabel_0
 0009:806940F0       aStartframe_1
 0009:806940FC       aEndframe_0
 0009:80694108       aJointname_4
 0009:80694118       aPitchchangetyp
 0009:80694128       aVolumechangety
 0009:8069413C       aPitchchangearg
 0009:80694150       aVolumechangear
 0009:80694198       aAudbgmconducto
 0009:806941A8       aIcevolcanogala
 0009:806941C0       aOceanringgalax_0
 0009:806941D0       aMadnessonimasu
 0009:80694218       aAudcamerawatch
 0009:8069422C       aSeAtLvUnderWat
 0009:80694270       aOIoeEI
 0009:806942C0       aBgmTamakoro
 0009:806942D0       aBgmTamakoro2
 0009:80694300       jpt_8022395C
 0009:80694368       jpt_80223D88
 0009:806946B0       aActoranimctrl
 0009:806946C0       aSBcsv_10
 0009:806946C8       aSname
 0009:806946D0       aSstartframe
 0009:806946E0       aSiskeepanim
 0009:806946F0       aActoranimname
 0009:80694700       aActionbgmctrl
 0009:80694710       aSBcsv_11
 0009:80694718       aBckname_3
 0009:80694720       aBckstartframe_1
 0009:80694730       aBgmname_0
 0009:80694738       aBgmstateno
 0009:80694744       aIsbgmstop
 0009:80694750       aBgmfadestep
 0009:8069475C       aStagename_0
 0009:80694768       aStagescenarion
 0009:80694778       aActionflagctrl
 0009:80694788       aSwitcha
 0009:80694790       aSwitchb
 0009:80694798       aShowmodel
 0009:806947A4       aCollisionparts
 0009:806947B4       aBinder_1
 0009:806947BC       aCalcgravity
 0009:806947C8       aInvalidateclip
 0009:806947DC       aFacectrl
 0009:80694810       aSBcsv_0
 0009:80694818       aActionname
 0009:80694824       aSensorS
 0009:80694830       aSensorSstepS
 0009:80694840       aActionfootprin
 0009:80694858       aSBcsv_1
 0009:80694860       aBckname_0
 0009:80694868       aBckstartframe
 0009:80694878       aJointname_0
 0009:80694888       aIsright
 0009:80694890       aPadandcameract
 0009:806948A8       aSBcsv_2
 0009:806948B0       aBckname_1
 0009:806948B8       aStartframe_0
 0009:806948C4       aEndframe
 0009:806948D0       aPadrumblename
 0009:806948E0       aCamerashakenam
 0009:806948F0       aDistancenear
 0009:80694900       aDistancefar
 0009:80694910       aDistanceinvali
 0009:80694920       aPadrumblenamem
 0009:80694934       aPadrumblenamef
 0009:80694948       aCamerashakenam_0
 0009:80694960       aCamerashakenam_1
 0009:80694978       aActionscreenbl
 0009:80694990       aSBcsv_3
 0009:80694998       aBckname_2
 0009:806949A0       aBckstartframe_0
 0009:806949B0       aBlurtotalstep
 0009:806949C0       aBluroffset
 0009:806949CC       aBluralpha
 0009:806949D8       aBlurfadeinstep
 0009:806949E8       aBlurfadeoutste
 0009:806949F8       aActorhitreacti
 0009:80694A10       aSBcsv_4
 0009:80694A18       aReactionname
 0009:80694A28       aEffectname
 0009:80694A34       aEffectbetweeno
 0009:80694A48       aSoundname_0
 0009:80694A54       aPadrumblename_0
 0009:80694A68       aCamerashakenam_2
 0009:80694A78       aStopsceneframe
 0009:80694A88       aIsstopscenefor
 0009:80694AC0       aItemgenerator
 0009:80694BF8       aActorparam
 0009:80694C08       aSBcsv_12
 0009:80694C10       aParamname
 0009:80694C1C       aParamtype
 0009:80694C28       aParam00
 0009:80694C30       aParammove
 0009:80694C40       aParam01
 0009:80694C48       aParam02
 0009:80694C50       aParam03
 0009:80694C58       aParamsight
 0009:80694C64       aParamrebound
 0009:80694C74       aParamjump
 0009:80694C80       aAllliveactorgr
 0009:80694E0C       aN_4
 0009:80694E50       aNA
 0009:80694F04       aInddummy
 0009:80694F10       aScreendummy
 0009:80694F1C       aGraydummy
 0009:80694F28       aShadowprojdumm
 0009:80694F38       aShadowdummy
 0009:80694F48       aDynamicjointct
 0009:80694F68       aSBcsv_5
 0009:80694F70       aJointname_1
 0009:80694F80       aCtrljointnumma
 0009:80694F90       aGravity_0
 0009:80694F98       aFriction
 0009:80694FA4       aAccelratetobck
 0009:80694FB8       aBendmaxdegree
 0009:80694FC8       aSupportjointna
 0009:80694FDC       aIsfixroot
 0009:80695000       aAttr
 0009:80695020       aSSS
 0009:80695028       aDefault
 0009:80695084       aSS_0
 0009:80695090       aFacejointctrl
 0009:806950AC       aHead_8
 0009:806950B8       aSBcsv_6
 0009:806950C0       aJointname_2
 0009:806950CC       aDegreemaxhl
 0009:806950D8       aDegreemaxhr
 0009:806950E4       aDegreemaxv
 0009:806950F0       aDegreemax
 0009:806950FC       aDegreemaxverti
 0009:806951E8       aIkjointctrl
 0009:80695248       aSBcsv_7
 0009:80695250       aJointname_3
 0009:8069525C       aNearlimitrate
 0009:8069526C       aFarlimitrate
 0009:8069527C       aEndlocaldirx
 0009:8069528C       aEndlocaldiry
 0009:8069529C       aEndlocaldirz
 0009:806952B0       aEnddirmaxdegre
 0009:80695348       __vt__14LiveActorGroup
 0009:80695378       aGroup02d
 0009:806953E0       aMiddle_0
 0009:806953E8       aObjectdataSSAr
 0009:80695400       aSS_6
 0009:80695408       aObjectdataSlow
 0009:80695420       aObjectdataSmid
 0009:80695440       aMirrortex
 0009:806955B0       aMirrorarea_1
 0009:80695900       aPlayer_0
 0009:80695908       aRide_2
 0009:80695910       aSimple
 0009:80695918       aMapobj_0
 0009:80695920       aCharacter
 0009:80695958       aShadowcontroll
 0009:80695EC8       aShadowvolumesp
 0009:80695FB4       aSpotmarklight
 0009:80695FC4       aAppear_14
 0009:80695FCC       aDisappear_1
 0009:80696048       aViewgroupctrl_0
 0009:806964C8       aClosed
 0009:806964D0       aClose_0
 0009:806964D8       aButterfly
 0009:806964E4       aBody_26
 0009:806964EC       aButtbody
 0009:806964F8       aCapposition
 0009:80696504       aWait_13
 0009:80696968       aN_2
 0009:80696A68       aMiniaturegalax
 0009:80696A80       aAppear_16
 0009:80696A88       aDisappear_2
 0009:80696B38       aSystemFilesele
 0009:80696B54       aSystemFilesele_0
 0009:80696B70       aSystemFilesele_1
 0009:80696B8C       aSystemFilesele_2
 0009:80696BA8       aSystemFilesele_3
 0009:80696BC4       aSystemFilesele_4
 0009:80696BE0       aSystemFilesele_5
 0009:80696C18       aFileselectdata
 0009:80696C2C       aFileselectdata_0
 0009:80696C40       aFileselectdata_1
 0009:80696C54       aFileselectdata_2
 0009:80696C6C       aFileselectdata_3
 0009:80696C80       aFileselectdata_4
 0009:80696C98       aFileselectdata_5
 0009:80696CC8       aFileselectitem
 0009:80696CD8       aFileunusedpoin
 0009:80696CE8       aFilepoint
 0009:80696CF4       aSylvfileselmor
 0009:80696D0C       aSyfileselmorph
 0009:80696D20       aSyfileselmorph_0
 0009:80696DA4       aVanish
 0009:80696DAC       aCopy
 0009:80696DB4       aComplete_0
 0009:80696DE4       aAiAiN
 0009:80697058       aSystemFilesele_6
 0009:80697074       aBody_56
 0009:8069707C       aFileselector
 0009:80697118       aFileselectbutt
 0009:80697138       aAi
 0009:80697148       aMiiselect
 0009:80697154       aMiiAiN
 0009:80697168       a2pA
 0009:80697178       aEE_2
 0009:8069718C       aSygalaxyselect
 0009:80697B18       aZonehalo
 0009:80697B24       aPowerstarhalo
 0009:80697E98       aO_11
 0009:80697EA8       aI_17
 0009:80697EB4       __vt__13LightDirector
 0009:80697EE0       aLightdataArc
 0009:80697EF0       aStagedataSSlig
 0009:80697F0C       aLightdataBcsv
 0009:80697F1C       aSlightBcsv
 0009:80697F30       aScolor
 0009:80697F38       aSpos
 0009:80697F40       aSfollowcamera
 0009:80697F50       aSlightD
 0009:80697F5C       aSalpha2
 0009:80697F68       aSambient
 0009:80697F74       aArealightname_0
 0009:80697F84       aInterpolate
 0009:80697F90       aPlayer_1
 0009:80697F98       aStrong
 0009:80697FA0       aWeak
 0009:80697FA8       aPlanet_0
 0009:80697FB0       aLightid
 0009:80697FB8       aArealightname
 0009:80698260       aMove_4
 0009:80698268       aBody_57
 0009:80698270       aPhantomshipa
 0009:80698298       aS02d
 0009:80698850       aPlanetmapdatat
 0009:80698868       aPlanetmapdatat_0
 0009:80698880       aPlanetname
 0009:8069888C       aSS_11
 0009:80698898       aBendswanpplane
 0009:806988A8       aBluestarcupsul_0
 0009:806988C0       aCrescentseesaw
 0009:806988D8       aFlowerblossomr
 0009:806988F4       aKoopafinalstar
 0009:8069890C       aMagmaboaticepl
 0009:80698920       aMagmaboatmagma
 0009:80698938       aMariofaceplane
 0009:80698948       aMysterymountai
 0009:80698960       aPeachcastlenig
 0009:80698978       aRelaydrill2dpl
 0009:8069898C       aRisepictureboo_0
 0009:806989A4       aBattlegrapyonp
 0009:806989B8       aBarrelcolonyin
 0009:806989D0       aBothsideliftpl
 0009:806989E4       aMagmasliceplan
 0009:806989F8       aChallengeglide
 0009:80698A14       aChoconveyorpla
 0009:80698A28       aCoinroombrickb
 0009:80698A40       aCoinroombrickb_0
 0009:80698A5C       aCoinroombrickf
 0009:80698A7C       aCoinroomsfblue
 0009:80698A94       aCoinroomsfpurp
 0009:80698AAC       aCoinroomwoodbl
 0009:80698AC8       aCoinroomwoodbr
 0009:80698AE0       aCoinroomwoodfl
 0009:80698AFC       aDarkhopperplan
 0009:80698B10       aDarkhopperplan_0
 0009:80698B24       aDarkhopperplan_1
 0009:80698B38       aDarkhopperplan_2
 0009:80698B4C       aDarknessroompl
 0009:80698B60       aDrumactionplan
 0009:80698B74       aDrill2dtimingp
 0009:80698B88       aFlagdiscplanet
 0009:80698B98       aFlagdiscplanet_0
 0009:80698BA8       aFlagdiscplanet_1
 0009:80698BB8       aFlagdiscplanet_2
 0009:80698BC8       aGlidercliffcre
 0009:80698BE0       aGlidercylinder
 0009:80698BF8       aGliderdossunro
 0009:80698C10       aGliderdownfall
 0009:80698C2C       aGliderforestpl
 0009:80698C40       aGliderforestwa
 0009:80698C64       aGlidergoalgate
 0009:80698C7C       aGliderpolewood
 0009:80698C94       aGliderstartwoo
 0009:80698CAC       aGliderwaterfal
 0009:80698CC4       aGravityfollowl
 0009:80698CE0       aGravityfollowp
 0009:80698D04       aHoneyqueenplan
 0009:80698D18       aItemcollection
 0009:80698D30       aKoopabattlelv1
 0009:80698D48       aKoopabattlelv2
 0009:80698D60       aKoopabattlelv3
 0009:80698D78       aLongcylinderfl
 0009:80698D98       aLuckyroomplane
 0009:80698DA8       aMariofaceshipp
 0009:80698DBC       aMuimuiattackpl
 0009:80698DD0       aMysterycandybr
 0009:80698DEC       aMysteryflippan
 0009:80698E0C       aMysterymountai_0
 0009:80698E28       aPicturejoinpla
 0009:80698E3C       aReverseflowsan
 0009:80698E54       aReversegravity
 0009:80698E7C       aReversegravity_0
 0009:80698E98       aReversegravity_1
 0009:80698EBC       aSandyflowsandp
 0009:80698ED0       aSkateholeplane
 0009:80698EE0       aStarcreekplane
 0009:80698EF0       aStarduststartp
 0009:80698F04       aStorybookopeni
 0009:80698F20       aStorybookticom
 0009:80698F38       aSwitchgravityb
 0009:80698F54       aTubesliderstar
 0009:80698F6C       aUfoshapepassth
 0009:80698F88       aUndergrounddan
 0009:80698FA4       aYukkinabodypla
 0009:80698FB8       aZerogravityroo
 0009:80698FD0       aLowflag
 0009:80698FD8       aMiddleflag
 0009:80698FE4       aMiddle
 0009:80698FEC       aBloomflag
 0009:80698FF8       aBloom_0
 0009:80699000       aWaterflag
 0009:8069900C       aWater_1
 0009:80699014       aIndirectflag
 0009:80699024       aIndirect
 0009:80699030       aForcelowscenar
 0009:80699048       aSD
 0009:80699050       __vt__16PlanetMapCreator
 0009:80699080       aI_6
 0009:806990A0       aSlow
 0009:80699140       aProductmapobjd_0
 0009:8069915C       aProductmapobjd
 0009:80699178       aAutomakemapobj
 0009:80699188       aAnmmodelswitch
 0009:8069919C       aAnmmodelswitch_0
 0009:806991B8       aAnmmodelswitch_1
 0009:806991DC       aAnmmodelswitch_2
 0009:80699200       aAnmmodelswitch_3
 0009:80699228       aAnmmodelswitch_4
 0009:80699240       aCloudstep
 0009:8069924C       aCloudsea
 0009:80699258       aHipdropmoveblo
 0009:8069926C       aRailmoveobj
 0009:80699278       aRailmovewithre
 0009:80699294       aRailmovewithin
 0009:806992B4       aRailmoveshadow
 0009:806992CC       aRailmoveobjcli
 0009:806992E4       aRailmovedemoac
 0009:806992FC       aRailmovelavapr
 0009:80699314       aRailrotatemove
 0009:80699328       aRailandrotatem
 0009:80699340       aRotatemoveobj
 0009:80699350       aRotatemoveobjc
 0009:80699368       aGorogorocylind
 0009:80699380       aLavafloater
 0009:8069938C       aSimplebreakabl
 0009:806993A8       aSimplebreakabl_0
 0009:806993C8       aSimplebreakabl_1
 0009:806993DC       aSimplebreakabl_2
 0009:806993FC       aSimpleclippart
 0009:80699410       aSimplefloatero
 0009:80699424       aSimplemapobj
 0009:80699434       aSimplemapobjfa
 0009:80699448       aSimplemapobjwi
 0009:80699460       aSimpleseesawob
 0009:80699470       aSwitchingmoveb
 0009:80699484       aEffectobjr500f
 0009:80699498       aEffectobjr1000
 0009:806994AC       aEffectobjr1500
 0009:806994C0       aEffectobj20x20
 0009:806994E0       aEffectobj50x50
 0009:80699500       aEffectobj10x10
 0009:80699520       aProjectionmaps
 0009:80699534       aSoundsyncsky
 0009:80699544       aPriordrawair
 0009:80699554       aAftermapobjdra
 0009:80699568       aProjectionmapa
 0009:8069957C       aModelname
 0009:80699588       aClassname
 0009:80699938       aQuakeeffectare_0
 0009:80699948       aAtlvearthquake
 0009:80699A10       aJunglegliderga
 0009:80699AA8       aBgmRaceLose
 0009:80699AB8       aBgmRaceWin
 0009:80699EB8       aO_19
 0009:8069A1B0       aChange_1
 0009:8069A1D0       aSummersky
 0009:8069A1FC       aWorldmap01sky
 0009:8069A20C       aWorldmap02sky
 0009:8069A21C       aWorldmap03sky
 0009:8069A22C       aWorldmap04sky
 0009:8069A23C       aWorldmap05sky
 0009:8069A24C       aWorldmap06sky
 0009:8069A25C       aWorldmap07sky
 0009:8069A270       __vt__Q22MR31FunctorV0M<P3Sky,M3SkyFPCvPv_v>
 0009:8069A55C       aAppear_25
 0009:8069A564       aDisappear_3
 0009:8069A570       __vt__10SpaceInner
 0009:8069A600       aI_4
 0009:8069A614       aSwA_1
 0009:8069A61C       aSwB_1
 0009:8069A624       aSwAppear_1
 0009:8069A630       aSwDead_1
 0009:8069A638       aSwParam_0
 0009:8069A670       aN_12
 0009:8069A688       aSunlightarea_1
 0009:8069A6C8       __vt__18SwitchSynchronizer
 0009:8069A6F8       aI_5
 0009:8069A738       aSwitchwatcherh
 0009:8069AEB0       aMove_5
 0009:8069AEB8       aEndloop
 0009:8069AEC0       aAnmmodelmovest
 0009:8069AED4       aAnmmodelmovelo
 0009:8069AEE8       aAnmmodelstop
 0009:8069AEF8       aAnmmodelkill
 0009:8069AF08       aReverse_1
 0009:8069AF10       aAnmmodelrevers
 0009:8069B490       aArrowswitch
 0009:8069B49C       aShadow_4
 0009:8069B4A4       aBody_27
 0009:8069B4AC       aCollision_1
 0009:8069B4B8       aOjarrowswitcho
 0009:8069B4C8       aOjlvarrowswitc
 0009:8069B4DC       aOjarrowswitchs
 0009:8069BA0C       aBind
 0009:8069BD30       aBendswanpplane_0
 0009:8069BD48       aBendswanpplane_1
 0009:8069BD60       aBendswanpplane_2
 0009:8069BD84       aCollisionS
 0009:8069BD94       aWaita_0
 0009:8069BD9C       aMovea
 0009:8069BDA4       aWaitb_0
 0009:8069BDAC       aMoveb
 0009:8069BDB4       aWaitc
 0009:8069C014       aGlow
 0009:8069C01C       aAppearpicture
 0009:8069C02C       aOjkinoko1uprun
 0009:8069C040       aOjlvkinoko1upr
 0009:8069C054       aLand_2
 0009:8069C05C       aMove
 0009:8069C064       aSyitemappear
 0009:8069C074       aAppear_3
 0009:8069C07C       aSeOjKinoko1upR
 0009:8069C20C       aBigfan
 0009:8069C214       aTeresamario2dg
 0009:8069C35C       aBigfancloud
 0009:8069C368       aMove_0
 0009:8069C7B0       aBluestarcupsul
 0009:8069C7C8       aUfobluestarcup
 0009:8069C7F4       aBluestarcupsul_1
 0009:8069C80C       aBody_28
 0009:8069C814       aRoot_0
 0009:8069C81C       aWait_14
 0009:8069C824       aUfobluestarcup_0
 0009:8069C838       aOjlvufobluesta
 0009:8069C84C       aCsStarPower
 0009:8069C85C       aOjlvmagicpntgp
 0009:8069C870       aReact
 0009:8069C878       aOjmagicpntgon
 0009:8069C888       aOjlvmagicpntgp_0
 0009:8069C89C       aTargetlight
 0009:8069C8A8       aTouch_0
 0009:8069C8B0       aActive
 0009:8069C8B8       aTouchable
 0009:8069CAD0       aBreakablecager_0
 0009:8069CAE4       aBreakablecage_0
 0009:8069CAF4       aBreakablecagel_0
 0009:8069CB04       aBreakablefixat_0
 0009:8069CB18       aBreakabletrash_0
 0009:8069CD28       aPhantomcandles
 0009:8069CD3C       aTeresamansionc
 0009:8069CD58       aCandlestandice
 0009:8069CD70       aCandlestand
 0009:8069CD7C       aTeresamansionc_0
 0009:8069CD98       aFire01
 0009:8069CDA0       aFire02
 0009:8069CDA8       aFire_1
 0009:8069CDB0       aExtinguish01
 0009:8069CDC0       aExtinguish02
 0009:8069CDD0       aExtinguish
 0009:8069CDDC       aOjfirestandign
 0009:8069CDF0       aOjlvphantomtoa
 0009:8069CE08       aOjphantomtoach
 0009:8069D760       aChip1
 0009:8069D768       aChip2
 0009:8069D770       aChip3
 0009:8069D778       aChip4
 0009:8069D780       aChip5
 0009:8069D79C       aYellowchipcoun
 0009:8069D7B0       aChipget
 0009:8069D7B8       aShowhide
 0009:8069DEF8       aCloudstep_0
 0009:8069DF04       aWait_15
 0009:8069DF0C       aDisappear
 0009:8069DFD8       aWatermelon
 0009:8069DFE8       aCoconut_0
 0009:8069DFF0       aBreakwatermelo
 0009:8069E000       aCoconutbreak
 0009:8069E010       aOjcoconuthit
 0009:8069E020       aPmspinhit
 0009:8069E030       aOjcoconutlaunc
 0009:8069E040       aOjcoconutflipm
 0009:8069E050       aOjcoconutflips
 0009:8069E060       aBody_67
 0009:8069E068       aRollingsmoke
 0009:8069E078       aLand_8
 0009:8069E080       aWatercolumn_2
 0009:8069E08C       aSpinhitmark
 0009:8069E098       aOjcoconutbound
 0009:8069E0AC       aOjcoconutbound_0
 0009:8069E0BC       aOjlvcoconutrol
 0009:8069E0D8       aOjlvcoconutrol_0
 0009:8069E0E8       aOjfallinwaterm
 0009:8069E0F8       aSeOjFallInWate
 0009:8069E1F0       aCoconuttreelea_0
 0009:8069E2F4       aPurplecoin
 0009:8069E300       aCoin_0
 0009:8069E308       aCoin_1
 0009:8069E574       aCoingroup
 0009:8069E6D0       aIn_3
 0009:8069E6E0       aMeCoinAppearS
 0009:8069E6F4       aSeSyCoinAppear
 0009:8069E750       aCoinlinkgroup
 0009:8069E760       aCirclecoingrou
 0009:8069E770       aRailcoin
 0009:8069EC98       aMove_9
 0009:8069ED20       aCrystalcages_0
 0009:8069ED30       aCrystalcagem_0
 0009:8069ED40       aCrystalcage2d
 0009:8069ED50       aFalltype
 0009:8069ED5C       aBody_68
 0009:8069ED64       aFreeze_1
 0009:8069ED6C       aOjcrystalcagel
 0009:8069ED84       aOjcrystalcages
 0009:8069EDA8       aCrystalcagefor
 0009:8069EDE0       aCrystalcagelbr
 0009:8069EE28       aFallstart
 0009:8069EE34       aBlur
 0009:8069EE40       aFalling
 0009:8069EF48       __vt__Q214NrvCrystalCage24CrystalCageNrvBreakAfter
 0009:8069EF58       __vt__Q214NrvCrystalCage19CrystalCageNrvBreak
 0009:8069EF68       __vt__Q214NrvCrystalCage18CrystalCageNrvWait
 0009:8069EF88       aBreak_6
 0009:8069EF90       aMove_8
 0009:8069EF98       aCrystalcageopa_4
 0009:8069F050       aDown_1
 0009:8069F064       aCymbalsstepclo
 0009:8069F078       aBody_29
 0009:8069F080       aRideonclosed
 0009:8069F090       aRideon
 0009:8069F098       aClose_1
 0009:8069F258       aDashfruitstem
 0009:8069F4F8       aCoin
 0009:8069F500       aKinopio
 0009:8069F508       aFreeze
 0009:8069F510       aSpindriver
 0009:8069F520       aSuperspindrive
 0009:8069F530       aStarpiecedummy
 0009:8069F540       aTico
 0009:8069F548       aDummy_0
 0009:8069F550       aKeyswitch
 0009:8069F55C       aInrotation
 0009:8069F568       aPowerstar
 0009:8069F574       aDemo
 0009:8069F57C       aKinokooneup_0
 0009:8069F588       aKuribo_0
 0009:8069F590       aBluechip
 0009:8069F59C       aYellowchip
 0009:8069F5A8       aStraytico
 0009:8069F5B4       aGrandstar
 0009:8069F5C0       aKinokolifeup
 0009:8069F5D0       aColorchange
 0009:8069F5DC       aShadow_5
 0009:8069F5E4       aLight_0
 0009:8069F660       aBody_58
 0009:8069F6D8       aGravityarrow_0
 0009:8069F758       aMiniworldwarpp
 0009:8069F76C       aMariofaceship
 0009:8069F77C       aWorldwarppoint_2
 0009:8069F794       aPrevious
 0009:8069F7A0       aWorldwarppoint_3
 0009:8069FC90       aBody0
 0009:8069FC98       aBody1_2
 0009:8069FCA0       aBody2_2
 0009:8069FCA8       aBody3_2
 0009:8069FCB0       aBody4_1
 0009:8069FCB8       aBody5_1
 0009:8069FCC0       aBody6
 0009:8069FCC8       aBody7
 0009:8069FCD0       cSensorNameTable__12ElectricRail
 0009:8069FCF0       aElectricrailpo
 0009:8069FD04       aBody_30
 0009:8069FD2C       aElectricrail_0
 0009:8069FD58       aStart
 0009:8069FD60       aLine
 0009:8069FD68       aKoopabeam
 0009:8069FD78       aOjlvelecrailha
 0009:8069FD88       aOjelecrailvani
 0009:8069FEF8       aAttack_12
 0009:8069FF00       aElectricrail_1
 0009:806A01A0       aBody0_0
 0009:806A01A8       aBody1_3
 0009:806A01B0       aBody2_3
 0009:806A01B8       aBody3_3
 0009:806A01C0       aBody4_2
 0009:806A01C8       aBody5_2
 0009:806A01D0       aBody6_0
 0009:806A01D8       aBody7_0
 0009:806A0200       aElectricrailpo_0
 0009:806A0214       aBody_31
 0009:806A0220       aElectricrailmo
 0009:806A0238       aPointertouch
 0009:806A0248       aElectricrailmo_0
 0009:806A1278       aGN
 0009:806A1490       aGcaptureribbon_0
 0009:806A14A4       aGcaptureribbon
 0009:806A1534       aGcapturetarget
 0009:806A1544       aBody_32
 0009:806A1E08       aChange
 0009:806A205C       aGravitylightro_0
 0009:806A2070       aAppear_4
 0009:806A2078       aWait_16
 0009:806A2080       aSyreadriddles
 0009:806A2090       aFall_1
 0009:806A2098       aSePmGravLightD
 0009:806A20B4       aDisappear_0
 0009:806A219C       aGravitytimerch
 0009:806A21B4       aUptodown
 0009:806A21C0       aDowntoup
 0009:806A2280       aInithipdropmov
 0009:806A229C       aHipdropmoveblo_0
 0009:806A22B4       aOffset_0
 0009:806A22BC       aRotate_1
 0009:806A2688       aSeSyTimerA2
 0009:806A2698       aSeSyTimerA1
 0009:806A26A8       aSeSyTimerAQuas
 0009:806A26C0       aSeSyTimerA0
 0009:806A26D0       aSeSyTimerB2
 0009:806A26E0       aSeSyTimerB1
 0009:806A26F0       aSeSyTimerBQuas
 0009:806A2708       aSeSyTimerB0
 0009:806A2730       aMove_1
 0009:806A2738       aWait_17
 0009:806A2740       aLand_3
 0009:806A2748       aOnnormal
 0009:806A2754       aOjhipdropswitc
 0009:806A2768       aOffnormal
 0009:806A2774       aSyncon
 0009:806A2780       aSyncoff
 0009:806A2878       aMeteor
 0009:806A2880       aBody_33
 0009:806A29A0       aIcesurface
 0009:806A29AC       aIcemeteorball
 0009:806A2A70       aIcestep
 0009:806A2A78       aBody_77
 0009:806A2A80       aTimeoutlong
 0009:806A2A8C       aTimeoutshort
 0009:806A2A9C       aStart_1
 0009:806A2AA4       aOjicefloorfree
 0009:806A2AB8       aOjicefloormelt
 0009:806A2AC8       aBreak_10
 0009:806A2AD0       aOjicefloorbrea
 0009:806A2D7C       aFadein
 0009:806A4420       aLavafloatertra
 0009:806A4438       aLavayoshiactio
 0009:806A4450       aLavahomefloate
 0009:806A4464       aLavafloatingst
 0009:806A4478       aLavafloatingst_0
 0009:806A448C       aLavafloatingst_1
 0009:806A44A0       aLavafloatingst_2
 0009:806A44B4       aFloaterotaking
 0009:806A44CC       aLavabubble
 0009:806A44D8       aLavafloater_0
 0009:806A4578       aLavageyser
 0009:806A4584       aLavageyserappe
 0009:806A4598       aForcedeath
 0009:806A45A4       aAttack_9
 0009:806A45AC       aUpper_0
 0009:806A45B4       aLavageyserdisa
 0009:806A45C8       aSign
 0009:806A45D0       aOjlvlavageyser
 0009:806A45E4       aOjlavageysersh
 0009:806A45F8       aOjlvlavageyser_0
 0009:806A460C       aLavageyserwait
 0009:806A48A0       aLavaseparatewa
 0009:806A48B8       aLavaseparatewa_0
 0009:806A48E8       aMoveleft
 0009:806A48F4       aBody_34
 0009:806A48FC       aMoveright
 0009:806A5208       aMeteor_0
 0009:806A5210       aBody_55
 0009:806A5338       aIcesurface_0
 0009:806A5348       aMagmameteorbal
 0009:806A5600       aMetamorphosesc
 0009:806A561C       aMetamorphosesc_0
 0009:806A5B60       aMariofaceshipn
 0009:806A5B7C       aONpc
 0009:806A5BC8       aColorchange_5
 0009:806A5BD4       aTexchange_0
 0009:806A5BE0       aAppear_15
 0009:806A5BE8       aMove_7
 0009:806A5BF0       aInitstageeffec_0
 0009:806A5C08       aInitstageeffec
 0009:806A5C1C       aMapobjactorapp
 0009:806A5C30       aShadow_14
 0009:806A5C38       aBody_62
 0009:806A5C40       aRailpoint
 0009:806A5C4C       aBloom_2
 0009:806A5C58       aSbloom
 0009:806A5C78       aSbreak
 0009:806A5C80       aSandupdowntowe
 0009:806A5D48       aBreak_4
 0009:806A5D50       aMapobjactorbre
 0009:806A5E68       aDummy_1
 0009:806A5E70       aBombzonegravit
 0009:806A5E8C       aUfosandobstacl
 0009:806A5EA0       aUfosandobstacl_0
 0009:806A5EB4       aUfosandobstacl_1
 0009:806A5EC8       aKoopavs2partsj
 0009:806A5EE4       aKoopavs2partss
 0009:806A5F04       aKoopavs2partss_0
 0009:806A5F28       aKoopavs2partsn
 0009:806A5F40       aKoopavs2partsc
 0009:806A5F60       aShadow_6
 0009:806A5F68       aSandupdowntowe_0
 0009:806A5F88       aSandupdowntowe_1
 0009:806A5FA8       aSandupdowntowe_2
 0009:806A5FCC       aKoopajrnormals
 0009:806A5FE0       aKoopastatue
 0009:806A5FF0       aDangersignboar
 0009:806A6000       aProminenceseta
 0009:806A6010       aFoominlavacros
 0009:806A6030       aRepeatblocklav
 0009:806A6058       aColor
 0009:806A61C0       aMariolauncher
 0009:806A6BA0       aMorphitemobj
 0009:806A6BB0       aMorphitemobjne
 0009:806A6BC8       aPoweruphopper
 0009:806A6BD8       aPowerupbee
 0009:806A6BE4       aPowerupteresa
 0009:806A6BF4       aPowerupice
 0009:806A6C00       aPowerupfire
 0009:806A6C0C       aPowerupfoo
 0009:806A6C18       aPowerupcloud
 0009:806A6C28       aPoweruprock
 0009:806A6C34       aMorphitemneoho
 0009:806A6C48       aMorphitemneobe
 0009:806A6C58       aMorphitemneote
 0009:806A6C6C       aMorphitemneofi
 0009:806A6C80       aMorphitemneoic
 0009:806A6C90       aBenefititeminv
 0009:806A6CA8       aMorphitemrock
 0009:806A6CB8       aBody_35
 0009:806A6D64       jpt_802D31A0
 0009:806A6D88       aAppear_5
 0009:806A7570       aNote
 0009:806A7578       aBody_69
 0009:806A7580       aVanish_0
 0009:806A7588       aOjmusicalnoteb
 0009:806A7678       aNote_0
 0009:806A7680       aNotefairy_0
 0009:806A790C       aPetitporter
 0009:806A7CB8       aPhantomtorchro
 0009:806A7CE4       aPhantomtorch
 0009:806A7CF4       aBody_36
 0009:806A7CFC       aOjstarpiecebur
 0009:806A7D10       aSycandlecombo5
 0009:806A7D20       aSycandlecombo4
 0009:806A7D30       aSycandlecombo3
 0009:806A7D40       aSycandlecombo2
 0009:806A7D50       aSycandlecombo1
 0009:806A7D60       aPhantombonfire
 0009:806A7D70       aOjlvbonfirebur
 0009:806A7D80       aOjlvphantomtoa_0
 0009:806A7D98       aExtinguish_0
 0009:806A7DA4       aOjphantomtoach_0
 0009:806A83CC       aGrandstargetko
 0009:806A83E4       aPowerstarcolor
 0009:806A83F4       aFoomat
 0009:806A8400       aGrandstarbronz
 0009:806A8410       aGrandstarempty
 0009:806A8420       aPowerstar_1
 0009:806A842C       aSbronze
 0009:806A8438       aSgreen
 0009:806A8440       aGrandstar_1
 0009:806A844C       aGreenstar_0
 0009:806A8458       aBody_61
 0009:806A8460       aYoshigrandstar
 0009:806A8474       aYoshipowerstar
 0009:806A84FC       aIn_0
 0009:806A8520       aN_10
 0009:806A8568       aSupporttico_0
 0009:806A860C       aLight_5
 0009:806A8614       aGrandstarget
 0009:806A8624       aPowerstarget
 0009:806A8634       aOjpowstarmovee
 0009:806A8648       aOjpowstarmovee_0
 0009:806A865C       aExistgreen
 0009:806A8668       aOjlvpowstarexi
 0009:806A867C       aOjlvpowstarexi_0
 0009:806A8690       aSypowstarappea
 0009:806A86A0       aAppearbossform
 0009:806A86B4       aAppearbosslatt
 0009:806A86C8       __vt__9PowerStar
 0009:806A87A8       aIn_6
 0009:806A8870       aBody_63
 0009:806A889C       aCannon
 0009:806A88A8       aCannon1_0
 0009:806A88B0       aShotstart
 0009:806A8C9C       aPulltargetdraw
 0009:806A8CB0       aBody_37
 0009:806A8CB8       aShadow_7
 0009:806A8CC0       aDrawer
 0009:806A8CC8       aTimer
 0009:806A8CD0       aWait_18
 0009:806A8CD8       aPullend
 0009:806A8CE0       aPullmoving
 0009:806A8CEC       aPullstop
 0009:806A8CF8       aDrawbacksign
 0009:806A8D08       aTimercount2
 0009:806A8D14       aTimercount1
 0009:806A8D20       aTimerzero
 0009:806A8D2C       aBack_1
 0009:806A8D34       aReturnmoving
 0009:806A8D44       aReturnstop
 0009:806A8D50       aBacksmoke
 0009:806A8D5C       aPulltargetpos
 0009:806A8E4C       aBody_38
 0009:806A8E54       aBreakwater
 0009:806A8E60       aOjpunchboxbrea
 0009:806A8E74       aBreak_2
 0009:806A8E80       aOjpunchboxbrea_0
 0009:806A8F68       aPunchingkinoko
 0009:806A9240       aIn_1
 0009:806A928C       aQuestioncoin
 0009:806A929C       aBinder_2
 0009:806A92A4       aPlanemode_0
 0009:806A92B0       aAppear_6
 0009:806A92B8       aLight_1
 0009:806A92C0       aSyquestioncoin
 0009:806A92D0       aQuestioncoinju
 0009:806A92E8       aJumpobj
 0009:806A92F0       aQuestioncoinju_0
 0009:806A93D8       aReverse
 0009:806A93E0       aMove_2
 0009:806A93E8       aPlayeronsand
 0009:806A96F8       aMove_6
 0009:806A97F8       aDemomove
 0009:806A9808       aReverse_0
 0009:806AA680       aPoleobstaclepa
 0009:806AA694       aPoleobstaclepa_0
 0009:806AA6A8       aPoleobstaclepa_1
 0009:806AA6BC       aPoleobstaclepa_2
 0009:806AA860       aXplus
 0009:806AA868       aXminus
 0009:806AA870       aYplus
 0009:806AA878       aYminus
 0009:806AA880       aZplus
 0009:806AA888       aZminus
 0009:806AA90C       aMove_3
 0009:806AAE40       aRisepictureboo
 0009:806AAE58       aRisepictureboo_1
 0009:806AAE74       aRisepictureboo_2
 0009:806AAE8C       aRisepictureboo_3
 0009:806AAEA8       aRisepictureboo_4
 0009:806AAEC0       aRisepictureboo_5
 0009:806AAEDC       aRisepictureboo_6
 0009:806AAEF4       aRisepictureboo_7
 0009:806AAF10       aRisepictureboo_8
 0009:806AAF50       aFire00
 0009:806AAF58       aFire01_0
 0009:806AAF68       aBody_39
 0009:806AB030       aNN_3
 0009:806AB070       aWanwanrolling_0
 0009:806AB080       aMinibreak
 0009:806AB08C       aEmwanwanrollmi
 0009:806AB0A8       aWanwanrollingm_0
 0009:806AB0BC       aWanwanrollingg_0
 0009:806AB0D0       aSmoke
 0009:806AB0D8       aLight_4
 0009:806AB0E0       aBody_72
 0009:806AB100       aRockbreak
 0009:806AB10C       aNN_1
 0009:806AB120       aWanwanrollingb
 0009:806AB134       aNN_2
 0009:806AB150       aWanwanrollingg_1
 0009:806AB168       aWeak_0
 0009:806AB170       aLand_9
 0009:806AB178       aEvwanwanrollmi
 0009:806AB190       aEvwanwanrollwa
 0009:806AB1A4       aOjlvrockmove
 0009:806AB1B4       aEmlvwanwanroll
 0009:806AB1CC       aEmlvwanwanroll_0
 0009:806AB1E0       aOjlvrockmovemu
 0009:806AB1F0       aEmlvwanwanroll_1
 0009:806AB20C       aMinitouch
 0009:806AB218       aTouch_1
 0009:806AB220       aEmlvwanwanroll_2
 0009:806AB238       aEmwanwanrollst
 0009:806AB250       aOjrockbound
 0009:806AB25C       aEmwanwanrollbo
 0009:806AB270       aBreak_8
 0009:806AB278       aOjrockbreak
 0009:806AB284       aEmwanwanrollex
 0009:806AB88C       aMagmaslicerota
 0009:806AB8BC       aAppear_7
 0009:806AB8C4       aRotatemoveobjs
 0009:806AB8D8       aRotatemoveobjm
 0009:806AB8EC       aRotatemoveobjs_0
 0009:806ABD00       aSandstormparam
 0009:806AC538       aShootingstar
 0009:806AC548       aMessage_1
 0009:806AC550       aShootingstarap
 0009:806AC564       aShootingstarbl
 0009:806AC578       aOjlvstarpiecef
 0009:806AC58C       aOjstarpiecenot
 0009:806AC5A0       aShootingstarbr
 0009:806AC688       aWait_35
 0009:806AC690       aBreak_5
 0009:806AC6B0       aGororockbreakf
 0009:806AC6C4       aTeresamansionh
 0009:806AC6DC       aKoopastatue_0
 0009:806AC6E8       aKoopajrstatue
 0009:806AC6F8       aIciclerock
 0009:806AC704       aSandupdowntowe_3
 0009:806AC724       aSandupdowntowe_4
 0009:806AC748       aConcreteblockd
 0009:806AC760       aConcreteblock
 0009:806AC770       aSnowblocka
 0009:806AC77C       aYukkinatree
 0009:806AC788       aCrystalcageopa
 0009:806AC798       aCrystalcageopa_0
 0009:806AC7B8       aBreak_3
 0009:806AC7C0       aBody_40
 0009:806ACB48       aClipappearbatt
 0009:806ACE38       aRipple
 0009:806ACF14       aTexchange
 0009:806ACF20       aKoopashipseesa
 0009:806ACF34       aSeOjLvKoopaShi
 0009:806ACF50       aIcevolcanobala
 0009:806ACF68       aSeOjLvVolBalSt
 0009:806ACF84       aIcevolcanobala_0
 0009:806ACF9C       aIcemountainsee
 0009:806ACFB8       aSeOjLvIceMSees
 0009:806ACFD0       aIcemountainsee_0
 0009:806ACFE8       aSeOjLvIceMSees_0
 0009:806AD000       aIcemountainsee_1
 0009:806AD018       aSeOjLvIceMSees_1
 0009:806AD030       aIcemountainsee_2
 0009:806AD048       aIcemountainsee_3
 0009:806AD064       aMoving
 0009:806AD06C       aMagmamonsterro
 0009:806AD64C       aRange
 0009:806AD654       aSmallstonememb
 0009:806AD668       aWindloop
 0009:806AD678       aWindend
 0009:806AE0A0       aSeOjLvSpiderTh
 0009:806AE0C0       aSpincloudblock_1
 0009:806AE39C       aSpindriver_0
 0009:806AE3A8       aBody_41
 0009:806AE3B0       aShadow_8
 0009:806AE748       aIN
 0009:806AE764       aNI_0
 0009:806AE788       aSpindriverpath
 0009:806AE7A0       aNormalcolorBti
 0009:806AE7B0       aGreenBti
 0009:806AE7BC       aPinkBti
 0009:806AE7C8       aMaskBti
 0009:806AEA38       aMoving_0
 0009:806AEA40       aStartnormal
 0009:806AEA4C       aStartslow
 0009:806AEA58       aStop_2
 0009:806AEA60       aClipdrawarea_1
 0009:806AEAAC       aStarpiece_1
 0009:806AEAB8       aStarpiece1V
 0009:806AEAC8       aAttack_10
 0009:806AEAD0       aBody_42
 0009:806AEAD8       aGift
 0009:806AEAE0       aStarpieceflyin
 0009:806AEAF8       aStarpiecebreak
 0009:806AEB08       aStarpiecebreak_0
 0009:806AEB18       aOjstarpiecebre
 0009:806AEB2C       aOjstarpiecebre_0
 0009:806AEB40       aSandcolumns
 0009:806AEB50       aStarpiecelight
 0009:806AEB60       aStarpiecelight_0
 0009:806AEB70       aWaterfall
 0009:806AEB7C       aLand_4
 0009:806AEB88       aOjstarpiecehit_0
 0009:806AEB98       aOjstarpiecehit_1
 0009:806AEBA8       aOjstarpiecefly
 0009:806AEBB8       aOjstarpiecefly_0
 0009:806AEBC8       aStarpiecegetbl
 0009:806AEBDC       aInvalidhitmark
 0009:806AEBEC       aOjstarpiecehit_2
 0009:806AEC00       aStarpiecetouch
 0009:806AEC18       aGetable
 0009:806AEC20       aOjstarpieceref
 0009:806AEC34       aOjstarpieceref_0
 0009:806AEC48       aStarpiecegets
 0009:806AEC58       aStarpieceget
 0009:806AEC68       aSeOjStarPieceF
 0009:806AEC80       aSeOjStarPieceF_0
 0009:806AEF40       aMariofaceshipg_3
 0009:806AEF54       aI_18
 0009:806AEF74       aA_2
 0009:806AEF84       aOjstarpiecebur_1
 0009:806AEF98       aOjstarpiecebur_2
 0009:806AEFAC       aSeSyStarPieceG
 0009:806AEFC8       aCsStardustGet
 0009:806AEFD8       aCsFeedSpiece
 0009:806AEFE8       aSeSyCsFeedPiec
 0009:806AEFFC       aStardust
 0009:806AF008       aCharge
 0009:806AF010       aSearch_0
 0009:806AF018       aCsNoSpiece
 0009:806AF028       aSeSyCsNoPiece
 0009:806AF03C       aCsStardustShoo
 0009:806AF050       aSeSyCsStarPiec
 0009:806AF110       __vt__Q219NrvStarPieceShooter17HostTypeNrvLockOn
 0009:806AF130       aStarpieceflowe_0
 0009:806AF140       aClosewait
 0009:806AF14C       aOpen_1
 0009:806AF154       aSpinreaction
 0009:806AF394       aStarpiecegroup_0
 0009:806AF3A4       aStarpieceflow
 0009:806AF5D8       aStarpiecemothe
 0009:806AF7FC       aStarpiecespot
 0009:806AF80C       aBody_43
 0009:806AF968       aShadow_17
 0009:806AF970       aWait_49
 0009:806AF978       aTrampled_1
 0009:806AF984       aSpin_5
 0009:806AF98C       aSpinrotate
 0009:806AFD08       aSuperspindrive_0
 0009:806AFD18       aShadow_9
 0009:806AFD20       aBind_0
 0009:806AFD28       aBody_44
 0009:806B037C       aSwitchfreezepl
 0009:806B0390       aSkateholeplane_0
 0009:806B03A0       aBody_45
 0009:806B03A8       aSice
 0009:806B03B0       aStarcreekplane_0
 0009:806B03C0       aFreeze_0
 0009:806B03C8       aFreezewait
 0009:806B03D4       aThow
 0009:806B0500       aRedblueturnblo
 0009:806B0708       aTimeattackcloc
 0009:806B0D58       aCoinflower_0
 0009:806B0D64       aBloom_3
 0009:806B0D6C       aOjcoinflowerbl
 0009:806B0D80       aGlow_0
 0009:806B0E50       aOE_0
 0009:806B0E60       aBsign
 0009:806B0E68       aBwait
 0009:806B0E70       aFwait
 0009:806B0E78       aSign_0
 0009:806B0E80       aFsign
 0009:806B0E88       aOjlvtsukidashi
 0009:806B0E9C       aOjtsukidashist
 0009:806B0EB0       aOjlvtsukidashi_0
 0009:806B0EC4       aOjtsukidashist_0
 0009:806B12AC       aOjufokinokomov
 0009:806B12C0       aOjlvufokinokom
 0009:806B12D4       aOjufokinokomov_0
 0009:806B14C0       aSwitchstarta
 0009:806B14D0       aSwitchstartb
 0009:806B14E8       aSwitchenda
 0009:806B14F4       aSwitchendb
 0009:806B1618       aDC
 0009:806B1630       aWarppod_0
 0009:806B1638       aActive_0
 0009:806B1640       aWait_45
 0009:806B1648       aEndglow
 0009:806B1650       aWpodD
 0009:806B1664       aOjwarppodpatha
 0009:806B1680       aOjwarppodactiv
 0009:806B1690       aTestcolorBti
 0009:806B16A0       aTestmaskBti
 0009:806B1750       aCannon1_1
 0009:806B17D0       aWaterbullet
 0009:806B17DC       aBody_78
 0009:806B17E4       aBinder_3
 0009:806B17EC       aWaterpressureb
 0009:806B1800       aGcapturebreak
 0009:806B1810       aBreak_12
 0009:806B1818       aOjwpressbubble
 0009:806B182C       aShot_0
 0009:806B1834       aMove_10
 0009:806B1840       aWaterbulletwai
 0009:806B1850       aOjlvwpressbubb
 0009:806B1864       aTwiststart
 0009:806B1870       aSpin2nd
 0009:806B1878       aOjwpressbubble_0
 0009:806B188C       aCatchv
 0009:806B1894       aTouch_3
 0009:806B189C       aWaterbulletsta
 0009:806B1E48       aPanel
 0009:806B20E0       aN_3
 0009:806B20FC       aBody_60
 0009:806B2104       aYoshiblockArc
 0009:806B2114       aYoshiblocktexB
 0009:806B2128       __vtbl__19YoshiBlockCollision
 0009:806B2228       aYcapturetarget
 0009:806B2238       aWait_34
 0009:806B2240       aWaitfree
 0009:806B224C       aCatch
 0009:806B2258       aRelease_0
 0009:806B23E8       aYoshifruit_0
 0009:806B24D0       aYoshifruitstem
 0009:806B29E4       aBody_64
 0009:806B2A30       aI_12
 0009:806B2A3C       aCommonpathId_0
 0009:806B2AD8       aI_9
 0009:806B2AEC       aCommonpathId_1
 0009:806B2B28       aI_10
 0009:806B2BA8       aI_11
 0009:806B2BB4       aFalldownwall_0
 0009:806B2BC4       aRailmovedisapp_0
 0009:806B2BDC       aRailmoverstop
 0009:806B2BEC       aRailmoverwaits
 0009:806B2C00       aRailmoverwaits_0
 0009:806B2C18       aRailmoverresta
 0009:806B2C30       aRailmoverwaiti
 0009:806B2C44       aRailmovermoves
 0009:806B2C58       aRailmovermovel
 0009:806B2C6C       aRailmoversigns
 0009:806B2C80       aRailmovesign
 0009:806B2C90       aRailmoversignl
 0009:806B2CA4       aRailmoverstopa
 0009:806B2CBC       aRailmoverstopa_0
 0009:806B2CD8       aRailmoverstopa_1
 0009:806B2CF4       aRailmoverstopa_2
 0009:806B2D08       aRailmoverstopa_3
 0009:806B2D20       aRailmoverstopa_4
 0009:806B2D38       aRailmoverstopa_5
 0009:806B2FFC       aRotatorrotates
 0009:806B3010       aRotatorrotatel
 0009:806B3024       aRotatorstopate
 0009:806B3038       aRotatorstopate_0
 0009:806B3050       aRotatorrotates_0
 0009:806B3068       aRotatorrotates_1
 0009:806B3388       aMarineplant
 0009:806B3394       aPlanta
 0009:806B339C       aPlantb
 0009:806B33A4       aPlantc
 0009:806B33AC       aPlantd
 0009:806B33E4       __vt__7NameObj
 0009:806B3460       aConnecttoscene
 0009:806B34A8       aAudioeffectare_1
 0009:806B34B8       aBgmchangearea_1
 0009:806B34C8       aBgmvolumefadea_1
 0009:806B34DC       aBloomarea
 0009:806B34E8       aCancelbeemorph_0
 0009:806B34FC       aClipdrawarea_0
 0009:806B350C       aCumulativetime_0
 0009:806B3528       aDeatharea_0
 0009:806B3534       aDepthoffieldar
 0009:806B3548       aMessagearea_0
 0009:806B3558       aMorphswitchare_0
 0009:806B3568       aPostfogarea
 0009:806B3578       aPostoutlineare
 0009:806B3588       aShadowcolorare_0
 0009:806B3598       aSoundplayarea_2
 0009:806B35A8       aSpinswitcharea_0
 0009:806B35B8       aSunlightarea_0
 0009:806B35C8       aSwitcharea_0
 0009:806B35D4       aViewgroupctrla
 0009:806B35E8       aWaterarea
 0009:806B35F4       aYoshieatguidan_0
 0009:806B360C       aAreamovesphere_1
 0009:806B361C       aBeewallshortdi_0
 0009:806B3634       aBindendarea
 0009:806B3640       aBluestarguidan_0
 0009:806B3658       aCameraarea
 0009:806B3664       aCelestrialarea
 0009:806B3674       aCometfiredance_0
 0009:806B3688       aComethopperare_0
 0009:806B3698       aCometnospinare_0
 0009:806B36A8       aCometrainbowar_0
 0009:806B36BC       aDarkmatterarea_0
 0009:806B36CC       aDashchargearea_0
 0009:806B36DC       aDemoplayerforb_0
 0009:806B36F8       aDodoryucloseda_0
 0009:806B370C       aDreamerdeadcou_0
 0009:806B3724       aDrillholehidde_0
 0009:806B3738       aEffectarea
 0009:806B3748       aEnforcejumpare_0
 0009:806B3758       aExtrawallcheck_1
 0009:806B376C       aFallsarea
 0009:806B3778       aForbidsupportt_0
 0009:806B3790       aForbidtriangle_0
 0009:806B37A8       aForcedashcube_0
 0009:806B37B8       aGlaringlightar_0
 0009:806B37CC       aHeavysteeringa
 0009:806B37E0       aLensflarearea_0
 0009:806B37F0       aLightctrlarea_0
 0009:806B3800       aMarionocaparea_0
 0009:806B3810       aMirrorarea_0
 0009:806B381C       aNomessagearea_0
 0009:806B382C       aNonsleeparea
 0009:806B383C       aPlanecollision_0
 0009:806B3850       aPlanemodearea
 0009:806B3860       aPlayermorphlim_0
 0009:806B3878       aPlayersidereta_0
 0009:806B3890       aPullbackarea
 0009:806B38A0       aRasterscrollar_0
 0009:806B38B4       aRecoveryfloorc_0
 0009:806B38D0       aRepeatblocksha_0
 0009:806B38EC       aRollingwaterbr_0
 0009:806B3908       aScenechangeare_0
 0009:806B3918       aShadowfarclipc_0
 0009:806B3930       aSloperunningca_0
 0009:806B3948       aSmokeeffectcol_0
 0009:806B3960       aSpincloudfront_0
 0009:806B397C       aSpinguidancear_0
 0009:806B3990       aStorybookareat_0
 0009:806B39A4       aStorybookareaw_0
 0009:806B39B8       aTamakorojumpgu_1
 0009:806B39D4       aTamakoromovegu_1
 0009:806B39F0       aTogepinattackf_0
 0009:806B3A08       aYoshicapturegu_0
 0009:806B3A24       aYoshisendoffar_0
 0009:806B3A38       aCollisionarea_0
 0009:806B3A48       aFallscube
 0009:806B3A54       aHazecube
 0009:806B3A60       aMercatorcube_0
 0009:806B3A70       aSoundemittercu_3
 0009:806B3A84       aSoundemittersp_2
 0009:806B3A98       aPlanecollision_1
 0009:806B3AAC       aTicoseedguidan_0
 0009:806B3AC4       aTowermodecylin_2
 0009:806B3AD8       aWarpcube_0
 0009:806B3AE4       aWorldmapsyncso_1
 0009:806B3B04       aClipareaboxbot
 0009:806B3B18       aClipareaboxcen
 0009:806B3B2C       aClipareaboxbot_0
 0009:806B3B48       aClipareaboxcen_0
 0009:806B3B64       aClipareaconebo
 0009:806B3B78       aClipareaconeto
 0009:806B3B88       aClipareacylind
 0009:806B3B9C       aClipareasphere
 0009:806B3BAC       aMario_1
 0009:806B3BB4       aBombheired_0
 0009:806B3BC0       aBringenemy
 0009:806B3BCC       aCaretaker_0
 0009:806B3BD8       aCaretakerhunte_0
 0009:806B3BE8       aCollecttico
 0009:806B3BF8       aDreamer_2
 0009:806B3C00       aGhostattackgho_1
 0009:806B3C14       aGlibirdnpc
 0009:806B3C20       aHoneybee
 0009:806B3C2C       aHoneyqueen
 0009:806B3C38       aKinopio_3
 0009:806B3C40       aKinopiobank_1
 0009:806B3C4C       aKinopiopostman
 0009:806B3C5C       aKoopanpc
 0009:806B3C68       aLuigitalknpc_1
 0009:806B3C78       aMamemuimuiatta
 0009:806B3C90       aMeister
 0009:806B3C98       aMonte
 0009:806B3CA0       aPeach
 0009:806B3CA8       aPenguin
 0009:806B3CB0       aPenguincoach_0
 0009:806B3CC0       aPenguinmaster
 0009:806B3CD0       aPichan_0
 0009:806B3CD8       aPichanracer_0
 0009:806B3CE4       aPlayattackman
 0009:806B3CF4       aRabbit
 0009:806B3D00       aRosetta
 0009:806B3D08       aScoreattackcou_0
 0009:806B3D1C       aScoreattackman_2
 0009:806B3D2C       aSignboard
 0009:806B3D38       aStarlistboard_0
 0009:806B3D48       aSuperdreamer_2
 0009:806B3D58       aTico_0
 0009:806B3D60       aTicobaby
 0009:806B3D70       aTicobig
 0009:806B3D78       aTicofatcoin_0
 0009:806B3D84       aTicofatstarpie_0
 0009:806B3D98       aTicorail
 0009:806B3DA4       aTicoshop_0
 0009:806B3DB0       aTicoshopdice_0
 0009:806B3DC0       aTogepinattackm
 0009:806B3DD4       aTrickrabbit
 0009:806B3DE0       aLuigiintrusive_2
 0009:806B3DF4       aBigsignboard
 0009:806B3E04       aTrickrabbitgho
 0009:806B3E18       aWarppod
 0009:806B3E20       aCreeper
 0009:806B3E28       aFluff_0
 0009:806B3E30       aFluffwind
 0009:806B3E40       aGlibird_0
 0009:806B3E48       aJetturtle
 0009:806B3E54       aJumpbranch
 0009:806B3E60       aPlant
 0009:806B3E68       aPlantslider_0
 0009:806B3E74       aPole_0
 0009:806B3E7C       aTamakoro_1
 0009:806B3E88       aTrapeze
 0009:806B3E90       aTubeslider
 0009:806B3E9C       aPole2way
 0009:806B3EA8       aPolenomodel_0
 0009:806B3EB4       aPolesquare_0
 0009:806B3EC0       aPolesquarenomo
 0009:806B3ED4       aPoletreea_0
 0009:806B3EE0       aPoletreeb_0
 0009:806B3EEC       aBakubaku
 0009:806B3EF8       aBalloonfish_0
 0009:806B3F04       aBasabasa
 0009:806B3F10       aBattan_0
 0009:806B3F18       aBeeeater
 0009:806B3F24       aBegomanbaby_0
 0009:806B3F30       aBegomanlaunche
 0009:806B3F40       aBegomanspike_0
 0009:806B3F50       aBegomanspring_0
 0009:806B3F60       aBombbird
 0009:806B3F70       aBombhei_0
 0009:806B3F78       aBombheilaunche_0
 0009:806B3F88       aBombteresa
 0009:806B3F94       aBoomerangbros
 0009:806B3FA4       aBussun
 0009:806B3FAC       aBuzz
 0009:806B3FB4       aCactus
 0009:806B3FBC       aChorobon
 0009:806B3FC8       aDanceflower
 0009:806B3FD4       aDossun
 0009:806B3FDC       aDossunbig
 0009:806B3FE8       aDrillbullet
 0009:806B3FF4       aFirebubble_0
 0009:806B4000       aFlowermimic_0
 0009:806B400C       aFoomin
 0009:806B4014       aGarigari
 0009:806B4020       aGesso_0
 0009:806B4028       aGrapyon
 0009:806B4030       aGliderbazooka_0
 0009:806B4040       aKillershooter_0
 0009:806B4050       aGlidershooter
 0009:806B4060       aHammerbros
 0009:806B406C       aHammerheadpack
 0009:806B4080       aHanachan
 0009:806B408C       aHanachanbig
 0009:806B4098       aJellyfish
 0009:806B40A4       aJellyfishelect
 0009:806B40B8       aJugem_0
 0009:806B40C0       aJumpbeamer
 0009:806B40CC       aJumpspider
 0009:806B40D8       aKabokuri
 0009:806B40E4       aKameck
 0009:806B40EC       aKameckkuribomi
 0009:806B4100       aKameckmeramera
 0009:806B4110       aKanina
 0009:806B4118       aKarikari_0
 0009:806B4124       aKaron
 0009:806B412C       aKickstone
 0009:806B4138       aKiraira
 0009:806B4140       aKotebug_0
 0009:806B4148       aKuribo_1
 0009:806B4150       aKuribochief
 0009:806B415C       aKuribomini_0
 0009:806B4168       aLavabubble_0
 0009:806B4174       aMamemuimuiscor_0
 0009:806B4188       aMamemuimuiscor_1
 0009:806B419C       aMechanickoopam_0
 0009:806B41B0       aMenbo
 0009:806B41B8       aMeramera_0
 0009:806B41C4       aMetbo
 0009:806B41CC       aMogucchi
 0009:806B41D8       aNigero
 0009:806B41E0       aNokonokoland_0
 0009:806B41F0       aNokonokolandbi_0
 0009:806B4200       aNyoropon
 0009:806B4210       aOtaking_0
 0009:806B4218       aOtarock
 0009:806B4220       aOtarocktank
 0009:806B4230       aPackunflowerbi
 0009:806B4240       aPackunpetit
 0009:806B424C       aPatakuri
 0009:806B4258       aPatakuribig
 0009:806B4264       aPetari_0
 0009:806B426C       aPeto
 0009:806B4278       aOnimasu_0
 0009:806B4280       aPopo
 0009:806B4288       aPukupuku_0
 0009:806B4294       aPukupukuwaters
 0009:806B42AC       aPunchbox_0
 0009:806B42B8       aPunchbox2d
 0009:806B42C4       aPyudon
 0009:806B42CC       aRingbeamer_0
 0009:806B42D8       aSambohead
 0009:806B42E4       aSearchbeamer_0
 0009:806B42F4       aSnakehead_0
 0009:806B4300       aSpindriver_1
 0009:806B430C       aStinkbugparent
 0009:806B431C       aStinkbugsmall
 0009:806B432C       aStringspider
 0009:806B433C       aTakobo
 0009:806B4348       aTakohei
 0009:806B4350       aTakosho
 0009:806B4358       aTerebo
 0009:806B4360       aTerebogroup
 0009:806B436C       aTeresa_1
 0009:806B4374       aTeresaatomic
 0009:806B4384       aTeresawater
 0009:806B4390       aTogezo
 0009:806B4398       aTongari
 0009:806B43A0       aTongari2d
 0009:806B43B0       aTogepin
 0009:806B43B8       aUnbaba
 0009:806B43C0       aUnbabaslim
 0009:806B43CC       aUnizo
 0009:806B43D4       aWanwangoal
 0009:806B43E0       aWanwansearch
 0009:806B43F0       aWanwansearchbi
 0009:806B4400       aYukkina
 0009:806B4408       aYukkinagrounds
 0009:806B441C       aBasabasaice
 0009:806B4428       aBegomanbabylau
 0009:806B443C       aBegomanspringh_0
 0009:806B4450       aBigbirikyu
 0009:806B4460       aBirikyu
 0009:806B4468       aBomb_0
 0009:806B4470       aBomblauncher_0
 0009:806B4480       aGarigarimini
 0009:806B4490       aHammerheadpack_0
 0009:806B44A8       aHomingkiller
 0009:806B44B8       aIcemeramera_0
 0009:806B44C4       aInfernomario_1
 0009:806B44D4       aInstantinferno
 0009:806B44E4       aKaninared
 0009:806B44F0       aKirairarail
 0009:806B44FC       aMagnumkiller
 0009:806B450C       aSnakeheadsmall_1
 0009:806B451C       aTeresachief_0
 0009:806B4528       aTogebegomanlau_0
 0009:806B4540       aTorpedo
 0009:806B4548       aUnizoland
 0009:806B4554       aUnizoshoal
 0009:806B4560       aSuperspindrive_1
 0009:806B4570       aSuperspindrive_2
 0009:806B4584       aBattanking_0
 0009:806B4590       aBellydragon
 0009:806B459C       aBossbussun_0
 0009:806B45A8       aBossjugem_0
 0009:806B45B4       aBossstinkbug_0
 0009:806B45C4       aDinopackunbaby
 0009:806B45D8       aDodoryu
 0009:806B45E0       aKingtossin
 0009:806B45EC       aKoopa
 0009:806B45F4       aKoopajrcastle_0
 0009:806B4604       aKoopajrrobot_0
 0009:806B4614       aPolta_0
 0009:806B461C       aSandy
 0009:806B4628       aTwolegs
 0009:806B4630       aBellydragonlv2
 0009:806B4640       aKoopalv2_0
 0009:806B464C       aKoopalv3_0
 0009:806B4658       aKoopalv4
 0009:806B4664       aKoopademochamb
 0009:806B4678       aKoopafinalbatt
 0009:806B468C       aDinopackunvs1
 0009:806B469C       aDinopackunvs2
 0009:806B46AC       aAirbubble
 0009:806B46B8       aAirbubblegener
 0009:806B46CC       aArrowswitch_0
 0009:806B46D8       aAttackrock_2
 0009:806B46E4       aAttackrocktuto
 0009:806B46F8       aAttackrockfina
 0009:806B4708       aBalloonfruit
 0009:806B4718       aBallopener
 0009:806B4724       aBallopenertama
 0009:806B4738       aBallopenerslid
 0009:806B474C       aBallrail
 0009:806B4758       aBeeflowerhover
 0009:806B4768       aBeejumpball
 0009:806B4774       aBeejumpballb
 0009:806B4784       aBeejumpballc
 0009:806B4794       aBeejumpballd
 0009:806B47A4       aBenefititeminv_0
 0009:806B47BC       aBenefititemlif
 0009:806B47D0       aBenefititemone
 0009:806B47E4       aBigfan_0
 0009:806B47EC       aBigfancloud_0
 0009:806B47F8       aBlackhole
 0009:806B4804       aBloomflower
 0009:806B4810       aBluestarcupsul_2
 0009:806B4828       aBossjugemplane
 0009:806B4840       aBreakablecage
 0009:806B4850       aBrightsun
 0009:806B485C       aButterfly_0
 0009:806B4868       aChangeroom
 0009:806B4874       aCloudstep_1
 0009:806B4880       aCountflower
 0009:806B4890       aCoconut
 0009:806B4898       aCoinappearspot
 0009:806B48A8       aCollapseplane
 0009:806B48B8       aDashring
 0009:806B48C4       aEarthenpipe_0
 0009:806B48D0       aElectricpressu
 0009:806B48E4       aElectricrail
 0009:806B48F4       aElectricrailmo_1
 0009:806B4908       aElectricrailtw
 0009:806B4920       aExterminationc
 0009:806B493C       aFirepressure
 0009:806B494C       aFlippanel
 0009:806B4958       aFlippanelobser
 0009:806B496C       aGrandstargate
 0009:806B497C       aGcapturetarget_0
 0009:806B498C       aGravityarrow
 0009:806B499C       aGravitybgmctrl_0
 0009:806B49AC       aGravityfallblo
 0009:806B49C0       aGravityfallblo_0
 0009:806B49D8       aGravitylightro_1
 0009:806B49EC       aItemdice
 0009:806B49F8       aItemdrill
 0009:806B4A04       aJumphole_0
 0009:806B4A10       aJumpholetamako
 0009:806B4A24       aJumpholetamako_0
 0009:806B4A38       aJumpstand
 0009:806B4A44       aJumpstandauto
 0009:806B4A54       aKoopaassaultfa
 0009:806B4A68       aKoopasealfield
 0009:806B4A80       aKoopasealfield_0
 0009:806B4A90       aKoopastatuevom
 0009:806B4AA4       aKoopajrcastlec
 0009:806B4ABC       aKoopajrcastlew
 0009:806B4AD0       aLavageyser_0
 0009:806B4ADC       aLavahomevolcan_0
 0009:806B4AF0       aLavaprominence
 0009:806B4B00       aLeafboard_0
 0009:806B4B0C       aLiftflower
 0009:806B4B18       aLightfruit
 0009:806B4B24       aLotusleaf
 0009:806B4B30       aLuckydice_0
 0009:806B4B3C       aMariolauncher_0
 0009:806B4B50       aMorphitemneobe_0
 0009:806B4B60       aMorphitemneofi_0
 0009:806B4B74       aMorphitemneoho_0
 0009:806B4B88       aMorphitemneote_0
 0009:806B4B9C       aMorphitemrock_0
 0009:806B4BAC       aMorphitemcolle
 0009:806B4BC8       aMorphitemcolle_0
 0009:806B4BE0       aMorphitemcolle_1
 0009:806B4BFC       aMorphitemcolle_2
 0009:806B4C18       aMorphitemcolle_3
 0009:806B4C30       aMorphitemcolle_4
 0009:806B4C50       aMorphitemcolle_5
 0009:806B4C68       aNotefairy
 0009:806B4C74       aPetitporter_0
 0009:806B4C80       aPetitporterexi
 0009:806B4C98       aPetitporterwar
 0009:806B4CB0       aPositivedice
 0009:806B4CC0       aPowerstar_0
 0009:806B4CCC       aPowerstarappea
 0009:806B4CE4       aPunchingkinoko_0
 0009:806B4CF4       aRepeatblock
 0009:806B4D00       aRestartobj
 0009:806B4D0C       aRockcreator
 0009:806B4D18       aRockreflector
 0009:806B4D28       aSandbird_0
 0009:806B4D34       aShootingstar_0
 0009:806B4D44       aSmallstone
 0009:806B4D50       aSnowball
 0009:806B4D60       aSnowman
 0009:806B4D68       aSoundemitterpo_1
 0009:806B4D7C       aSpacemine
 0009:806B4D88       aSphereraildash
 0009:806B4D98       aSpincloudblock_0
 0009:806B4DA8       aSpinclouditem
 0009:806B4DB8       aSupportflushpo
 0009:806B4DD0       aTimeattackcloc_0
 0009:806B4DE0       aTogepinscorer_0
 0009:806B4DF0       aTsukidashikun
 0009:806B4E00       aWaterpressure
 0009:806B4E10       aWoodbox
 0009:806B4E18       aWoodlogbridge_0
 0009:806B4E28       aAsteroida
 0009:806B4E34       aAsteroidb
 0009:806B4E40       aAsteroidc
 0009:806B4E4C       aAsteroidd
 0009:806B4E58       aBigfannoleg
 0009:806B4E64       aBlackholecube
 0009:806B4E74       aBreakablecagel
 0009:806B4E84       aBreakablecager
 0009:806B4E98       aBreakablecapsu
 0009:806B4EB0       aBreakablefixat
 0009:806B4EC4       aBreakabletrash
 0009:806B4ED4       aCandlestandice_0
 0009:806B4EEC       aCaretakergarba
 0009:806B4F00       aCircleshell
 0009:806B4F0C       aCirclestrawber
 0009:806B4F20       aCoconuttreelea
 0009:806B4F30       aCoinblock2d
 0009:806B4F3C       aCountflowerpow
 0009:806B4F54       aCrystalcagel
 0009:806B4F64       aCrystalcagem
 0009:806B4F74       aCrystalcages
 0009:806B4F84       aCrystalcagefor_0
 0009:806B4F9C       aCrystalcageopa_1
 0009:806B4FAC       aCrystalcageopa_2
 0009:806B4FC0       aCrystalcageopa_3
 0009:806B4FD4       aCutbushgroup
 0009:806B4FE8       aDangersignboar_0
 0009:806B4FF8       aEarthenpipeinw
 0009:806B500C       aExterminationp
 0009:806B5024       aExterminations
 0009:806B5038       aFlippanelframe
 0009:806B5048       aFlippanelrever
 0009:806B505C       aFloaterlandpar
 0009:806B5078       aFlowerbluegrou
 0009:806B5088       aFlowergroup
 0009:806B5094       aGemcages
 0009:806B50A0       aRockcages
 0009:806B50B0       aGlassbottletal
 0009:806B50C0       aGrandstar_0
 0009:806B50CC       aGreenstar
 0009:806B50D8       aHatenawoodbox
 0009:806B50E8       aHeavenlybeacht
 0009:806B5100       aHeavenlybeachu
 0009:806B5118       aHopperbeltconv
 0009:806B5138       aHopperbeltconv_0
 0009:806B5158       aIciclerock_0
 0009:806B5168       aItemblockswitc
 0009:806B5178       aJrrobotstep
 0009:806B5184       aJrrobotstepbre
 0009:806B519C       aJrrobotstepbre_0
 0009:806B51B4       aKillergunnerdo
 0009:806B51C8       aKillergunnertr
 0009:806B51DC       aLavablackufo
 0009:806B51EC       aLavabreakrocka
 0009:806B51FC       aLavafalldownco
 0009:806B5210       aLavafalldownco_0
 0009:806B5224       aLavahomevolcan_1
 0009:806B5240       aLavaobstaclero
 0009:806B5258       aLavaprominence_0
 0009:806B5274       aLavarotateplan
 0009:806B5290       aLavaspacestick
 0009:806B52A0       aLavaspacestick_0
 0009:806B52B0       aMeteorcannon
 0009:806B52C0       aMeteorstrike
 0009:806B52D0       aMeteorstrikeen
 0009:806B52E8       aOceanfloaterto
 0009:806B5308       aOceanfloaterto_0
 0009:806B5328       aOceanfloaterto_1
 0009:806B5348       aOceanfloaterto_2
 0009:806B5368       aPhantomcandles_0
 0009:806B537C       aPhantomtowermo
 0009:806B5394       aRedblueturnblo_0
 0009:806B53A8       aRollingwater
 0009:806B53B8       aSandupdownkill
 0009:806B53D4       aSandupdowntowe_8
 0009:806B53EC       aSandupdowntowe_9
 0009:806B5400       aSeabottomtripl
 0009:806B5420       aShellfishcoin
 0009:806B5430       aShellfishyello
 0009:806B5444       aShutterdoorb
 0009:806B5454       aShutterdoorc
 0009:806B5464       aShutterdoord
 0009:806B5474       aShutterdoore
 0009:806B5484       aSnowblocka_0
 0009:806B5490       aSnowdollkoopa
 0009:806B54A0       aSnowdollkuribo
 0009:806B54B0       aSnowmoundl
 0009:806B54C0       aSpaceminerail5
 0009:806B54D0       aSpacemineraila
 0009:806B54E0       aSpacesticka
 0009:806B54EC       aSpacestickb
 0009:806B54F8       aSpincloudmario
 0009:806B5510       aSplashcoinbloc
 0009:806B5520       aSplashpieceblo
 0009:806B5534       aSunkenship
 0009:806B5540       aTemplatestageg
 0009:806B5558       aTimercoinblock
 0009:806B5568       aTimerpiecebloc
 0009:806B5578       aWanwanrolling
 0009:806B5588       aWanwanrollingg
 0009:806B559C       aWanwanrollingm
 0009:806B55B0       aWaterfallcaven
 0009:806B55CC       aWingblockcoin
 0009:806B55DC       aWingblockstarp
 0009:806B55F0       aWoodlogbridges
 0009:806B5604       aWorldwarppoint_0
 0009:806B561C       aWorldwarppoint_1
 0009:806B5630       aWorldmap01mode
 0009:806B5640       aWorldmap02mode
 0009:806B5650       aWorldmap03mode
 0009:806B5660       aWorldmap04mode
 0009:806B5670       aWorldmap05mode
 0009:806B5680       aWorldmap06mode
 0009:806B5690       aWorldmap07mode
 0009:806B56A0       aWorldmap08mode
 0009:806B56B0       aCapsulecage
 0009:806B56BC       aGororockcoverc
 0009:806B56D0       aFirebar
 0009:806B56D8       aFirebarspheric
 0009:806B56EC       aFirering
 0009:806B56F8       aHipdroprock
 0009:806B5704       aNeedleplant
 0009:806B5710       aNeedletrap
 0009:806B571C       aNeedletrapside
 0009:806B572C       aStarpiececlust_1
 0009:806B5740       aStarpieceflowe
 0009:806B5750       aTreasurespot
 0009:806B5760       aArrowboard
 0009:806B576C       aAsteroidblockr
 0009:806B5788       aAsteroidmovea
 0009:806B5798       aBattleshipelev
 0009:806B57B0       aBattleshipmove
 0009:806B57C8       aBattleshipmove_0
 0009:806B57E0       aBeewallclimbpa
 0009:806B57F4       aBiribiribegoma
 0009:806B5810       aBreakdownfixst
 0009:806B5824       aBroadbeanmoves
 0009:806B5838       aBroadbeanmoves_0
 0009:806B584C       aChoconveyorcho
 0009:806B5860       aChoconveyormov
 0009:806B5878       aClockworkhandl
 0009:806B5888       aCocoonstepa
 0009:806B5894       aCocoonstepb
 0009:806B58A0       aCoinflower
 0009:806B58AC       aColorpencil
 0009:806B58B8       aDarkhopperplan_3
 0009:806B58D0       aDarkhopperplan_4
 0009:806B58E8       aDarkhopperplan_5
 0009:806B5900       aDarkhopperrota
 0009:806B5918       aDarkmattermove
 0009:806B5938       aDarknessroomdo
 0009:806B594C       aDeathpromenade
 0009:806B596C       aDeathpromenade_0
 0009:806B5988       aDeathpromenade_1
 0009:806B59A4       aDeathsandenvir
 0009:806B59C0       aDeathsandenvir_0
 0009:806B59DC       aDeathsandenvir_1
 0009:806B59FC       aDeathsandenvir_2
 0009:806B5A1C       aDeathsandlandp
 0009:806B5A30       aDeathsandlandp_0
 0009:806B5A44       aDeathsandlandp_1
 0009:806B5A60       aDropofwatercor
 0009:806B5A70       aForestappearst
 0009:806B5A84       aForestbarricad
 0009:806B5A9C       aForesthomebrid
 0009:806B5AB0       aForesthomegate
 0009:806B5AC0       aForesthomepart
 0009:806B5AD4       aForesthomepart_0
 0009:806B5AF0       aForestnarrowst
 0009:806B5B04       aForestpoihanaf
 0009:806B5B18       aForestpoihanaf_0
 0009:806B5B30       aForestwoodcove
 0009:806B5B40       aHoledeathsandm
 0009:806B5B58       aHoneyqueenleaf
 0009:806B5B68       aHugebattleship
 0009:806B5B88       aKameckshiplv1
 0009:806B5B98       aKinokooneuppic
 0009:806B5BAC       aKoopashipmanho
 0009:806B5BC4       aKoopastatue_1
 0009:806B5BD0       aLavarotatestep
 0009:806B5BEC       aLavarotatestep_0
 0009:806B5C08       aLavarotatestep_1
 0009:806B5C24       aLavarotatestep_2
 0009:806B5C40       aLavafloatingst_3
 0009:806B5C54       aLavafloatingst_4
 0009:806B5C68       aLavafloatingst_5
 0009:806B5C7C       aLavafloatingst_6
 0009:806B5C90       aLeafmanholecov
 0009:806B5CA8       aMinimechakoopa
 0009:806B5CC0       aMinimechakoopa_0
 0009:806B5CD8       aMinimechakoopa_1
 0009:806B5CF0       aMinimechakoopa_2
 0009:806B5D10       aMysterygravity
 0009:806B5D2C       aNeedleplantfly
 0009:806B5D3C       aPeachcastletow
 0009:806B5D58       aPeachcastletow_0
 0009:806B5D74       aPeachcastletow_1
 0009:806B5D88       aPhantomdecorat
 0009:806B5DA0       aPhantomdecorat_0
 0009:806B5DB8       aPhantomdecorat_1
 0009:806B5DD8       aPhantomfirewoo
 0009:806B5DE8       aPoltabattlepla
 0009:806B5E00       aPowerstarkeepe
 0009:806B5E14       aPowerstarkeepe_0
 0009:806B5E28       aPowerstarkeepe_1
 0009:806B5E3C       aQuicksand2dmov
 0009:806B5E54       aRaygunplanetpa
 0009:806B5E6C       aRaygunplanetpa_0
 0009:806B5E84       aReversegravity_2
 0009:806B5EA0       aReversekingdom
 0009:806B5EB8       aRockroadcircle
 0009:806B5EC8       aRollingovalpla
 0009:806B5EE0       aSandstreamhigh
 0009:806B5F00       aSandstreammove
 0009:806B5F18       aSandstreammove_0
 0009:806B5F30       aSandupdowntowe_5
 0009:806B5F50       aSandupdowntowe_6
 0009:806B5F70       aSandupdowntowe_7
 0009:806B5F8C       aSpacecannonlau
 0009:806B5FA0       aSpacedustwooda
 0009:806B5FB0       aSpacedustwoodb
 0009:806B5FC0       aSpaceseparator
 0009:806B5FD0       aSpaceseparator_0
 0009:806B5FE0       aStardustrollin
 0009:806B5FF8       aStarduststepa
 0009:806B6008       aStarduststepb
 0009:806B6018       aStrongblock
 0009:806B6024       aStrongblock2d
 0009:806B6034       aSunakazekun
 0009:806B6040       aSweetdecoratep
 0009:806B6060       aSweetsdecorate
 0009:806B6078       aSweetsdecorate_0
 0009:806B6094       aTeresamansionb
 0009:806B60AC       aTeresamansionb_0
 0009:806B60C4       aTeresamansionc_1
 0009:806B60E0       aTeresamansionh_0
 0009:806B60F8       aTeresapicture
 0009:806B6108       aTeresaracepart
 0009:806B611C       aTeresaracepart_0
 0009:806B6134       aTeresaracespac
 0009:806B614C       aTeresaracespac_0
 0009:806B6164       aTeresaracespac_1
 0009:806B617C       aTeresaroomglar
 0009:806B6194       aToyfactorydeco
 0009:806B61B4       aTrapbasea
 0009:806B61C0       aTwistersan
 0009:806B61CC       aTwistersanslim
 0009:806B61DC       aUfosandobstacl_2
 0009:806B61F0       aUfosandobstacl_3
 0009:806B6204       aUfosandobstacl_4
 0009:806B6218       aWaterbazookato
 0009:806B6234       aWaterbazookato_0
 0009:806B6250       aWaterbazookato_1
 0009:806B626C       aWeathervane
 0009:806B6278       aWindmillpropel
 0009:806B628C       aWindmillpropel_0
 0009:806B62A8       aMariofaceplane_1
 0009:806B62C0       aWorldmapaccess_0
 0009:806B62D4       aItemroomdoor
 0009:806B62E8       aChimneyentryob
 0009:806B62F8       aItemcollection_0
 0009:806B6314       aSkyislandstep
 0009:806B6328       aSkyislandparts
 0009:806B6338       aSkyislandparts_0
 0009:806B6348       aSkyislandparts_1
 0009:806B6358       aSkyislandparts_2
 0009:806B6368       aSkyislandparts_3
 0009:806B6378       aSkyislandparts_4
 0009:806B6388       aCloudsliderobs
 0009:806B639C       aCymbalsstep
 0009:806B63A8       aDrumtrampoline
 0009:806B63B8       aCloudgardenwin
 0009:806B63D0       aCloudgardenwin_0
 0009:806B63E8       aZigzagcrushblo
 0009:806B63FC       aZigzagcrushblo_0
 0009:806B6410       aBarrelcolonyli
 0009:806B6424       aBarrelcolonydo
 0009:806B6438       aRockbreakcage
 0009:806B6448       aRockbreakcagel
 0009:806B6458       aFalldownbridge
 0009:806B646C       aConstructionli
 0009:806B6480       aWirecovercage
 0009:806B6490       aRailmovenormal
 0009:806B64A4       aSecretgate
 0009:806B64B0       aSecretgatecoun
 0009:806B64C4       aGliderballoon
 0009:806B64D4       aGlidertreea
 0009:806B64E0       aMagmameteor
 0009:806B64EC       aIcemeteor
 0009:806B64F8       aVsotarocktanki
 0009:806B6514       aMagmaseawave
 0009:806B6524       aStarpiececlust_0
 0009:806B653C       aGororocklanepa
 0009:806B6554       aGororocklanepa_0
 0009:806B656C       aGororocklanepa_1
 0009:806B6588       aGororocklanepa_2
 0009:806B65A0       aKoopajrcastleg
 0009:806B65B8       aKoopajrlv2lift
 0009:806B65D0       aMariolaunchert
 0009:806B65E8       aMariolaunchert_0
 0009:806B6600       aMariolaunchert_1
 0009:806B6618       aLavaseparatewa_1
 0009:806B6630       aGlidercometmed
 0009:806B6648       aCaveincube
 0009:806B6654       aFalldownwall
 0009:806B6664       aGliderchangevi
 0009:806B6680       aGliderchangevi_0
 0009:806B669C       aMemoryroadtowe
 0009:806B66B4       aMemoryroadtico
 0009:806B66D0       aMemoryroaddoor
 0009:806B66E0       aSoundsyncblock
 0009:806B66F0       aSoundsyncblock_0
 0009:806B6700       aRailplacementp
 0009:806B671C       aPoleobstaclepa_3
 0009:806B6730       aPoleobstaclepa_4
 0009:806B6744       aPoleobstaclepa_5
 0009:806B6758       aPoleobstaclepa_6
 0009:806B676C       aDashyoshitimer
 0009:806B6788       aDashyoshitimer_0
 0009:806B67A8       aDashyoshitimer_1
 0009:806B67C8       aDashyoshitimer_2
 0009:806B67E8       aDashyoshitimer_3
 0009:806B6808       aRotateseesawtr
 0009:806B6820       aRotatehammerpr
 0009:806B6838       aWanwanliftupst
 0009:806B684C       aGravitytimerch_0
 0009:806B6864       aGorogoro
 0009:806B6870       aGorogoropair
 0009:806B6880       aAncientcage
 0009:806B688C       aRailmovedisapp
 0009:806B68A4       aOldfortresstop
 0009:806B68B8       aOldfortressund
 0009:806B68D0       aBigrepeatwarpl
 0009:806B68E8       aTimergravitych
 0009:806B6908       aWhitesnowtree
 0009:806B6918       aGhostmazeplane
 0009:806B692C       aAssemblyblockp
 0009:806B6940       aAssemblyblockp_0
 0009:806B6954       aAssemblyblockp_1
 0009:806B6968       aAssemblyblockp_2
 0009:806B697C       aAssemblyblockp_3
 0009:806B6990       aOnimasuplaneto
 0009:806B69AC       aOnimasuplanetp
 0009:806B69C4       aOnimasuplanetr
 0009:806B69E0       aOnimasuplanetr_0
 0009:806B69FC       aOnimasuplanetr_1
 0009:806B6A18       aTreasureboxcoi
 0009:806B6A28       aTreasureboxcra
 0009:806B6A44       aTreasureboxcra_0
 0009:806B6A60       aTreasureboxcra_1
 0009:806B6A78       aTreasureboxcra_2
 0009:806B6A90       aTreasureboxcra_3
 0009:806B6AB0       aTreasureboxcra_4
 0009:806B6AD0       aTreasureboxcra_5
 0009:806B6AEC       aTreasureboxcra_6
 0009:806B6B0C       aTreasureboxemp
 0009:806B6B20       aTreasureboxgol
 0009:806B6B38       aTreasureboxkin
 0009:806B6B50       aTreasureboxkin_0
 0009:806B6B68       aTreasureboxyel
 0009:806B6B80       aSpaceshipstep
 0009:806B6B90       aUfokinoko
 0009:806B6B9C       aAurorasky
 0009:806B6BA8       aBigfallsky
 0009:806B6BB4       aChildroomsky
 0009:806B6BC4       aCloudsky
 0009:806B6BD0       aDesertsky
 0009:806B6BDC       aDotpatternsky
 0009:806B6BF0       aFamicommariosk
 0009:806B6C00       aGalaxysky
 0009:806B6C0C       aGhosttownvr
 0009:806B6C18       aGreenplanetorb
 0009:806B6C2C       aHalfgalaxysky
 0009:806B6C3C       aIllustrationga
 0009:806B6C54       aKoopavs1sky
 0009:806B6C60       aKoopavs2sky
 0009:806B6C70       aMagmamonstersk
 0009:806B6C80       aMarioworldvr
 0009:806B6C90       aMilkywaysky
 0009:806B6C9C       aPhantomsky
 0009:806B6CA8       aRockplanetorbi
 0009:806B6CBC       aStarrysky
 0009:806B6CC8       aSummersky_0
 0009:806B6CD4       aTimechangesky
 0009:806B6CE4       aVrbreadgalaxy
 0009:806B6CF4       aVrbubblespace
 0009:806B6D08       aVrcolorfulspac
 0009:806B6D18       aVrdarkspace
 0009:806B6D24       aVrmechanicalga
 0009:806B6D38       aVrorbit
 0009:806B6D40       aVrsandwichsun
 0009:806B6D50       aVrstormsky
 0009:806B6D5C       aVrwhirlpool
 0009:806B6D68       aVrwireframevr
 0009:806B6D78       aGoodweathersky
 0009:806B6D88       aBrightgalaxysk
 0009:806B6D98       aHoleplanetinsi
 0009:806B6DAC       aHoleplanetinsi_0
 0009:806B6DC8       aOmoteulandsky
 0009:806B6DD8       aWorldmapsyncsk
 0009:806B6DE8       aDarknessroomai
 0009:806B6DF8       aDimensionair
 0009:806B6E08       aFineair
 0009:806B6E10       aHomeair
 0009:806B6E18       aSphereair
 0009:806B6E24       aSunsetair
 0009:806B6E30       aTwilightair
 0009:806B6E3C       aPowerstarhalo_0
 0009:806B6E4C       aQuestioncoin_0
 0009:806B6E5C       aTicocoin
 0009:806B6E68       aCoinlinkgroup_0
 0009:806B6E78       aCirclecoingrou_0
 0009:806B6E88       aCirclepurpleco
 0009:806B6EA0       aCoin_2
 0009:806B6EA8       aPurplecoin_0
 0009:806B6EB4       aPurplerailcoin
 0009:806B6EC4       aRailcoin_0
 0009:806B6ED0       aYellowchip_0
 0009:806B6EE0       aYellowchipgrou
 0009:806B6EF0       aStarpiece_2
 0009:806B6EFC       aStarpiecefollo
 0009:806B6F14       aStarpiecegroup_1
 0009:806B6F28       aStarpiecemothe_0
 0009:806B6F38       aStarpiecespot_0
 0009:806B6F48       aStarpiecespote
 0009:806B6F60       aStarpieceflow_0
 0009:806B6F70       aOceansphere
 0009:806B6F7C       aWaterstream
 0009:806B6F88       aFlag
 0009:806B6F90       aSeagullgroup
 0009:806B6FA0       aSeagullgroupma
 0009:806B6FB8       aWaterplant
 0009:806B6FC4       aFishgroupa
 0009:806B6FD0       aFishgroupb
 0009:806B6FDC       aFishgroupc
 0009:806B6FE8       aFishgroupd
 0009:806B6FF4       aFishgroupe
 0009:806B7000       aFishgroupf
 0009:806B700C       aFlagkoopaa
 0009:806B7018       aFlagkoopab
 0009:806B7028       aFlagkoopacastl
 0009:806B7038       aFlagpeachcastl
 0009:806B704C       aFlagpeachcastl_0
 0009:806B7060       aFlagpeachcastl_1
 0009:806B7074       aFlagracea
 0009:806B7080       aFlagsurfing
 0009:806B708C       aFlagtamakoro
 0009:806B709C       aHipdropswitch
 0009:806B70AC       aHipdroptimersw
 0009:806B70C0       aKeyswitch_0
 0009:806B70CC       aPicketswitch
 0009:806B70DC       aPurplecoincomp
 0009:806B70F8       aSpinleverswitc
 0009:806B7108       aSpinleverswitc_0
 0009:806B7128       aPicketswitchbi
 0009:806B7138       aFountain
 0009:806B7144       aFountainbig
 0009:806B7150       aHeadlight
 0009:806B715C       aBattleshipexpl
 0009:806B7178       aBattleshipexpl_0
 0009:806B7190       aBirdlousel
 0009:806B719C       aBirdlouses
 0009:806B71A8       aDrainpipebubbl
 0009:806B71BC       aDrainpipebubbl_0
 0009:806B71D0       aEffectobjsampl
 0009:806B71E0       aEffectteresa
 0009:806B71F0       aFallgreenleaf
 0009:806B7200       aFallredleaf
 0009:806B720C       aFireworksa
 0009:806B7218       aForestwaterfal
 0009:806B722C       aForestwaterfal_0
 0009:806B7240       aIcelayerbreak_0
 0009:806B7250       aLavahomevolcan
 0009:806B726C       aLavasparksl
 0009:806B7278       aLavasparkss
 0009:806B7284       aSandbreezel
 0009:806B7290       aSandbreezes
 0009:806B729C       aShootingstarar
 0009:806B72B0       aSnows
 0009:806B72B8       aSpacedustl
 0009:806B72C4       aSpacedusts
 0009:806B72D0       aStarpiececlust
 0009:806B72E8       aTestrain
 0009:806B72F4       aTwinfalllakewa
 0009:806B730C       aUfokinokolandi
 0009:806B7328       aWaterdropbotto
 0009:806B7338       aWaterdropmiddl
 0009:806B7348       aWaterdroptop
 0009:806B7358       aWaterfalll
 0009:806B7364       aWaterfalls
 0009:806B7370       aWaterlayerbrea
 0009:806B7380       aCavestream
 0009:806B738C       aPhantomtorch_0
 0009:806B739C       aPhantombonfire_0
 0009:806B73AC       aWaterfortressr_0
 0009:806B73C0       aInvisiblewall1
 0009:806B73D4       aInvisiblewall1_0
 0009:806B73E8       aInvisiblewallj
 0009:806B7400       aInvisiblewallj_0
 0009:806B7418       aPolygoncoderec
 0009:806B7430       aPolygoncoderec_0
 0009:806B744C       aGlobalbarrelgr
 0009:806B7460       aGlobalcubegrav
 0009:806B7474       aGlobalconegrav
 0009:806B7488       aGlobaldiskgrav
 0009:806B749C       aGlobaldisktoru
 0009:806B74B4       aGlobalplanegra
 0009:806B74C8       aGlobalplanegra_0
 0009:806B74E0       aGlobalplanegra_1
 0009:806B7500       aGlobalpointgra
 0009:806B7514       aGlobalsegmentg
 0009:806B752C       aGlobalwiregrav
 0009:806B7540       aZerogravitysph
 0009:806B7554       aZerogravitybox
 0009:806B7564       aZerogravitycyl
 0009:806B7578       aYoshiegg_0
 0009:806B7584       aPulltargetbrid
 0009:806B7598       aPulltargetdraw_0
 0009:806B75AC       aDashfruit
 0009:806B75B8       aYoshifruit
 0009:806B75C4       aYoshifruitbig
 0009:806B75D4       aYoshiblock
 0009:806B75E0       aYoshicapture
 0009:806B75F0       aStarreturndemo
 0009:806B7608       aGrandstarretur
 0009:806B7628       aScenariostarte
 0009:806B7638       aFileselector_0
 0009:806B7648       aClipfieldswitc
 0009:806B7658       aGroupswitchwat
 0009:806B7670       aSoundsyncswitc
 0009:806B7680       aRacerail
 0009:806B768C       aTimerswitch
 0009:806B7698       aSwitchsynchron
 0009:806B76B4       aRepearttimersw
 0009:806B76C8       aDemogroup
 0009:806B76D4       aDemosubgroup
 0009:806B76E4       aMariofaceendst
 0009:806B7708       aCompleteending
 0009:806B7720       aDemotitleanim_0
 0009:806B7730       aMariofaceafter
 0009:806B7758       aMariofaceplane_0
 0009:806B7778       aMeetkoopademoo
 0009:806B778C       aNormalendingde
 0009:806B77A0       aOpeningdemoobj
 0009:806B77B0       aPreparekoopafi
 0009:806B77CC       aSimpledemoexec
 0009:806B77E0       aStaffrolldemoo
 0009:806B77F4       aTransformfacet
 0009:806B7818       aMorphitemneofo
 0009:806B7828       aMorphitemneoic_0
 0009:806B7838       aSpinteachdemoo
 0009:806B7A0C       aBombheired
 0009:806B7A18       aTurn_3
 0009:806B7A20       aWait_19
 0009:806B7A28       aTalk_0
 0009:806B7A30       aZenmai
 0009:806B7C30       aCaretaker
 0009:806B7C3C       aBodycolor
 0009:806B7C48       aBtrampled
 0009:806B7C54       aBspinhit
 0009:806B7C60       aBtalkhelp
 0009:806B7C6C       aBwaitstand
 0009:806B7C78       aBruntalk
 0009:806B7C84       aBwaitrun
 0009:806B7C90       aDirt
 0009:806B7C98       aWait_20
 0009:806B7CA0       aTakeoutstarcar
 0009:806B7CC0       aTakeoutstarcar_0
 0009:806B7CD8       aSpinhit_0
 0009:806B7CE0       aTrampled
 0009:806B7CEC       aTalkangry
 0009:806B7CF8       aTalknormal
 0009:806B7D08       aWaitrun
 0009:806B8028       aCaretakerhunte
 0009:806B8038       aBodycolor_0
 0009:806B8044       aBtrampled_0
 0009:806B8050       aBspinhit_0
 0009:806B805C       aBtalkhelp_0
 0009:806B8068       aBwaitstand_0
 0009:806B8490       aN_38
 0009:806B84A8       aSmlvstrayticoc
 0009:806B84C0       aCollectticolig
 0009:806B84D4       aSmstrayticofus
 0009:806B85C8       aDreamer_0
 0009:806B85D0       aDreamercommon0
 0009:806B85E4       aDreamerend
 0009:806B85F0       aDreamer_1
 0009:806B85F8       aWait_33
 0009:806B8600       aAppear_12
 0009:806B8608       aWaiting
 0009:806B8610       aWipein
 0009:806B8618       aBgmDream01
 0009:806B8628       aWipeout
 0009:806B8738       aStarcreekgalax
 0009:806B8748       aMagicgalaxy
 0009:806B8754       aGhostattackgho
 0009:806B8768       a2dwater
 0009:806B8770       aIrregular
 0009:806B877C       aHandl0
 0009:806B8784       aHandr0
 0009:806B878C       aGhostattackgho_0
 0009:806B87AC       aDupNonGroup
 0009:806B87BC       aHopper
 0009:806B8A38       aSpaceflyend
 0009:806B8A44       aSpaceflyloop
 0009:806B8A54       aSpaceflyshort
 0009:806B8A64       aSpaceflyshorts
 0009:806B8A78       aSpaceflystart
 0009:806B8A90       aFootprintBti_1
 0009:806B8AA0       aCenter_5
 0009:806B8AA8       aDupNonGroup_1
 0009:806B8D24       jpt_8034B6D4
 0009:806B8D4C       aSmnpctrampled
 0009:806B8D5C       aSvhoneybeetram
 0009:806B8D70       aSvhoneybeepoin
 0009:806B8D80       aSvhoneybeespin
 0009:806B8D90       aSvhoneybeestar
 0009:806B8DA8       aSmlvhoneybeefl
 0009:806B8DB8       aWalkwait_0
 0009:806B8DC4       aWait_21
 0009:806B8DD0       aFlywait
 0009:806B8DD8       aFlylecturewait
 0009:806B9050       aKinopio_0
 0009:806B9058       aPickel
 0009:806B9060       aBody_46
 0009:806B9068       aYoshitonguehit
 0009:806B9078       aBody_47
 0009:806B9080       aTalk_1
 0009:806B9088       aWalk_3
 0009:806B9090       aWaitpickel_0
 0009:806B909C       aTalkpickel_0
 0009:806B90A8       aWalkpickel
 0009:806B90B4       aSpinwait1
 0009:806B90C0       aSpinwait2
 0009:806B90CC       aSpinwait3
 0009:806B90D8       aSwimwait
 0009:806B90E4       aSleep
 0009:806B90EC       aKinopiogoodswe
 0009:806B9104       aKinopiogoodswe_0
 0009:806B9118       aKinopiogoodswe_1
 0009:806B9130       aRightened
 0009:806B913C       aTurnrightened
 0009:806B914C       aStarpiecewait
 0009:806B915C       aKinopiogoodsst
 0009:806B9178       aGetaway
 0009:806B9180       aTakeoutstar
 0009:806B918C       aColorchange_0
 0009:806B9198       jpt_8034C914
 0009:806B91D8       aSmnpctrampled_0
 0009:806B91E8       aSvkinopiopoint
 0009:806B9200       aSvkinopiotramp
 0009:806B9214       aSvkinopiopoint_0
 0009:806B9228       aSvkinopiostarp
 0009:806B9240       aNotice
 0009:806B9248       aTumble
 0009:806B9250       aGetup
 0009:806B9258       aChange_0
 0009:806B9260       aEscape
 0009:806B9268       aSvkinopiopuha
 0009:806B9278       aSmnpcflyout
 0009:806B9488       aWaitstarpiece
 0009:806B9498       aTurnstarpiece
 0009:806B94A8       aTalkstarpiece
 0009:806B94B8       aSpinstarpiece
 0009:806B94C8       aReactionstarpi
 0009:806B94DC       aWait_0
 0009:806B94E4       aTurn
 0009:806B94EC       aTalk
 0009:806B94F4       aSpin
 0009:806B94FC       aReaction
 0009:806B9508       aWaitweapon
 0009:806B9514       aTurnweapon
 0009:806B9520       aTalkweapon
 0009:806B952C       aSpinweapon
 0009:806B9538       aReactionweapon
 0009:806B9548       aWaitpickel
 0009:806B9554       aTurnpickel
 0009:806B9560       aTalkpickel
 0009:806B956C       aSpinpickel
 0009:806B9578       aReactionpickel
 0009:806B95A0       aKinopio_1
 0009:806B95A8       aPickel_0
 0009:806B95B0       aTalk_2
 0009:806B95B8       aWalk_4
 0009:806B95C0       aKinopiobank
 0009:806B9908       aKinopio_2
 0009:806B9910       aPickel_1
 0009:806B9918       aTalk_3
 0009:806B9920       aWalk_5
 0009:806B9928       aColorchange_1
 0009:806B99AC       aAddmailstarpie
 0009:806B99C0       aWait_22
 0009:806B99C8       aSmnpctrampled_1
 0009:806B99D8       aSvkinopiotramp_0
 0009:806B99EC       aSvkinopiopoint_1
 0009:806B9A00       aSvkinopiostarp_0
 0009:806B9A18       aNotice_0
 0009:806B9CF0       aLuigiintrusive_1
 0009:806B9D04       aI
 0009:806B9D1C       aIN301
 0009:806B9D74       aLuigitalknpc
 0009:806B9D84       aTurn_4
 0009:806B9D8C       aWait_23
 0009:806B9D94       aTalk_4
 0009:806B9D9C       aLuigiintrusive
 0009:806B9DB0       aLuiginpc
 0009:806B9DBC       aLuigiintrusive_0
 0009:806B9DD4       aSvluigipoint
 0009:806B9DE4       aInformationlui
 0009:806B9E00       aHead_9
 0009:806B9E08       aJump_0
 0009:806B9F50       aMamemuimuiscor
 0009:806BA840       aMeisterPriorit
 0009:806BA864       aMeisterPriorit_0
 0009:806BA88C       aMeisterPriorit_1
 0009:806BA8B0       aMeisterPriorit_2
 0009:806BA8CC       aMeisterPriorit_3
 0009:806BA8F0       aMeisterPriorit_4
 0009:806BA914       aMeisterPriorit_5
 0009:806BA940       aMeisterPriorit_6
 0009:806BA964       aMeisterPriorit_7
 0009:806BA988       aMeisterPriorit_8
 0009:806BA9AC       aMeisterPriorit_9
 0009:806BA9D0       aMeisterPriorit_10
 0009:806BA9FC       aMeisterPriorit_11
 0009:806BAA28       aMeisterPriorit_12
 0009:806BAA48       aMeisterAfterst
 0009:806BAABC       aMeisterPriorit_13
 0009:806BAAE0       aMeisterAfterst_0
 0009:806BAB00       aMariofaceshipg_1
 0009:806BAB14       aMeisterAfteris
 0009:806BAB34       aMeisterAfterno
 0009:806BAB54       aMeisterAfterst_1
 0009:806BAB74       aMeisterPriorit_14
 0009:806BABA8       aMeisterNormalt
 0009:806BABC4       aMeisterNormalt_0
 0009:806BABE0       aMeisterNormalt_1
 0009:806BABFC       aMeisterNormalt_2
 0009:806BAC18       aMeisterNormalt_3
 0009:806BAC34       aMeisterNormalt_4
 0009:806BAC50       aMeisterNormalt_5
 0009:806BAC6C       aMeisterStarpie
 0009:806BAC9C       jpt_80353EBC
 0009:806BACD8       jpt_80354020
 0009:806BAE58       aObjectdataMiif
 0009:806BAE78       aRflResDat
 0009:806BAE88       aMii
 0009:806BAEA8       aInitnameobjonm
 0009:806BAF70       aTurn_5
 0009:806BAF78       aWait_24
 0009:806BAF80       aTalk_5
 0009:806BAF88       aBody_48
 0009:806BAF90       aTakeoutstar_0
 0009:806BAF9C       aTakeoutstarmoc
 0009:806BB1C4       aJumpback
 0009:806BB2C0       aPeach_3
 0009:806BB2C8       aPeachanim_0
 0009:806BB2D5       aUrn
 0009:806BB520       jpt_80357DF8
 0009:806BB540       aSmpenguintramp
 0009:806BB554       aSvpenguinstram
 0009:806BB568       aSvpenguinspoin
 0009:806BB57C       aSvpenguinsspin
 0009:806BB590       aSvpenguinsstar
 0009:806BB5A4       aTalka
 0009:806BB5AC       aTalkb
 0009:806BB5B4       aSmlvpenguinswi
 0009:806BB5C8       aSwimdive
 0009:806BB5D4       aSvpenguinsdive
 0009:806BB774       aPenguincoach
 0009:806BB784       aHead_10
 0009:806BB78C       aTurn_6
 0009:806BB794       aWait_25
 0009:806BB79C       aTalkturn
 0009:806BB7A8       aTalk_6
 0009:806BB7B0       aTrampled_0
 0009:806BB7BC       aReaction_0
 0009:806BB7C8       aPointing
 0009:806BB7D4       aSmpenguintramp_0
 0009:806BB7E8       aSvpenguinltram
 0009:806BB7FC       aSvpenguinlpoin
 0009:806BB810       aSvpenguinlspin
 0009:806BB824       aSmpenguinlspin
 0009:806BB838       aSvpenguinlstar
 0009:806BBA78       aPichan
 0009:806BBA80       aWait_26
 0009:806BBA88       aTalk_7
 0009:806BBA90       aTakeoutstarpic
 0009:806BBAA4       aTalkangry_0
 0009:806BBAB0       aTalkcry
 0009:806BBAB8       aTalksmile
 0009:806BBC58       aN_9
 0009:806BBC7C       aRaceblurleader
 0009:806BBC8C       aRaceblurblue
 0009:806BBC9C       aRaceblurred
 0009:806BBCA8       aRaceblurpurple
 0009:806BBCB8       aRaceblurgreen
 0009:806BBCE0       aPichanracer
 0009:806BBCEC       aWait_27
 0009:806BBCF4       aTalkangry_1
 0009:806BBD00       aPichanracerrac
 0009:806BBD1C       aColorchange_2
 0009:806BBD28       aTakeoutstarpic_0
 0009:806BBD40       aGlibirdstartwa
 0009:806BBD54       aGlibirdstart
 0009:806BBD68       aGlibirdstarten
 0009:806BBD78       aRaceflap
 0009:806BBD88       aRacefly
 0009:806BBF74       aTakeoutstar_1
 0009:806BBF80       aTakeoutstarsco
 0009:806BBF9C       aScoreattackman
 0009:806BBFAC       aTurn_7
 0009:806BBFB4       aWait_28
 0009:806BBFBC       aTalk_8
 0009:806BC444       aGororockgalaxy
 0009:806BC454       aWanwanfactoryg
 0009:806BCDEC       aScoreattackman_0
 0009:806BCE08       aScoreattackman_1
 0009:806BD010       aSignboard_0
 0009:806BD0B4       aStarlistboard
 0009:806BD1B0       aStraytico_0
 0009:806BD1BC       aA_4
 0009:806BD1C4       aItembubble
 0009:806BD1D0       aMove_12
 0009:806BD1D8       aBubble
 0009:806BD1E0       aBody_81
 0009:806BD1E8       aPowerstarc
 0009:806BD1F4       aSmlvstrayticow
 0009:806BD208       aSmlvstrayticow_0
 0009:806BD220       aChase_0
 0009:806BD228       aWait_50
 0009:806BD378       aSuperdreamer_1
 0009:806BD388       aSuperdreamerco
 0009:806BD3A0       aSuperdreameren
 0009:806BD3B0       aSuperdreameren_0
 0009:806BD3CC       aHelperwitch
 0009:806BD3D8       aAppear_13
 0009:806BD3E0       aWaita_1
 0009:806BD3E8       aWaitb_1
 0009:806BDCC0       aTicoStarpieceD
 0009:806BDCE0       aTicoStarpiece0
 0009:806BE3A8       aTicofatcoin
 0009:806BE3B4       aWait_29
 0009:806BE3BC       aTalk_9
 0009:806BE3C8       aEatdemo
 0009:806BE3D0       aTicofatgoodsco
 0009:806BE3E4       aTicofatgoodsco_0
 0009:806BE3F8       aTicofatcoinReq
 0009:806BE664       aTicofatstarpie
 0009:806BEC50       aTicoshop
 0009:806BEC5C       aShake
 0009:806BEC64       aTicoshop000
 0009:806BEC70       aSmall0
 0009:806BEC78       aMetamorphosis
 0009:806BEC88       aSmnpctrampled_2
 0009:806BEC98       aSvticoshoptram
 0009:806BECB0       aSvticoshoppoin
 0009:806BECC0       aSmticoshopspin
 0009:806BECD0       aSvticoshopstar
 0009:806BECE8       aDemo_0
 0009:806BECF0       aSmticofatmetai
 0009:806BED04       aSmticofatmeta
 0009:806BED14       aSmmetamorphose
 0009:806BEDF8       aTicoshopdice
 0009:806BEE08       aShake_0
 0009:806BEE10       aLuckydice
 0009:806BF1B4       aTogepinscorer
 0009:806BF694       aRabbitfootprin
 0009:806BF7AC       aCometeventexec
 0009:806BF7D0       aTimerstart
 0009:806BF7DC       aTimeup_0
 0009:806BF8C0       aExterminate
 0009:806BF8D0       aIN_0
 0009:806BF8F4       aN_11
 0009:806BF948       aBody_49
 0009:806BF950       aShadow_10
 0009:806BF958       aYoshitonguehit_0
 0009:806BF968       aFace0
 0009:806BF970       aTonguehitnpc
 0009:806BFAB8       aMmodel
 0009:806BFAC0       aMmakeactor
 0009:806BFAD0       aMhostio
 0009:806BFAD8       aMmessage
 0009:806BFAE4       aMmessageoffset
 0009:806BFAF4       aMinterpole
 0009:806BFB00       aMconnectto
 0009:806BFB0C       aMlightctrl
 0009:806BFB18       aMeffect
 0009:806BFB20       aMsound
 0009:806BFB28       aMsoundsize
 0009:806BFB34       aMattribute
 0009:806BFB40       aMposition
 0009:806BFB4C       aMlodctrl
 0009:806BFB58       aMnerve
 0009:806BFB60       aMbinder
 0009:806BFB68       aMbindersize
 0009:806BFB78       aMsensor
 0009:806BFB80       aMsensorjoint
 0009:806BFCEC       aScoreattackcou
 0009:806BFD00       aTramplecombo
 0009:806BFD10       aScoreupnormal
 0009:806BFD20       aScoresuccess
 0009:806BFD30       aTimeup
 0009:806BFE30       aBalloon
 0009:806BFE38       aText00
 0009:806BFE40       aAppear_20
 0009:806BFE58       aPicbeak
 0009:806BFE60       aSeSyLvTalkMess
 0009:806BFE78       aTalkballoonstr
 0009:806BFE90       aOneline
 0009:806BFE98       aTwoline
 0009:806BFEA0       aTxttext
 0009:806BFEA8       aTalkballooneve
 0009:806BFEC0       aAbuttonpositio_0
 0009:806BFED0       aSeSyTalkOk_0
 0009:806BFEE0       aShabeak
 0009:806BFEE8       aSeSyTalkFocusI_0
 0009:806BFF00       aSeSmTalkblnOpe
 0009:806BFF14       aWait_37
 0009:806BFF1C       aSignboardballo
 0009:806BFF30       aNextpage
 0009:806BFF3C       aTalkballoonlet
 0009:806BFF68       aIN_1
 0009:806BFF94       aAiN
 0009:806C0008       __vt__15TalkBalloonSign
 0009:806C0064       __vt__16TalkBalloonEvent
 0009:806C00C0       __vt__16TalkBalloonShort
 0009:806C011C       __vt__11TalkBalloon
 0009:806C034C       jpt_8037B034
 0009:806C0390       jpt_8037B298
 0009:806C03C0       aPichanrace
 0009:806C03CC       aTicoshopexchan
 0009:806C03E0       aTicoshopwhich
 0009:806C03F0       aDreamer
 0009:806C03F8       aSuperdreamer_0
 0009:806C0408       aMuimuiplay
 0009:806C0418       aScoreattackpla
 0009:806C0428       aScoreattackcon
 0009:806C043C       aGlibirdride
 0009:806C0448       aTicofatcoingiv
 0009:806C0458       aFirewoodboxpla
 0009:806C0468       aGlibirdtutoria
 0009:806C0478       aLuigitalknpc_0
 0009:806C0488       aKinopiobank_0
 0009:806C0494       aLuckeyroom
 0009:806C04A0       aMeistertrade
 0009:806C04B0       aTamakorotutori
 0009:806C04C4       aMeisterconfirm
 0009:806C04D4       jpt_8037B690
 0009:806C0550       aNJr
 0009:806C0578       aSeSmTalkButton
 0009:806C0594       aSeSyTalkStart
 0009:806C05A8       aCsClickOpen
 0009:806C06C0       aMariofireball
 0009:806C06D0       aBreak_9
 0009:806C06D8       aSeOjMarioFireB
 0009:806C06F4       aBody_73
 0009:806C06FC       aRoll_0
 0009:806C0704       aSeOjMarioFireB_0
 0009:806C0720       aCsFireBall
 0009:806C0730       aSeOjMarioFireB_1
 0009:806C0750       __vt__13FireMarioBall
 0009:806C0818       aN_37
 0009:806C0828       aAN_3
 0009:806C0844       aN2_0
 0009:806C0858       aN3
 0009:806C086C       aGhoststartwait
 0009:806C087C       aGhoststarwait
 0009:806C088C       aGhoststarwaita
 0009:806C091C       aN_5
 0009:806C093C       __vt__17GroupCheckManager
 0009:806C0968       __vt__12GroupChecker
 0009:806C0A18       aN_16
 0009:806C0A24       aSeBmGhostMario
 0009:806C0A40       aSeBvGhostMario
 0009:806C0A5C       aNB
 0009:806C0A68       aSeBmGhostMario_0
 0009:806C0A84       aSeBvGhostMario_0
 0009:806C0AA0       aNC
 0009:806C0AAC       aSeBmGhostMario_1
 0009:806C0AC8       aSeBvGhostMario_1
 0009:806C0AE4       aN_27
 0009:806C0AF0       aN_28
 0009:806C0B0C       aN_29
 0009:806C0B30       aSeBvGhostMario_2
 0009:806C0B58       aSeBvGhostMario_3
 0009:806C0B90       aSeBmGhostMario_2
 0009:806C0BB0       aSeBvGhostMario_4
 0009:806C0BE0       aSeBmGhostMario_3
 0009:806C0C00       aSeBvGhostMario_5
 0009:806C0C1C       aN_30
 0009:806C0C28       aSeBmGhostMario_4
 0009:806C0C40       aSeBvGhostMario_6
 0009:806C0C58       aE
 0009:806C0C6C       aSeBvGhostMario_7
 0009:806C0C88       aN_31
 0009:806C0C9C       aSeBvGhostMario_8
 0009:806C0CB4       aN_32
 0009:806C0CD0       aSeBvGhostMario_9
 0009:806C0D00       aN_33
 0009:806C0D0C       aAi_2
 0009:806C0D1C       aAi_3
 0009:806C0D30       aAN_2
 0009:806C0D4C       aN2
 0009:806C0D78       aN_34
 0009:806C0D8C       aN_35
 0009:806C0D9C       aN_36
 0009:806C0DC0       aInfernomario
 0009:806C0DD0       aAppeardemo
 0009:806C0DDC       aShadow_11
 0009:806C0EA4       aInfernomario_0
 0009:806C0EB4       aInfernomarioge
 0009:806C1490       aO
 0009:806C149C       aN_0
 0009:806C39B8       jpt_803934B0
 0009:806C3A50       jpt_80393ADC
 0009:806C4360       jpt_803A0608
 0009:806C468C       aSeSyTrampleCom
 0009:806C46A0       aO_0
 0009:806C46AC       aN_1
 0009:806C46B8       aCannonfleetgal
 0009:806C46CC       aBattleshipgala
 0009:806C46E0       aSandclockgalax
 0009:806C46F0       aTrileglv1galax
 0009:806C4B9C       aSeOjStarPieceB
 0009:806C4BF8       jpt_803B6DE8
 0009:806C4C44       aHipdropsmoke
 0009:806C4C54       aHipdropwater
 0009:806C4C64       aHipdropflower
 0009:806C4C74       aHipdropsand
 0009:806C4C80       aHipdropsnow
 0009:806C4C8C       aMudcircle
 0009:806C4C98       aHoneycircle
 0009:806C4CA4       aMariocloudland
 0009:806C4E6C       aN_22
 0009:806C4F98       cSmokeTable
 0009:806C52B8       aCapposition_0
 0009:806C5854       jpt_803BC344
 0009:806C5880       aSleepstart
 0009:806C588C       aSleep_0
 0009:806C5894       aSleep_1
 0009:806C589C       aWait_30
 0009:806C58A4       aBlink
 0009:806C58AC       aSpin_3
 0009:806C58B4       aFall_2
 0009:806C58DC       jpt_803BCFD8
 0009:806C5958       aSplash
 0009:806C5960       aHandl_2
 0009:806C5968       aFootr
 0009:806C5970       aSpine1_1
 0009:806C5978       aSpine2
 0009:806C5980       jpt_803BDCFC
 0009:806C5AD8       aFootprintBti_0
 0009:806C5B34       aLuigi
 0009:806C5B3C       aMarioanime
 0009:806C5B48       aElementend
 0009:806C5B58       aMariotornadoen
 0009:806C5B68       aMariotornadolo
 0009:806C5B7C       aHandr0_0
 0009:806C5B84       aHandl0_0
 0009:806C5B8C       aEyelidV
 0009:806C5D50       jpt_803C3E10
 0009:806C5D88       jpt_803C4084
 0009:806C5DC0       aCap0
 0009:806C5DC8       aCenter_3
 0009:806C5DD0       aAllRoot
 0009:806C5DDC       aColorchange_3
 0009:806C5E3C       jpt_803C6E74
 0009:806C5EDC       jpt_803C761C
 0009:806C6030       aBeeluigi
 0009:806C603C       aBeeluigiArc
 0009:806C604C       aBeemario
 0009:806C6058       aBeemarioArc
 0009:806C6068       aBWing
 0009:806C6070       aBeemariowing
 0009:806C6080       aHopperluigi
 0009:806C6090       aHopperluigiArc
 0009:806C60A0       aHoppermario
 0009:806C60B0       aHoppermarioArc
 0009:806C60C0       aIceluigi
 0009:806C60CC       aIceluigiArc
 0009:806C60DC       aIcemario
 0009:806C60E8       aIcemarioArc
 0009:806C60F8       aAi_1
 0009:806C6108       aInvincibleluig_0
 0009:806C6118       aInvincibleluig_1
 0009:806C6130       aInvinciblemari_2
 0009:806C6140       aInvinciblemari_3
 0009:806C6154       aLuigitornado
 0009:806C6164       aMariotornado
 0009:806C6174       aBoneluigi_0
 0009:806C6180       aBonemario_0
 0009:806C618C       aCloudluigi_0
 0009:806C6198       aCloudmario_0
 0009:806C6330       jpt_803CB324
 0009:806C6364       aTornadoelement
 0009:806C641C       aSeSyPowerUp
 0009:806C642C       jpt_803CB594
 0009:806C65EC       aN_6
 0009:806C65FC       aN_7
 0009:806C6618       aNI
 0009:806C6628       aN_8
 0009:806C664C       aEE
 0009:806C6668       aIn
 0009:806C6678       aDrillpod
 0009:806C6684       aI_3
 0009:806C6694       aHd
 0009:806C6838       aSmokesphere
 0009:806C6848       aSmokesphereloo
 0009:806C6858       aSmokecircle
 0009:806C6868       aSmokecircleloo_0
 0009:806C6878       aWatersphere
 0009:806C6888       aWatersphereloo
 0009:806C6898       aWatercircle
 0009:806C68A8       aWatercircleloo
 0009:806C68B8       aFlowercircle
 0009:806C68C8       aFlowerspherelo
 0009:806C68DC       aSandcircle
 0009:806C68E8       aSandsphereloop
 0009:806C68F8       aSnowsphere
 0009:806C6904       aSnowsphereloop
 0009:806C6914       aSnowcircle
 0009:806C6920       aSnowcircleloop
 0009:806C6930       aSmokespherefol
 0009:806C6944       aSmokespherefol_0
 0009:806C695C       aSmokecirclefol
 0009:806C6970       aSmokecircleloo
 0009:806C6988       aMudsphere
 0009:806C6994       aMudsphereloop
 0009:806C69A4       aMudcircleloop
 0009:806C69B4       aHoneysphere
 0009:806C69C0       aHoneysphereloo
 0009:806C69D0       aHoneycircleloo
 0009:806C6A00       jpt_803D68D4
 0009:806C6A28       aSlipup
 0009:806C7588       aAllroot
 0009:806C7590       aCap1
 0009:806C7598       aCap2
 0009:806C75A0       aCap3
 0009:806C7780       aNormal
 0009:806C7788       aMetal
 0009:806C7790       aFire_2
 0009:806C7798       aHopper_0
 0009:806C77A0       aTeresa_0
 0009:806C77A8       aBone
 0009:806C77B0       aTornado
 0009:806C77B8       aYoshi
 0009:806C77C0       aHorror
 0009:806C77C8       aCloud
 0009:806C77D0       aRock
 0009:806C8428       aJr
 0009:806C8434       aI_1
 0009:806C844C       aNN
 0009:806C845C       aNN_0
 0009:806C848C       aO_1
 0009:806C8498       aNO
 0009:806C8520       talking_head_height
 0009:806C85C0       aMorphcondition
 0009:806C85D4       aMarioconstArc
 0009:806C85E4       aRushinfluencet
 0009:806C85F8       aObjectinfluenc
 0009:806C8610       aDieblackhole
 0009:806C8620       aDieblackholebe
 0009:806C8630       aDieblackholecl
 0009:806C8644       aDieblackholelu
 0009:806C8658       aDieblackholecl_0
 0009:806DC3F8       aSpine1_2
 0009:806DC400       aDamagewait
 0009:806DCD08       aEyelidV_0
 0009:806DCD14       aMarioEyelid0
 0009:806DCD24       aHandl0_2
 0009:806DCD2C       aHandr0_2
 0009:806DCD34       aFootl
 0009:806DCD3C       aFootr_0
 0009:806DCD44       aCenter_4
 0009:806DCD4C       aAllRoot_0
 0009:806DCD58       aSpine1_3
 0009:806DCD60       aFace0_0
 0009:806DCD68       aFlowerspin
 0009:806DD708       jpt_803EF6D4
 0009:806DD7B8       jpt_803EF79C
 0009:806DDBE0       aEye1
 0009:806DDBE8       aEye2
 0009:806DDBF0       aEye3
 0009:806DDBF8       aEye4
 0009:806DF168       aINN
 0009:806DF180       aOUn
 0009:806DF190       aO_4
 0009:806DF19C       aOUn_0
 0009:806DF1CC       aO_5
 0009:806DF8A0       aPartscontrol
 0009:806DF8B0       aHandl0_1
 0009:806DF8B8       aHandr0_1
 0009:806EA3C0       aI_20
 0009:806EA3D4       aDemomeetyoshi
 0009:806EA3E4       aMouth_0
 0009:806EA3EC       aDashtopwater
 0009:806EA908       aGreen
 0009:806EA910       aBlue
 0009:806EA918       aYellow
 0009:806EA930       aGreentored
 0009:806EA93C       aGreentoblue
 0009:806EA948       aGreentoyellow
 0009:806EA958       aRedtogreen
 0009:806EA964       aBluetogreen
 0009:806EA970       aYellowtogreen
 0009:806EAB28       aYoshiegg
 0009:806EAB34       aBody_50
 0009:806EAB3C       aShadow_12
 0009:806EAB54       aYoshinest
 0009:806EAB74       aYoshieggbreak
 0009:806EAB84       aAppear_26
 0009:806EAB8C       aWait_48
 0009:806EAB94       aWaitnear
 0009:806EABA0       aNosound
 0009:806EABA8       aBreak_13
 0009:806EABB0       aYoshiappear
 0009:806EABC0       aDisappeardamag
 0009:806EABD0       aDisappear_4
 0009:806EABDC       aDisappearfire
 0009:806EABEC       aYoshieggbreakr
 0009:806EAC00       aDisappearelect
 0009:806EAC14       aBgmSmg2JgMeety
 0009:806EAC2C       aI_21
 0009:806EAC50       aInON
 0009:806EAE70       aHead_13
 0009:806EAE78       aSpine
 0009:806EAE98       aAllroot_2
 0009:806EAF38       aLockonparams
 0009:806EC070       aBind_1
 0009:806EC2B4       aFluff
 0009:806ED52C       aPlantleaf
 0009:806ED628       aPlantslider
 0009:806ED634       aBind_2
 0009:806ED63C       aRide_0
 0009:806ED7DC       aPlantArc
 0009:806ED7E8       aPlantstalkBti
 0009:806ED8C0       aNomodel
 0009:806ED8C8       aSquare
 0009:806ED8D0       a2way
 0009:806ED8D8       aPolesquare
 0009:806ED8E4       aPoletreea
 0009:806ED8F0       aPoletreeb
 0009:806ED8FC       aTwistertowerga
 0009:806ED910       aBind_3
 0009:806ED918       aRide_1
 0009:806ED920       aPush_1
 0009:806ED928       aPole9m
 0009:806ED930       aPolenomodel
 0009:806ED93C       aPoleArc
 0009:806ED948       aPole
 0009:806ED950       aPolesquareArc
 0009:806ED960       aPoletop
 0009:806ED968       aPolebottom
 0009:806ED974       aPoletopstopmat
 0009:806ED988       aWorldRoot
 0009:806ED994       aPoletree
 0009:806ED9A0       aOjlvpoleappear
 0009:806ED9B0       aSquarepolestar
 0009:806ED9C0       aTreeclimbstart
 0009:806ED9D0       aSquarepolewait
 0009:806ED9E0       aTreewait
 0009:806ED9F0       aSquarepoleturn
 0009:806EDA00       aSquarepoleturn_0
 0009:806EDA10       aSquarepole180t
 0009:806EDA24       aSquarepole180t_0
 0009:806EDA38       aClimbturn
 0009:806EDA44       aShake_1
 0009:806EDA4C       aSquarepoleturn_1
 0009:806EDA60       aSquarepoleclim
 0009:806EDA70       aTreeclimb
 0009:806EDA7C       aSquarepolepush
 0009:806EDA90       aSquarepolefall
 0009:806EDAA0       aTreefall
 0009:806EDAB0       aSePmLvSlipCode
 0009:806EDAC8       aSePmLvPoleSlid
 0009:806EDADC       aTreehandstands
 0009:806EDAF0       aSePmPoleStand
 0009:806EDB04       aSePvLiftUp_0
 0009:806EDB14       aTreehandstandw
 0009:806EDB28       aTreehandstande
 0009:806EDB3C       aTreehandstandt
 0009:806EDB50       aHitreaction_0
 0009:806EDB5C       aSePmGrabObj
 0009:806EDB6C       aLand_5
 0009:806EDB74       aSePmJumpM
 0009:806EDB88       aJumpobj_0
 0009:806EDB90       aTreehandstandj
 0009:806EDBA4       aWalljump
 0009:806EDBB0       aJump_1
 0009:806EDD18       aRockluigirolli
 0009:806EDD30       aRockmariorolli
 0009:806EDD48       aBind_4
 0009:806EDD50       aBody_51
 0009:806EDE78       aCamTypeWonderP
 0009:806EDE90       aCamTypeTripodP
 0009:806EDEA8       aCamTypeCubePla
 0009:806EDEC0       aCamTypeMedianP
 0009:806EDED8       aCamTypeFooFigh
 0009:806EE260       aBind_5
 0009:806EE268       aBody_65
 0009:806EE270       aSwingrope
 0009:806EE280       aSwingropeslide
 0009:806EE298       aSwingropeslide_0
 0009:806EE2B0       aSwingropecommo
 0009:806EE2C0       aSePvCatch
 0009:806EE2CC       aSePmGrabObj_0
 0009:806EE2DC       aSePvJumpS
 0009:806EE2EC       aSePmJumpM_0
 0009:806EE2FC       aSwingropespin
 0009:806EE30C       aSwingropeaccel
 0009:806EE31C       aSwingropeswing
 0009:806EE330       aSwingropewait
 0009:806EE340       aOjlvropeswingw
 0009:806EE354       aOjropecreakh
 0009:806EE364       aFootl_0
 0009:806EE378       aSwingropeArc
 0009:806EE388       aSwingropeBti
 0009:806EE3A8       __vt__14SwingRopeGroup
 0009:806EE4D8       aTamakoro_0
 0009:806EE4E4       aSignboardtamak
 0009:806EE548       aRing
 0009:806EE550       aBody_52
 0009:806EE558       aSePvUpset
 0009:806EEDB0       aTrapezeArc
 0009:806EEDC0       aTrapezeropeBti
 0009:806EF940       aN_15
 0009:806EF95C       aDummygalaxy
 0009:806EF968       aStarcreekgalax_0
 0009:806EF978       aMokumokuvalley_0
 0009:806EF990       aVskoopagravity_0
 0009:806EFCC8       aIN_2
 0009:806EFCEC       aI_19
 0009:806EFCF8       aWipemodelcloud
 0009:806EFE90       aAreaobjinfo
 0009:806EFE9C       aPlanetobjinfo
 0009:806EFEAC       aDemoobjinfo
 0009:806EFEB8       aCameracubeinfo
 0009:806EFEF8       aN_21
 0009:806EFF08       aON_0
 0009:806EFF1C       aEE_1
 0009:806F0008       aScenedatainiti
 0009:806F0020       aLayoutdataPaus_0
 0009:806F0068       aGame
 0009:806F0070       aIntermission
 0009:806F0080       aLogo
 0009:806F0158       aN_13
 0009:806F0174       aEE_0
 0009:806F0188       aN_14
 0009:806F01A0       aEAoEN
 0009:806F01C0       aOE
 0009:806F01D8       aMovement
 0009:806F01F0       aIndirect_1
 0009:806F01FC       aANUn
 0009:806F0224       aIgnorepausenam
 0009:806F0238       aI_7
 0009:806F06DC       jpt_80459A64
 0009:806F0940       aObjectdataMari
 0009:806F0958       aObjectdataLuig
 0009:806F0970       aObjectdataMari_0
 0009:806F098C       aObjectdataLuig_0
 0009:806F09A8       aObjectdataBeem
 0009:806F09C4       aObjectdataBeel
 0009:806F09E0       aObjectdataHopp
 0009:806F09FC       aObjectdataHopp_0
 0009:806F0A18       aObjectdataIcem
 0009:806F0A34       aObjectdataIcel
 0009:806F0A50       aObjectdataInvi
 0009:806F0A70       aObjectdataInvi_0
 0009:806F0A90       aObjectdataTere
 0009:806F0AAC       aObjectdataTere_0
 0009:806F0AC8       aObjectdataMari_1
 0009:806F0AE8       aObjectdataLuig_1
 0009:806F0B08       aObjectdataBone
 0009:806F0B24       aObjectdataBone_0
 0009:806F0B40       aObjectdataMari_2
 0009:806F0B5C       aObjectdataLuig_2
 0009:806F0B78       aObjectdataClou
 0009:806F0B94       aObjectdataClou_0
 0009:806F0BB0       aObjectdataClou_1
 0009:806F0BD0       aObjectdataClou_2
 0009:806F0BF0       aObjectdataRock
 0009:806F0C0C       aObjectdataRock_0
 0009:806F0C28       aObjectdataRock_1
 0009:806F0C50       aObjectdataRock_2
 0009:806F0C78       aObjectdataMari_3
 0009:806F0C94       aObjectdataLuig_3
 0009:806F0CB0       aObjectdataMari_4
 0009:806F0CD0       aObjectdataLuig_4
 0009:806F0CF0       aObjectdataMari_5
 0009:806F0D20       aObjectdataLuig_5
 0009:806F0D50       aObjectdataMari_6
 0009:806F0D6C       aObjectdataLuig_6
 0009:806F0E18       aObjectdataCoco
 0009:806F0E30       aObjectdataWate
 0009:806F0E58       aObjectdataWorl
 0009:806F0E78       aObjectdataWorl_0
 0009:806F0E98       aObjectdataWorl_1
 0009:806F0EB8       aObjectdataWorl_2
 0009:806F0ED8       aObjectdataWorl_3
 0009:806F0EF8       aObjectdataWorl_4
 0009:806F0F18       aObjectdataWorl_5
 0009:806F0F68       aResourcename
 0009:806F0F78       aCommonBcsv
 0009:806F0F84       aSoundCommonBcs
 0009:806F0F98       aScenarioDBcsv
 0009:806F0FAC       aSoundScenarioD
 0009:806F0FC8       aObjinfo
 0009:806F0FD0       aAreaobjinfo_0
 0009:806F0FE8       aSoundemitterpo
 0009:806F0FFC       aSoundplayarea_1
 0009:806F1010       aAudioeffectare_0
 0009:806F1020       aSoundemittersp_1
 0009:806F1034       aSoundemittercu_1
 0009:806F1048       aBgmchangearea_0
 0009:806F1058       aBgmprohibitare
 0009:806F1068       aBgmvolumefadea_0
 0009:806F107C       aGravitybgmctrl
 0009:806F108C       aWorldmapsyncso_0
 0009:806F10D8       aLightctrlarea
 0009:806F10E8       aCommon
 0009:806F10F0       aLayera
 0009:806F10F8       aLayerb
 0009:806F1100       aLayerc
 0009:806F1108       aLayerd
 0009:806F1110       aLayere
 0009:806F1118       aLayerf
 0009:806F1120       aLayerg
 0009:806F1128       aLayerh
 0009:806F1130       aLayeri
 0009:806F1138       aLayerj
 0009:806F1140       aLayerk
 0009:806F1148       aLayerl
 0009:806F1150       aLayerm
 0009:806F1158       aLayern
 0009:806F1160       aLayero
 0009:806F1168       aLayerp
 0009:806F1170       cLayerDirName__29@unnamed@StageDataHolder_cpp@
 0009:806F11B4       aStagedataSSSAr
 0009:806F11CC       aSound_0
 0009:806F11D4       aDesign
 0009:806F11DC       aZoneinfo
 0009:806F11E8       aUseresource
 0009:806F11F4       aGhost_0
 0009:806F11FC       aSS_1
 0009:806F1208       aStagedataholde
 0009:806F1218       aJmpPlacement
 0009:806F1228       aJmpMapparts
 0009:806F1238       aJmpStart
 0009:806F1248       aJmpGeneralpos
 0009:806F1258       aJmpPath
 0009:806F1264       aCommonpathinfo
 0009:806F1274       aLId_0
 0009:806F127C       aCommonpathpoin
 0009:806F1294       aCameraId
 0009:806F12A0       aEnName
 0009:806F12A8       aJpName
 0009:806F12B0       aOa
 0009:806F12C0       aMariono
 0009:806F12C8       aSystemdataObjn_0
 0009:806F12E8       aObjnametableTb
 0009:806F12FC       aStageobjinfo
 0009:806F130C       aPosX_0
 0009:806F1314       aPosY_0
 0009:806F131C       aPosZ_0
 0009:806F1324       aDirX_0
 0009:806F132C       aDirY_0
 0009:806F1334       aDirZ_0
 0009:806F1368       aSound_2
 0009:806F1370       aDesign_1
 0009:806F1378       aZoneinfo_2
 0009:806F1384       aUseresource_1
 0009:806F1390       aGhost_1
 0009:806F1398       aN_26
 0009:806F13AC       aStopscenecontr
 0009:806F13C0       aN_18
 0009:806F1470       aGalaxy1
 0009:806F1478       aGalaxy2
 0009:806F1480       aGalaxy3
 0009:806F1488       aGalaxy4
 0009:806F1490       aGalaxy5
 0009:806F1498       aGalaxy6
 0009:806F14A0       aGalaxy7
 0009:806F14C4       aAllstarlist
 0009:806F14D0       aRight
 0009:806F14D8       aBoxarrowr
 0009:806F14E4       aLeft_0
 0009:806F14EC       aBoxarrowl_0
 0009:806F1B80       __vt__20ButtonPaneController
 0009:806F1D18       aGamescreen
 0009:806F1D24       aIndirect_0
 0009:806F1D30       aCamera_0
 0009:806F1D38       aWipemap
 0009:806F1D40       aSystemwipe
 0009:806F1D4C       aUnused
 0009:806F1D64       aIndirect_2
 0009:806F22E8       sGroupFunctionTable__Q218CustomTagProcessor4Impl
 0009:806F2388       aCustomtagproce
 0009:806F23A0       aNw4rPointerErr
 0009:806F23D4       aNw4rPointerErr_0
 0009:806F2408       aNw4rPointerErr_1
 0009:806F2440       aLengthIsOutOfB
 0009:806F2478       aNw4rPointerErr_2
 0009:806F2B98       aNw4rPointerErr_4
 0009:806F2BCC       aCharwriterH
 0009:806F2BDC       aNw4rPointerErr_5
 0009:806F2C10       aCharwriterH_0
 0009:806F2C20       aNw4rPointerErr_6
 0009:806F2C54       aCharwriterH_1
 0009:806F2C64       aNw4rPointerErr_7
 0009:806F2C98       aFontH
 0009:806F2CA0       aNw4rFailedAsse_2
 0009:806F2CD8       aCharstrmreader
 0009:806F2CEC       aNw4rPointerErr_8
 0009:806F2D24       aCharstrmreader_0
 0009:806F2D38       aNw4rAlignmentE
 0009:806F2D80       aCharstrmreader_1
 0009:806F2D94       aNw4rPointerErr_10
 0009:806F2DC8       aCharstrmreader_2
 0009:806F2DDC       aNw4rPointerErr_11
 0009:806F2E10       aCharstrmreader_3
 0009:806F2E24       aNw4rPointerErr_12
 0009:806F2E58       aCharstrmreader_4
 0009:806F30F4       aErrortexthalf
 0009:806F3104       aErrormessage
 0009:806F3114       aPicdummy
 0009:806F3120       aAppear_19
 0009:806F3128       aWait_36
 0009:806F3338       aFileinfoMessag
 0009:806F334C       aFileinfoMessag_0
 0009:806F3360       aFileinfoMessag_1
 0009:806F3374       aFileinfoMessag_2
 0009:806F3388       aFileinfoMessag_3
 0009:806F339C       aFileinfoMessag_4
 0009:806F33B0       aFileinfoMessag_5
 0009:806F33E0       aFileinfo
 0009:806F33EC       aAppear_8
 0009:806F33F4       aWait_31
 0009:806F33FC       aFilenumber
 0009:806F3408       aFilename
 0009:806F3414       aStar
 0009:806F341C       aTxtday
 0009:806F3428       aTxttime
 0009:806F3430       aMisscounter
 0009:806F343C       aComplete
 0009:806F3448       aFileinfoComple
 0009:806F3460       aFileinfoComple_0
 0009:806F3478       aFileinfoComple_1
 0009:806F3490       aMessage_2
 0009:806F3498       aFileinfoMessag_6
 0009:806F34AC       aFileinfoMessag_7
 0009:806F3A48       aGalaxynameplat
 0009:806F3A58       aOneline_0
 0009:806F3A60       aGalaxynameshor_0
 0009:806F3A78       aGalaxynameshor_1
 0009:806F3A8C       aGalaxynameplat_0
 0009:806F3AA0       aGalaxynameplat_1
 0009:806F3AB8       aShabeak_0
 0009:806F3AC0       aShabeaku
 0009:806F3AD0       aPicbeak_0
 0009:806F3AD8       aPicbeaku
 0009:806F3AE4       aGalaxyname_0
 0009:806F3AF0       aGalaxynameu
 0009:806F3AFC       aTxtgalaxyname
 0009:806F3B0C       aTxtgalaxynameu
 0009:806F3B20       aUnknown
 0009:806F3B28       aAppear_23
 0009:806F3B30       aWait_41
 0009:806F3B38       aSeSyAstroGalax
 0009:806F3D18       aInUn
 0009:806F3E90       aSlope
 0009:806F3E98       aSlopehold
 0009:806F3EA8       aSlopeok
 0009:806F3EB0       aTurnleft
 0009:806F3EBC       aTurnlefthold
 0009:806F3ECC       aTurnleftok
 0009:806F3ED8       aTurndown
 0009:806F3EE4       aTurndownhold
 0009:806F3EF4       aTurndownok
 0009:806F3F24       aTiltguidance
 0009:806F3F34       aAppear_9
 0009:806F40A8       aPosition1
 0009:806F40B4       aPosition2
 0009:806F40C0       aPosition3
 0009:806F40CC       aPosition4
 0009:806F40D8       aPosition5
 0009:806F40E4       aPosition6
 0009:806F40F0       aPosition7
 0009:806F4318       aLayoutdataHome_0
 0009:806F4334       aHomebutton2Spe_0
 0009:806F4350       aHomebutton2Hom_0
 0009:806F4368       aHomebutton2Con_0
 0009:806F4380       aHomeN
 0009:806F4390       __vt__16HomeButtonLayout
 0009:806F43F8       aANaiN
 0009:806F4408       aIconabutton
 0009:806F4414       aAppear_17
 0009:806F441C       aPicplate
 0009:806F4428       aLayoutSystemta
 0009:806F443C       aLayoutSystemre
 0009:806F4450       aPress_0
 0009:806F4570       aBloomeffectPre
 0009:806F4588       aBloomeffectPos
 0009:806F45C0       aAndoyoshistage
 0009:806F45D0       aPostfogArc
 0009:806F45DC       aGradtypeDBti
 0009:806F4828       aInformationobs
 0009:806F4840       aBgmFirstMorphA
 0009:806F4854       aInformationobs_0
 0009:806F4870       aInformationobs_1
 0009:806F4890       aInformationobs_2
 0009:806F48A8       aBgmFireB
 0009:806F48B4       aInformationobs_3
 0009:806F48CC       aBgmIceB
 0009:806F48D8       aInformationobs_4
 0009:806F48F4       aBgmFlyingB
 0009:806F4904       aInformationobs_5
 0009:806F4924       aBgmMutekiB
 0009:806F4938       aInformationobs_6
 0009:806F4950       aInformationobs_7
 0009:806F496C       aInformationobs_8
 0009:806F4988       aInformationobs_9
 0009:806F49A8       aInformationobs_10
 0009:806F49C4       aInformationobs_11
 0009:806F49E0       aInformationobs_12
 0009:806F4A00       aInformationobs_13
 0009:806F4B60       jpt_80479B20
 0009:806F4C70       aAutoscale
 0009:806F4C7C       aSBrlyt
 0009:806F4C9C       aNw4rPointerErr_9
 0009:806F4CD0       aTextwriterbase
 0009:806F4CE4       aNw4rPointerErr_13
 0009:806F4D18       aCharwriterH_2
 0009:806F4D28       aNw4rFailedAsse_3
 0009:806F4D68       aTypesH
 0009:806F4D70       aNw4rPointerMus_4
 0009:806F4D94       aLinklistH_4
 0009:806F4DA0       a16x9
 0009:806F4DA8       aSArc_0
 0009:806F4DB0       aSBrlan
 0009:806F4DBC       aInddummyTpl
 0009:806F52F8       aP2manual
 0009:806F5304       aLeftbutton
 0009:806F5310       aBoxlbutton
 0009:806F531C       aRightbutton
 0009:806F5328       aBoxrbutton
 0009:806F5334       aAN
 0009:806F534C       a2pguidance
 0009:806F5358       aS03d_0
 0009:806F5360       aButtonwait_0
 0009:806F5370       aPicture
 0009:806F5378       aAppear_21
 0009:806F5380       aWait_38
 0009:806F5388       aSeSyFileSelTip
 0009:806F53A8       aPageout
 0009:806F53B0       aPagein
 0009:806F53B8       aPreviouspageov
 0009:806F53CC       aNextpageover
 0009:806F53DC       aSeSyButtonCurs
 0009:806F53F4       a2pguidance03d
 0009:806F5404       aText
 0009:806F540C       a2pguidancetitl
 0009:806F5420       aTitle_0
 0009:806F5428       aPagenumber
 0009:806F5620       aHitpointmeter
 0009:806F5630       aHitpointnumber
 0009:806F5640       aFont
 0009:806F5648       aHpmeter
 0009:806F5650       aHitpointw
 0009:806F565C       aFontposition2t
 0009:806F5670       aShowhide_0
 0009:806F5680       aPicbase
 0009:806F5688       aDanger1
 0009:806F5690       aFlash_0
 0009:806F5698       aFontposition1t
 0009:806F56B0       aDamage1_0
 0009:806F56B8       aDamage2_0
 0009:806F56C0       aBreak_7
 0009:806F56C8       aSeSyLifePlateD
 0009:806F56E0       aBreak123
 0009:806F56EC       aMovemeter
 0009:806F56F8       aMovemeterw
 0009:806F5708       aDanger2
 0009:806F5710       aCount
 0009:806F5718       aRecoverycount
 0009:806F5820       aMiiconfirmicon
 0009:806F5830       aShamiidummy
 0009:806F583C       aPicmiidummy
 0009:806F5848       aMiiname
 0009:806F5850       aButtonappear_0
 0009:806F5860       aButtonwait_1
 0009:806F586C       aButtonend_0
 0009:806F58F0       aTxtname
 0009:806F58F8       aAppear_24
 0009:806F5900       aSeSyFileSelMii_0
 0009:806F5970       aLeft
 0009:806F5978       aRight_0
 0009:806F5988       aBoxarrowl
 0009:806F5994       aBoxarrowr_0
 0009:806F59A8       aSeSyFileSelMii
 0009:806F59C8       aTxtpage
 0009:806F5DA8       aPausemenu
 0009:806F5DB4       aStageinfo
 0009:806F5DC0       aButtonposition
 0009:806F5DD0       aUpbutton
 0009:806F5DDC       aDownbutton
 0009:806F5DE8       aListbutton
 0009:806F5DF8       aNbackup
 0009:806F5E00       aBoxbutton1
 0009:806F5E0C       aNbackdown
 0009:806F5E18       aBoxbutton2
 0009:806F5E28       aPausemenuButto
 0009:806F5E40       aPausemenuButto_0
 0009:806F5E60       aStarlistbutton
 0009:806F5E70       aBoxbutton3
 0009:806F5E7C       aStagetitle_0
 0009:806F5E88       aScenariotitle
 0009:806F5E98       aWorld
 0009:806F6508       aMario_3
 0009:806F6510       aPeach_0
 0009:806F6518       aMailvoicepeach
 0009:806F6528       aLuigi_2
 0009:806F6530       aMailvoiceluigi
 0009:806F6540       aWitch
 0009:806F6548       aMailvoicehelpe
 0009:806F6560       aMailvoicehoney
 0009:806F6574       aRabbit_0
 0009:806F6580       aMailvoicerabbi
 0009:806F6590       aRequest
 0009:806F6598       aCaretaker_1
 0009:806F65A4       aCaretaker1
 0009:806F65B0       aMailvoicecaret
 0009:806F65C4       aCaretaker2
 0009:806F65D0       aChallenge
 0009:806F65DC       aPichan_1
 0009:806F65E8       aPichan1
 0009:806F65F0       aMailvoicepicha
 0009:806F6600       aPichan2
 0009:806F6608       aInvitation
 0009:806F6614       aScoreattack
 0009:806F6620       aScoreattack1
 0009:806F6630       aMailvoicesasur
 0009:806F6644       aScoreattack2
 0009:806F6654       aScoreattack3
 0009:806F6664       aTico_1
 0009:806F666C       aRosetta1
 0009:806F6678       aRosetta2
 0009:806F6684       aRosetta3
 0009:806F6690       aRosetta4
 0009:806F669C       aRosetta5
 0009:806F6BF8       aSaveicon
 0009:806F6C04       aIconsave
 0009:806F6C10       aRotate_2
 0009:806F6C18       aSaveiconpositi
 0009:806F6C68       aStar1
 0009:806F6C70       aStar2
 0009:806F6C78       aStar3
 0009:806F6C80       aStar4
 0009:806F6C88       aStar5
 0009:806F6C90       aStar6
 0009:806F6C98       aNewstar
 0009:806F6CA0       aNewcomet
 0009:806F6CAC       aNewgreencomet1
 0009:806F6CBC       aNewgreencomet2
 0009:806F6CCC       aNewgreencomet3
 0009:806F6CDC       aMokumokuvalley
 0009:806F6CF4       aHoneybeevillag
 0009:806F6D0C       aUndergrounddan_0
 0009:806F6D28       aTwistertowerga_0
 0009:806F6D3C       aKachikochilava
 0009:806F6D58       aWhitesnowgalax
 0009:806F6D68       aOIau
 0009:806F6D80       aScenarioselect_1
 0009:806F6D90       aScenarioframe
 0009:806F6DA0       aScenario_1
 0009:806F6DB0       aStartop
 0009:806F6DB8       aStardown
 0009:806F6DC4       aBesttime
 0009:806F6DD0       aRacetime
 0009:806F6DDC       aMario_4
 0009:806F6DE4       aCometappear
 0009:806F6DF0       aScenarioselect
 0009:806F6E08       aO_18
 0009:806F6E1C       aScenarioselect_0
 0009:806F6F30       aBgmSmg2Courses
 0009:806F70E8       aO_3
 0009:806F70F8       aStagetitle
 0009:806F7104       aGalaxy_4
 0009:806F710C       aScenario_0
 0009:806F7118       aAppear_18
 0009:806F7448       aGamescreen_0
 0009:806F7578       aStafflist000
 0009:806F7588       aTitlelogo
 0009:806F7594       aTheend
 0009:806F759C       aAllrights
 0009:806F75C4       aStaffrolltitle
 0009:806F75D4       aStaffroll
 0009:806F7610       aMbgmSmg2Staffr
 0009:806F7624       aThankyouluigi
 0009:806F7634       aThankyoumario
 0009:806F7B54       aSeSy1up_0
 0009:806F7B60       aBcleartime
 0009:806F7B6C       aBgmSmg2JgTime
 0009:806F7B80       aWiimessageAllc
 0009:806F7B98       aAllcompleteima
 0009:806F8138       aStarpiececount
 0009:806F814C       aTspiececounter
 0009:806F815C       aTcounter
 0009:806F8168       aCounter
 0009:806F8170       aTposition1000
 0009:806F8180       aTposition0100
 0009:806F8190       aTposition0010
 0009:806F81A0       aTposition0001
 0009:806F81B0       aPosition1000
 0009:806F81C0       aPosition0100
 0009:806F81D0       aPosition0010
 0009:806F81E0       aPosition0001
 0009:806F81F0       aFlash_1
 0009:806F81F8       aTstarpiececoun
 0009:806F8210       aStarpiececount_0
 0009:806F8228       aWait_42
 0009:806F8230       aPictstarpiece
 0009:806F8240       aPicnstarpiece
 0009:806F8250       aPictstarpiecer
 0009:806F8260       aPicnstarpiecer
 0009:806F82E8       aIn_2
 0009:806F8330       aInIN
 0009:806F834C       aInIau
 0009:806F86BC       jpt_8049CF30
 0009:806F86E0       aHold
 0009:806F86E8       jpt_8049D1AC
 0009:806F870C       aSeSyDpdBReleas
 0009:806F8720       aRelease
 0009:806F8728       jpt_8049D7B0
 0009:806F874C       aHandarrow
 0009:806F8758       aBlink_0
 0009:806F8760       jpt_8049E644
 0009:806F8784       aPicplayer1
 0009:806F8790       aPicplayer2
 0009:806F879C       aHandtype
 0009:806F87A8       aDpdpointernumb
 0009:806F87C0       aCsContConnect
 0009:806F87D0       aSeSyCsContConn
 0009:806F87E8       aPosition
 0009:806F8A50       aStorybook_0
 0009:806F8F38       aInONuinU
 0009:806F8F60       aInfowindow
 0009:806F8F6C       aWininfowindow
 0009:806F8F7C       aInfowindowm
 0009:806F8F88       aWininfowindowm
 0009:806F8F98       aLeft_1
 0009:806F8FA0       aRight_1
 0009:806F8FA8       aSystemSave00No
 0009:806F8FBC       aSystemSave00Ye
 0009:806F8FD0       aButtonappear
 0009:806F8FE0       aSYes
 0009:806F8FE8       aSNo
 0009:806F8FF0       aSysinfowindow
 0009:806F9000       aSysinfowindowm
 0009:806F9014       aButtonwait
 0009:806F9020       aSeSyTalkOk
 0009:806F9030       aCsClickClose
 0009:806F9040       aButtonend
 0009:806F90B8       aI_0
 0009:806F90FC       aSystemwipe_0
 0009:806F9168       aI_8
 0009:806F9178       aTimelimit
 0009:806F9188       aTimelimitlayou
 0009:806F9198       aWait_39
 0009:806F91A0       aNumber
 0009:806F91A8       aTimerscaleup
 0009:806F91B8       aAppear_22
 0009:806F91C0       aTimesignal
 0009:806F91CC       aTimercount4
 0009:806F91D8       aTimercount2_0
 0009:806F91E4       aTimercount1_0
 0009:806F9298       aTimestopscreen
 0009:806F92B0       aStart_0
 0009:806F92B8       aTimestopeffect
 0009:806F92CC       aTimestopeffect_0
 0009:806F9688       aWatercamerafil
 0009:806F969C       aWatercamerafil_0
 0009:806F9920       aWipekoopa
 0009:806F992C       aColor_1
 0009:806F9A78       aColor_0
 0009:806F9A80       aWipering
 0009:806F9A8C       aRing_0
 0009:806F9E28       aBoxout
 0009:806F9E30       aZoomoutbutton
 0009:806F9F70       aSeSyTalkFocusI
 0009:806F9F88       aSeSyTalkSelect
 0009:806F9FA0       aSeSyTalkSelect_0
 0009:806FA020       __vt__15YesNoController
 0009:806FA0A4       aLeft_2
 0009:806FA0AC       aRight_2
 0009:806FA190       aInstageflagnam
 0009:806FA1A8       aFlagname
 0009:806FA258       __vt__27FunctionAsyncExecutorThread
 0009:806FA268       aN
 0009:806FA27C       aSystemstart
 0009:806FA288       aTitle
 0009:806FA290       aIngame
 0009:806FA298       aEnding
 0009:806FA300       aInformationspe
 0009:806FA318       aInformationgre
 0009:806FACE0       aGamesystem
 0009:806FACF8       aOIo
 0009:806FAD0C       aLogo_0
 0009:806FAD28       __vt__10GameSystem
 0009:806FAD88       aObjectdataSyst
 0009:806FADA8       aHeapsizeexcept
 0009:806FADC0       aGalaxydatatabl
 0009:806FADD8       aMariofaceshipe
 0009:806FADFC       aMariofaceshipe_0
 0009:806FAE20       aGalaxyworldord
 0009:806FAE3C       aWorldmapheapga
 0009:806FAE58       aWorldmapheapre
 0009:806FAE78       aDisc01
 0009:806FAE80       aDisc02
 0009:806FAE88       aDisc03
 0009:806FAE90       aCont01
 0009:806FAE98       aCont10
 0009:806FAEA0       aCont102
 0009:806FAEAC       aErrorwatcher
 0009:806FAEBC       aErrormessageim
 0009:806FAED4       aFreestyleunpla
 0009:806FAF38       aErrormessagear_0
 0009:806FAF50       aLocalizedataSL
 0009:806FAF7C       aMessagefont26B_0
 0009:806FAF90       aLayoutdataFont
 0009:806FAFA8       aMessagefont26B_1
 0009:806FAFC0       aPicturefontBrf_0
 0009:806FAFD4       aMenufont64Brfn_0
 0009:806FAFE8       aNumberfontBrfn_0
 0009:806FAFFC       aMenufont96Brfn_0
 0009:806FB010       aStafffont18Brf_0
 0009:806FB028       aLogo_1
 0009:806FB030       aErrormessagear
 0009:806FB048       aParticledataEf_1
 0009:806FB064       aLocalizedataSM
 0009:806FB098       aEmbeddedmessag_1
 0009:806FB0AC       aLayoutdataErro
 0009:806FB0D0       aErrormessagewi
 0009:806FB190       aIntermission_0
 0009:806FB1F8       aDestroySceneS
 0009:806FB238       aInitializeScen
 0009:806FB424       aMarioanimeArc
 0009:806FB434       aMarioArc
 0009:806FB440       aMario_0
 0009:806FB448       aLuigiArc
 0009:806FB454       aLuigi_0
 0009:806FB560       aHeapmemorywatc
 0009:806FB578       aHbmcreaterso
 0009:806FB588       aHbminitrso
 0009:806FB594       aHbmcalcrso
 0009:806FB5A0       aHbmdrawrso
 0009:806FB5AC       aHbmgetselectbt
 0009:806FB5C4       aHbmsetadjustfl
 0009:806FB5D8       aHbmstartblacko
 0009:806FB628       aModuledataProd
 0009:806FB640       aModuledataHome
 0009:806FB670       aJpjapanese
 0009:806FB67C       aUsenglish
 0009:806FB688       aUsspanish
 0009:806FB694       aUsfrench
 0009:806FB6A0       aEuenglish
 0009:806FB6AC       aEuspanish
 0009:806FB6B8       aEufrench
 0009:806FB6C4       aEugerman
 0009:806FB6D0       aEuitalian
 0009:806FB6E0       aEudutch
 0009:806FB6E8       aCnsimpchinese
 0009:806FB6F8       aCntradchinese
 0009:806FB708       aKrkorean
 0009:806FB718       aEnglish
 0009:806FB720       aBrlyt
 0009:806FB728       aBrlan
 0009:806FB730       aBrfnt
 0009:806FB738       aMessagefont26B
 0009:806FB74C       aMenufont64Brfn
 0009:806FB760       aNumberfontBrfn
 0009:806FB774       aPicturefontBrf
 0009:806FB788       aMenufont96Brfn
 0009:806FB79C       aStafffont18Brf
 0009:806FB7B0       aSSS_0
 0009:806FB7B8       aSS_2
 0009:806FB7C0       aBrlyt_0
 0009:806FB7C8       aBrlan_0
 0009:806FB7D0       __vtbl__12LayoutHolder
 0009:806FB994       aO_8
 0009:806FB9B0       aMeisterDeventt_0
 0009:806FB9C4       aMeisterDeventt_1
 0009:806FBA08       aEventno
 0009:806FBA10       aCastnum
 0009:806FBA18       aCastnameD
 0009:806FBA24       aCastidD
 0009:806FBA30       aEventtype
 0009:806FBA3C       aFlagtype
 0009:806FBA48       aStagename_3
 0009:806FBA54       aOrstagename
 0009:806FBA60       aReturntype
 0009:806FBA6C       aScenariono_1
 0009:806FBA78       aOrscenariono
 0009:806FBA88       aPowerstarnum
 0009:806FBA98       aWatchedeventno
 0009:806FBAA8       aSwitchno
 0009:806FBAB8       aUsetimekeepdem
 0009:806FBAF0       aMeisterDeventn
 0009:806FBB0C       aMeisterDeventt
 0009:806FBB24       aAi_0
 0009:806FBB34       aO_10
 0009:806FBB50       aOONIN
 0009:806FBB70       aON
 0009:806FBB84       aOaOrOb
 0009:806FBB9C       aIe120
 0009:806FBBE4       aIslandfleetgal_0
 0009:806FBBF8       aIslandfleetgal_1
 0009:806FBC0C       aO_9
 0009:806FBC18       aI_2
 0009:806FBC28       aMessagedataSys
 0009:806FBC48       aMessagedataLay
 0009:806FBC68       aMessagedataSce
 0009:806FBC8C       aMsbt
 0009:806FBC98       aSMsbf
 0009:806FBCA0       aEmbeddedmessag
 0009:806FBCB4       aEmbeddedmessag_0
 0009:806FBCCC       aMessagedataSAr
 0009:806FBCE0       aSMsbt
 0009:806FBCE8       aNanderror
 0009:806FBCF8       aNand03
 0009:806FBD00       aNand02
 0009:806FBD08       aNand12
 0009:806FBD10       aNand11
 0009:806FBD18       aNand08
 0009:806FBD20       aNand07
 0009:806FBD28       aSystemSave05
 0009:806FBD38       aSystemSave04
 0009:806FBD48       aSeSySaveConfir
 0009:806FBF28       aOverwriteCpp
 0009:806FBF38       aNw4rPointerErr_3
 0009:806FBF6C       aCharwriterSetu
 0009:806FC2D0       __vt__Q22MR131FunctorV2M<P21ResourceHolderManager,M21ResourceHolderManagerFPCvPvPCcP24CreateResourceHolderArgs_v,PCc,P24CreateResourceHolderArgs>
 0009:806FC2E0       aScenario
 0009:806FC2EC       aScenariodataBc
 0009:806FC300       aZonelistBcsv
 0009:806FC310       aGalaxyinfoBcsv
 0009:806FC324       aPowerstarid
 0009:806FC330       aHidden
 0009:806FC338       aPowerstartype
 0009:806FC348       aGreen_0
 0009:806FC350       aZonename
 0009:806FC360       aWorldno
 0009:806FC368       aScenariono_0
 0009:806FC374       aStagedata_0
 0009:806FC380       __vt__18ScenarioDataParser
 0009:806FC3B8       aAudioresInfoAc_0
 0009:806FC3D8       aActionsoundBcs_0
 0009:806FC3EC       aParticledataEf
 0009:806FC408       aAutoeffectlist_0
 0009:806FC41C       aParticledataEf_0
 0009:806FC438       aObjname_0
 0009:806FC440       aGroupname_1
 0009:806FC450       aInOnOff
 0009:806FC46C       jpt_804CD82C
 0009:806FC4E0       aStagedata
 0009:806FC4F0       aObjectdataMari_12
 0009:806FC50C       aObjectdataBone_2
 0009:806FC528       aObjectdataClou_5
 0009:806FC544       aObjectdataClou_6
 0009:806FC564       aObjectdataMari_13
 0009:806FC57C       aObjectdataMari_14
 0009:806FC598       aObjectdataMari_15
 0009:806FC5B4       aObjectdataMari_16
 0009:806FC5D0       aObjectdataMari_17
 0009:806FC604       aObjectdataBone_1
 0009:806FC620       aObjectdataClou_3
 0009:806FC63C       aObjectdataClou_4
 0009:806FC65C       aObjectdataLuig_7
 0009:806FC674       aObjectdataLuig_8
 0009:806FC690       aObjectdataLuig_9
 0009:806FC6AC       aObjectdataLuig_10
 0009:806FC6C8       aObjectdataLuig_11
 0009:806FC6FC       aObjectdataMari_11
 0009:806FC718       aObjectdataMari_10
 0009:806FC734       aObjectdataMari_9
 0009:806FC754       aObjectdataMari_8
 0009:806FC770       aObjectdataMari_7
 0009:806FC78C       aObjectdataSpin
 0009:806FC7A8       aObjectdataWate_0
 0009:806FC7C4       aObjectdataPowe
 0009:806FC7E0       aObjectdataKour
 0009:806FC7F8       aObjectdataShad
 0009:806FC81C       aObjectdataStar
 0009:806FC838       aObjectdataStar_0
 0009:806FC858       aObjectdataSear
 0009:806FC878       aLayoutdataScen
 0009:806FC898       aLayoutdataBack
 0009:806FC8B4       aObjectdataScen
 0009:806FC8D8       aObjectdataWipe
 0009:806FC8F8       aObjectdataWipe_0
 0009:806FC918       aObjectdataWipe_1
 0009:806FC938       aLightdataLight
 0009:806FC958       aObjectdataNpcd
 0009:806FC970       aLayoutdataAirm
 0009:806FC98C       aLayoutdataBatt
 0009:806FC9A8       aLayoutdataCame
 0009:806FC9C4       aLayoutdataCine
 0009:806FC9E0       aLayoutdataCoin
 0009:806FC9FC       aLayoutdataCome
 0009:806FCA20       aLayoutdataColl
 0009:806FCA40       aLayoutdataDpdp
 0009:806FCA5C       aLayoutdataDpdp_0
 0009:806FCA7C       aLayoutdataDpdp_1
 0009:806FCAA0       aLayoutdataFlym
 0009:806FCAC0       aLayoutdataGets
 0009:806FCAD8       aLayoutdataHitp
 0009:806FCAF8       aLayoutdataSudd
 0009:806FCB1C       aLayoutdataIcon
 0009:806FCB38       aLayoutdataIcon_0
 0009:806FCB54       aLayoutdataInfo
 0009:806FCB78       aLayoutdataOneu
 0009:806FCB90       aLayoutdataPlay
 0009:806FCBB0       aLayoutdataPoin
 0009:806FCBD0       aLayoutdataSele
 0009:806FCBF0       aLayoutdataSign
 0009:806FCC14       aLayoutdataStag
 0009:806FCC30       aLayoutdataStar
 0009:806FCC4C       aLayoutdataStar_0
 0009:806FCC70       aLayoutdataSupp
 0009:806FCC94       aLayoutdataSysi
 0009:806FCCB4       aLayoutdataSysi_0
 0009:806FCCD8       aLayoutdataTalk
 0009:806FCCFC       aLayoutdataTalk_0
 0009:806FCD20       aLayoutdataTalk_1
 0009:806FCD44       aLayoutdataToob
 0009:806FCD5C       aLayoutdataWipe
 0009:806FCD78       aLayoutdataWipe_0
 0009:806FCD94       aLayoutdataWipe_1
 0009:806FCDB0       aObjectdataYosh
 0009:806FCDC8       aObjectdataPeng
 0009:806FCDE0       aObjectdataTico
 0009:806FCDF8       aObjectdataSupp
 0009:806FCE18       aLayoutdataGala
 0009:806FCE38       aLayoutdataYosh
 0009:806FCE58       aHomebutton2Spe
 0009:806FCE74       aHomebutton2Hom
 0009:806FCE90       aHomebutton2Con
 0009:806FCEA8       aSystemdataObjn
 0009:806FCEC8       aObjectdataSave
 0009:806FCEE8       aObjectdataErro
 0009:806FCF0C       aObjectdataPlan
 0009:806FCF30       aObjectdataProd
 0009:806FCF58       aObjectdataSyst_0
 0009:806FCF78       aModuledataHome_0
 0009:806FCFA8       aModuledataProd_0
 0009:806FCFC0       aLayoutdataHome
 0009:806FCFDC       aLayoutdataFont_0
 0009:806FCFF4       aMessagedataSys_0
 0009:806FD014       aMessagedataSce_0
 0009:806FD038       aMessagedataLay_0
 0009:806FD058       aLayoutdataGame
 0009:806FD074       aObjectdataCoin
 0009:806FD08C       aObjectdataKino
 0009:806FD0A8       aObjectdataKino_0
 0009:806FD0C8       aObjectdataPowe_0
 0009:806FD0E4       aObjectdataKino_1
 0009:806FD0FC       aObjectdataShad_0
 0009:806FD124       aObjectdataShad_1
 0009:806FD148       aObjectdataYell
 0009:806FD164       aObjectdataRail
 0009:806FD180       aObjectdataGala
 0009:806FD1A4       aObjectdataMini
 0009:806FD1C8       aObjectdataMini_0
 0009:806FD1F4       aObjectdataMini_1
 0009:806FD214       aObjectdataMini_2
 0009:806FD238       aObjectdataMini_3
 0009:806FD260       aObjectdataMini_4
 0009:806FD28C       aObjectdataMini_5
 0009:806FD2B4       aObjectdataMini_6
 0009:806FD2DC       aObjectdataMini_7
 0009:806FD300       aObjectdataMini_8
 0009:806FD330       aObjectdataMini_9
 0009:806FD360       aObjectdataMini_10
 0009:806FD388       aObjectdataMini_11
 0009:806FD3AC       aObjectdataMini_12
 0009:806FD3D4       aObjectdataMini_13
 0009:806FD400       aObjectdataMini_14
 0009:806FD428       aObjectdataMini_15
 0009:806FD454       aObjectdataMini_16
 0009:806FD47C       aObjectdataMini_17
 0009:806FD4A8       aObjectdataMini_18
 0009:806FD4D0       aObjectdataMini_19
 0009:806FD4F8       aObjectdataMini_20
 0009:806FD528       aObjectdataMini_21
 0009:806FD548       aObjectdataMini_22
 0009:806FD570       aObjectdataMini_23
 0009:806FD598       aObjectdataMini_24
 0009:806FD5C0       aObjectdataMini_25
 0009:806FD5E8       aObjectdataMini_26
 0009:806FD60C       aObjectdataMini_27
 0009:806FD630       aObjectdataMini_28
 0009:806FD65C       aObjectdataMini_29
 0009:806FD680       aObjectdataMini_30
 0009:806FD6AC       aObjectdataMini_31
 0009:806FD6D8       aObjectdataMini_32
 0009:806FD704       aObjectdataMini_33
 0009:806FD730       aObjectdataMini_34
 0009:806FD758       aObjectdataMini_35
 0009:806FD78C       aObjectdataMini_36
 0009:806FD7B8       aObjectdataMini_37
 0009:806FD7E0       aObjectdataMini_38
 0009:806FD810       aObjectdataMini_39
 0009:806FD838       aObjectdataMini_40
 0009:806FD860       aObjectdataMini_41
 0009:806FD884       aObjectdataMini_42
 0009:806FD8A0       aObjectdataMini_43
 0009:806FD8BC       aObjectdataMini_44
 0009:806FD8D8       aObjectdataMini_45
 0009:806FD8F4       aObjectdataMini_46
 0009:806FD910       aObjectdataMini_47
 0009:806FD92C       aObjectdataMini_48
 0009:806FD948       aObjectdataMini_49
 0009:806FD970       aObjectdataMini_50
 0009:806FD98C       aObjectdataMini_51
 0009:806FD9B4       aObjectdataMini_52
 0009:806FD9E0       aObjectdataMini_53
 0009:806FDA04       aObjectdataTico_0
 0009:806FDA2C       aObjectdataWorl_7
 0009:806FDA48       aObjectdataWorl_8
 0009:806FDA64       aObjectdataWorl_9
 0009:806FDA80       aObjectdataWorl_10
 0009:806FDA9C       aObjectdataWorl_11
 0009:806FDAB8       aObjectdataWorl_12
 0009:806FDAD4       aObjectdataWorl_13
 0009:806FDAF0       aObjectdataWorl_14
 0009:806FDB0C       aLayoutdataCome_0
 0009:806FDB30       aLayoutdataPurp
 0009:806FDB54       aLayoutdataYell
 0009:806FDB78       aLayoutdataTime
 0009:806FDB94       aLayoutdataPaus
 0009:806FDBB0       aLayoutdataAlls
 0009:806FDBCC       aObjectdataYosh_0
 0009:806FDBE8       aObjectdataYosh_1
 0009:806FDC04       aObjectdataYosh_2
 0009:806FDC20       aObjectdataYosh_3
 0009:806FDC3C       aObjectdataYosh_4
 0009:806FDC58       aObjectdataYosh_5
 0009:806FDC7C       aObjectdataMocA
 0009:806FDC90       aObjectdataPlan_0
 0009:806FDCAC       aObjectdataGran
 0009:806FDCC8       aObjectdataSpin_0
 0009:806FDCE4       aObjectdataSpin_1
 0009:806FDD08       aObjectdataSign
 0009:806FDD24       aObjectdataYosh_6
 0009:806FDD44       aObjectdataYosh_7
 0009:806FDD60       aObjectdataYcap
 0009:806FDD80       aObjectdataPunc
 0009:806FDDA0       aObjectdataSpin_2
 0009:806FDDC0       aObjectdataPeng_0
 0009:806FDDE0       aObjectdataPowe_1
 0009:806FDE00       aObjectdataSpin_3
 0009:806FDE20       aObjectdataYosh_8
 0009:806FDE3C       aObjectdataYosh_9
 0009:806FDE58       aObjectdataYosh_10
 0009:806FDE78       aObjectdataItem
 0009:806FDE94       aObjectdataMini_54
 0009:806FDEB4       aObjectdataMini_55
 0009:806FDED8       aObjectdataMini_56
 0009:806FDEFC       aObjectdataMini_57
 0009:806FDF24       aObjectdataMini_58
 0009:806FDF48       aObjectdataMini_59
 0009:806FDF6C       aObjectdataMini_60
 0009:806FDF94       aObjectdataMini_61
 0009:806FDFB4       aObjectdataMini_62
 0009:806FDFD8       aObjectdataMini_63
 0009:806FDFF8       aObjectdataMini_64
 0009:806FE020       aObjectdataMini_65
 0009:806FE040       aObjectdataSeag
 0009:806FE058       aObjectdataPost
 0009:806FE070       aObjectdataKino_2
 0009:806FE098       aObjectdataKino_3
 0009:806FE0C0       aObjectdataKino_4
 0009:806FE0E4       aObjectdataKino_5
 0009:806FE108       aObjectdataKino_6
 0009:806FE12C       aObjectdataKino_7
 0009:806FE150       aObjectdataWiim
 0009:806FE170       aObjectdataDash
 0009:806FE190       aObjectdataClou_7
 0009:806FE1B0       aObjectdataPowe_2
 0009:806FE1CC       aObjectdataPlan_1
 0009:806FE1E8       aObjectdataPowe_3
 0009:806FE204       aObjectdataPowe_4
 0009:806FE224       aObjectdataPowe_5
 0009:806FE244       aObjectdataPowe_6
 0009:806FE260       aObjectdataItem_0
 0009:806FE280       aObjectdataStum
 0009:806FE29C       aObjectdataLuck
 0009:806FE2B8       aObjectdataPosi
 0009:806FE2D8       aObjectdataItem_1
 0009:806FE2FC       aObjectdataSpin_4
 0009:806FE324       aObjectdataMini_66
 0009:806FE344       aObjectdataWorl_15
 0009:806FE364       aObjectdataEart
 0009:806FE380       aObjectdataPole
 0009:806FE398       aObjectdataPeng_1
 0009:806FE3B4       aObjectdataClou_8
 0009:806FE3D0       aObjectdataHone
 0009:806FE3EC       aObjectdataMoon
 0009:806FE408       aObjectdataTico_1
 0009:806FE428       aObjectdataTico_2
 0009:806FE440       aObjectdataKino_8
 0009:806FE458       aObjectdataKino_9
 0009:806FE478       aObjectdataKino_10
 0009:806FE494       aObjectdataKino_11
 0009:806FE4B8       aObjectdataKino_12
 0009:806FE4E0       aObjectdataLuig_12
 0009:806FE4FC       aObjectdataLuig_13
 0009:806FE51C       aObjectdataLuig_14
 0009:806FE538       aObjectdataJump
 0009:806FE554       aObjectdataHone_0
 0009:806FE574       aObjectdataHone_1
 0009:806FE590       aObjectdataBomb
 0009:806FE5AC       aObjectdataPich
 0009:806FE5C4       aObjectdataTrea
 0009:806FE5E0       aObjectdataMini_67
 0009:806FE5FC       aObjectdataMini_68
 0009:806FE620       aLayoutdataResu
 0009:806FE63C       aLayoutdataResu_0
 0009:806FE65C       aLayoutdataGala_0
 0009:806FE678       aLayoutdataGala_1
 0009:806FE698       aLayoutdataMapg
 0009:806FE6B8       aLayoutdataMapg_0
 0009:806FE6D8       aLayoutdataMapg_1
 0009:806FE6F8       aLayoutdataMapg_2
 0009:806FE71C       aLayoutdataMapg_3
 0009:806FE77C       aOA
 0009:806FF2E8       aAppearpowersta
 0009:806FF2FC       aPurple
 0009:806FF304       a100In_0
 0009:806FF314       aComet
 0009:806FF320       aCometlimittime
 0009:806FF330       aPowerstarid_0
 0009:806FF340       aEnname
 0009:806FF348       aWorldno_0
 0009:806FF350       aDimensionbigca_1
 0009:806FF36C       a120EnIn_0
 0009:806FF3A0       aUn
 0009:806FF3C0       aInUn_0
 0009:806FF3EC       aIsopenscenario_6
 0009:806FF404       aII
 0009:806FF418       aI_14
 0009:806FF434       aI_15
 0009:806FF450       aIUn
 0009:806FF4A8       aNIn
 0009:806FF97C       aIsopenscenario
 0009:806FF99C       aIsopenscenario_0
 0009:806FF9C0       aIsopenscenario_1
 0009:806FF9E4       aIsopenscenario_2
 0009:806FFA0C       aIsopenscenario_3
 0009:806FFA38       aIsopenscenario_4
 0009:806FFA60       aIsopenscenario_5
 0009:806FFC50       aNwc24messenger
 0009:806FFC60       aHead_14
 0009:806FFC68       aSeSyChangeRoom
 0009:806FFC84       aVskoopalv3gala_1
 0009:806FFDB4       aHomecentergala
 0009:806FFDC8       aMarioonmarioga
 0009:806FFDDC       aCloudgardengal
 0009:806FFDF0       aMimic
 0009:806FFDF8       aHomecentergala_0
 0009:806FFE0C       aPurple_0
 0009:806FFE14       aDimensionbigca
 0009:806FFE30       aBannercreator
 0009:806FFE40       aTmpBannerBin
 0009:806FFE50       aTitleMain
 0009:806FFE5C       aTitleSub
 0009:806FFE68       aSaveiconbanner
 0009:806FFE7C       aSavebannerBti
 0009:806FFE8C       aSaveicon02dBti
 0009:807000A8       aUser
 0009:807000B0       aConfig
 0009:807000B8       aSysconf
 0009:807000C0       aSavedatahandle
 0009:807000D0       aS1d
 0009:80700158       a2bytesFlag
 0009:807008F0       a120EnIn
 0009:80700910       aMsgflwbn
 0009:8070091C       aFlw2
 0009:80700924       aFen1
 0009:8070092C       aRef1
 0009:80700938       aMsgstdbn
 0009:80700944       aLbl1
 0009:8070094C       aTxt2
 0009:80700954       aAtr1
 0009:80700960       aN_19
 0009:80700A38       aGalaxy
 0009:80700A40       aMiniflowerhigh
 0009:80700A5C       aGalaxy_1
 0009:80700A64       aStagename_1
 0009:80700A70       aMiniaturename
 0009:80700A80       aStagetype
 0009:80700A8C       aBossgalaxylv3
 0009:80700A9C       aIconoffsetx
 0009:80700AA8       aIconoffsety
 0009:80700D34       aGrandgalaxymap
 0009:80700D5C       aWorldmapnewsan
 0009:80701094       aMinigreencomet
 0009:807010A4       aMinigreencomet_0
 0009:8070145C       aEarthenpipeout
 0009:8070146C       aTurnendl
 0009:80701478       aTurnendr
 0009:80701484       aFlash
 0009:80701DE0       aWorldmap02dArc
 0009:80701EE4       aObjectdataWorl_6
 0009:80701F04       aMariofaceshipg_2
 0009:80701F18       aScenario2
 0009:80701F24       aResourcename_0
 0009:80701F38       aGalaxy_2
 0009:80701F40       aMinigalaxy
 0009:80701F4C       aHidegalaxy
 0009:80701F58       aBossgalaxylv1
 0009:80701F68       aBossgalaxylv2
 0009:80701F78       aBossgalaxylv3_0
 0009:80701F88       aObjectdataSArc
 0009:80701F9C       aMiniflowerhigh_0
 0009:80701FB8       aMinigalaxyshad
 0009:80701FCC       aMiniflag
 0009:80702170       aGalaxy_0
 0009:80702178       aMiniflowerhigh_1
 0009:80702194       aGalaxy_3
 0009:8070219C       aStagename_2
 0009:807021A8       aMiniaturename_0
 0009:807021B8       aPointposindex
 0009:807021C8       aStagetype_0
 0009:807021D4       aScalemin
 0009:807021E0       aScalemax
 0009:807021EC       aPosoffsetx
 0009:807021F8       aPosoffsety
 0009:80702204       aPosoffsetz
 0009:80702210       aNameplateposx
 0009:80702220       aNameplateposy
 0009:80702230       aNameplateposz
 0009:80702440       aPointlink
 0009:807024D8       aPointparts
 0009:807024E4       aWorldwarppoint
 0009:807024F4       aStarroadwarppo
 0009:80702508       aStarcheckpoint
 0009:80702518       aStarpiecemine
 0009:80702528       aEarthenpipe
 0009:80702534       aTicoroutecreat
 0009:80702548       aPartstypename
 0009:80702558       aPointindex
 0009:80702564       aPartsindex
 0009:80702570       aParam00_0
 0009:80702578       aParam01_0
 0009:80702580       aParam02_0
 0009:80702588       aPointpos
 0009:80702594       aValid
 0009:8070259C       aSubpoint
 0009:807025A8       aColorchange_4
 0009:807025B4       aPointpos_0
 0009:807025C0       aLayerno
 0009:807025C8       aClose_2
 0009:80702DE0       aDemointogalaxy
 0009:80702DF0       aDemointobosslv
 0009:80702E00       aDemointobosslv_0
 0009:80702E10       aDemointobosslv_1
 0009:80702F18       aReturnmariopla
 0009:80703094       aWorld02dS
 0009:807033A8       aWorldmapevents
 0009:807033CC       aWorldmapevents_0
 0009:807038F8       aWorldmapnewsst
 0009:80703914       aWorldmapnewsst_0
 0009:80703930       aWorldmapnewsst_1
 0009:8070394C       aWorldmapnewsst_2
 0009:80703968       aWorldmapnewsst_3
 0009:80703984       aWorldmapnewsst_4
 0009:807039A0       aWorldmapnewsst_5
 0009:807039BC       aWorldmapnewsno
 0009:80703C90       jpt_804FF458
 0009:80703D58       aWc2409
 0009:80703D60       aWc2408
 0009:80703D68       aWc2410
 0009:80703D70       aWc24Sendlimit
 0009:80703F44       aWii
 0009:80703FC8       aOriginalArenal
 0009:80703FEC       aAbort
 0009:80703FF4       aJkrheapCpp
 0009:80704000       __vt__7JKRHeap
 0009:80704060       aCannotAllocMem
 0009:80704088       aBadAppendusedl
 0009:8070409C       aJkrexpheapCpp
 0009:807040AC       aHeapMayBeBroke
 0009:807040D0       aBadBlock
 0009:807040DC       aAddr08xBadHeap
 0009:80704108       aAddr08xBadNext
 0009:80704138       aAddr08xBadPrev
 0009:80704164       aAddr08xBadUsed
 0009:80704190       aAddr08xBadBloc
 0009:807041B8       aBadTotalMemory
 0009:807041E8       aThereIsSomeErr
 0009:80704210       aAttrAddressSiz
 0009:80704248       aUsedBlocks
 0009:80704258       aNone
 0009:80704260       aXxxxx08xAbort
 0009:8070429C       aS08x08x3d3d08x
 0009:807042C4       aTemp
 0009:807042CC       aAlloc
 0009:807042D4       aFreeBlocks
 0009:807042E4       aFree
 0009:807042EC       aDDBytes62fUsed
 0009:80704318       aJkrexpheap
 0009:80704338       aAlignGroupSize
 0009:80704700       aAddressNot32by
 0009:80704720       aJkraramCpp
 0009:80704940       aBadSequence
 0009:80704954       aJkraramarchive
 0009:807049B8       aSorryNotApplie
 0009:807049E0       aJkrdvdarchiveC
 0009:807049F4       aBadSequence_0
 0009:80704A08       aSorryNotApplie_0
 0009:80704C68       aJutpaletteCpp
 0009:80704C78       aJuttextureTlut
 0009:80704CA8       aSystemReset
 0009:80704CB8       aMachineCheck
 0009:80704CC8       aExternalInterr
 0009:80704CDC       aAlignment
 0009:80704CE8       aProgram
 0009:80704CF0       aFloatingPoint
 0009:80704D00       aDecrementer
 0009:80704D0C       aSystemCall
 0009:80704D18       aTrace
 0009:80704D20       aPerformaceMoni
 0009:80704D34       aBreakPoint
 0009:80704D40       aSystemInterrup
 0009:80704D54       aThermalInterru
 0009:80704D68       aProtection
 0009:80704DB8       aSInSOnLineD
 0009:80704DD0       aF02dNan
 0009:80704DE8       aF02dInf
 0009:80704DF8       aF02dInf_0
 0009:80704E08       aF02d00
 0009:80704E1C       aF02d3e
 0009:80704E28       aFpr
 0009:80704E50       aTrace_0
 0009:80704E78       aAddressBackcha
 0009:80704E98       aSuppressTrace
 0009:80704EAC       a08x08x08x
 0009:80704EC4       aContext08xhSEx
 0009:80704EE4       aContext08xh
 0009:80704EF4       aFpeInvalidOper
 0009:80704F10       aSnan
 0009:80704F18       aInfinityInfini
 0009:80704F30       aInfinityInfini_0
 0009:80704F48       a00
 0009:80704F50       aInfinity0
 0009:80704F60       aInvalidCompare
 0009:80704F74       aSoftwareReques
 0009:80704F88       aInvalidSquareR
 0009:80704FA0       aInvalidInteger
 0009:80704FC0       aFpeOverflow
 0009:80704FD0       aFpeUnderflow
 0009:80704FE4       aFpeZeroDivisio
 0009:80704FFC       aFpeInexactResu
 0009:80705014       aSrr008xhSrr108
 0009:80705030       aDsisr08xhDar08
 0009:8070504C       aGpr
 0009:80705074       aR02d08xhR02d08
 0009:8070509C       aR02d08xhR02d08_0
 0009:807050B8       aSSXSectionD
 0009:807050D0       aGprmap
 0009:807050FC       aR02d08xh
 0009:8070510C       aNoInformation
 0009:80705120       aNoRegisterWhic
 0009:80705148       aSrr0map
 0009:80705174       aSrr008xh
 0009:80705180       aMsr08xhFpscr08
 0009:8070519C       aExceptionOccur
 0009:807051D4       aUserHaltFramem
 0009:80705228       aMap
 0009:80705230       a08xS08xXhS
 0009:807052E0       sFontData__14JUTDirectPrint
 0009:807053E0       sFontData2__14JUTDirectPrint
 0009:80705780       jpt_805181F8
 0009:807057C4       jpt_80518520
 0009:80705A20       jpt_8051C3EC
 0009:80705A50       jpt_8051C150
 0009:80705C68       jpt_80525AA0
 0009:80705C98       jpt_80525C70
 0009:80705CC8       jpt_80525DD8
 0009:80705CF8       jpt_80525F28
 0009:80706768       jpt_805281D4
 0009:807067F8       jpt_805284C4
 0009:80706FE0       jpt_8053C310
 0009:8070700C       jpt_8053BFB4
 0009:80707038       jpt_8053D5C0
 0009:80707108       st_bm__12JPABaseShape
 0009:80707118       st_bf__12JPABaseShape
 0009:80707140       st_ca__12JPABaseShape
 0009:80707180       st_c__12JPABaseShape
 0009:807071A0       st_ao__12JPABaseShape
 0009:80707230       jpt_805417FC
 0009:807072C8       jpt_805441F8
 0009:80707330       jpt_80544BD0
 0009:80707398       aRvlSdkKpadRele
 0009:807073E0       jpt_80548928
 0009:807074C8       aInvalidVersion
 0009:807074F8       aWarrningCtorsS
 0009:80707520       aWarrningDtorsS
 0009:80707548       aWarrningUnknow
 0009:807075A8       aOslinkUnknownR
 0009:807075D0       aSdaBase
 0009:807075DC       aSda2Base
 0009:807075E8       aErrorIncorrect
 0009:80707610       aRvlSdkRflRelea
 0009:80707658       aShared2Facelib
 0009:80707678       aShared2MenuFac
 0009:8070769C       aShared2MenuFac_0
 0009:807076C0       jpt_80552EB4
 0009:80707700       aRexPpc242550Re
 0009:80707738       jpt_8055BE04
 0009:807077C0       jpt_8055C28C
 0009:807077F0       aShared2Wc24Mbo
 0009:80707804       aShared2Wc24Nwc
 0009:80707820       aShared2Wc24Nwc_0
 0009:8070783C       aNwc24configC
 0009:8070784C       aStopped
 0009:80707858       aRvlSdkNwc24Rel
 0009:807078A4       jpt_8055DF04
 0009:80707968       aWc24sendCtl
 0009:80707978       aWc24recvCtl
 0009:80707988       aWc24recvMbx
 0009:80707998       aWc24sendMbx
 0009:807079A8       aShared2Wc24Mbo_0
 0009:807079C8       aShared2Wc24Mbo_1
 0009:807079E8       a24MbS07dMsg
 0009:807079FC       a24MbR07dMsg
 0009:80707A10       aAbcdefghijklmn
 0009:80707A58       aApplicationOct
 0009:80707A74       aApplicationXWi
 0009:80707A90       aApplicationXWi_0
 0009:80707AAC       aImageJpeg
 0009:80707AB8       aImageXWiiPictu
 0009:80707ACC       aMultipartAlter
 0009:80707AE8       aMultipartMixed
 0009:80707AF8       aMultipartRelat
 0009:80707B0C       aTextHtml
 0009:80707B18       aTextPlain
 0009:80707BA0       aIso2022Jp
 0009:80707BAC       aIso88591
 0009:80707BB8       aIso885910
 0009:80707BC4       aIso885915
 0009:80707BD0       aIso88592
 0009:80707BDC       aIso88593
 0009:80707BE8       aIso88595
 0009:80707BF4       aIso88597
 0009:80707C00       aIso88599
 0009:80707C0C       aShiftJis
 0009:80707C18       aUsAscii
 0009:80707C24       aUtf16be
 0009:80707C30       aUtf32be
 0009:80707C3C       aWindows1252
 0009:80707CE0       aQuotedPrintabl
 0009:80707E88       aDate02dSD02d02
 0009:80707EB0       aXWiiAppid
 0009:80707EC0       aD08x04x
 0009:80707ED0       aXWiiface
 0009:80707EDC       aXWiiAltname
 0009:80707EEC       aContentTypeSNa
 0009:80707F14       aContentTransfe
 0009:80707F38       aContentDisposi
 0009:80707F74       aContentTypeTex
 0009:80707F9C       aContentTransfe_0
 0009:80707FC0       aDevNetKdReques
 0009:80707FD4       aNwc24isetscrip
 0009:80707FE8       aNwc24irequestg
 0009:80708008       aExectrysuspend
 0009:80708020       aShared2Wc24Nwc_1
 0009:80708040       aShared2Wc24Nwc_2
 0009:80708060       aNwc24igettimed
 0009:80708078       aDevNetKdTime
 0009:8070808C       aNwc24isetrtcco
 0009:807080A0       aShared2Wc24Nwc_3
 0009:807080C0       aNwc24iprepares
 0009:807080D8       aDevNetKdReques_0
 0009:807080EC       aNwc24irequests
 0009:80708108       aNoName
 0009:807081B8       jpt_8057EBC4
 0009:807081D8       aSetuparamheapX
 0009:80708220       jpt_80587E5C
 0009:80708248       jpt_80587F58
 0009:80709860       jpt_80588598
 0009:80709934       jpt_80588758
 0009:80709A08       jpt_80589634
 0009:80709A34       aJastrack8xDump
 0009:80709A6C       aBase0x08xCur0x
 0009:80709A90       aRegA0x04xRegB0
 0009:80709ABC       aRegX0x04xRegY0
 0009:80709AE8       aPort030x04x0x0
 0009:80709B10       aPort470x04x0x0
 0009:80709B38       aPort8B0x04x0x0
 0009:80709B60       aPortCF0x04x0x0
 0009:80709CD1       aAudioresWaves
 0009:8070BE08       aItCostDStepsTo
 0009:8070BEE0       __vt__16JAIStreamDataMgr
 0009:8070C0A8       aAnonymous_0
 0009:8070C358       aNw4rLytFinalBu
 0009:8070C418       __vt__Q34nw4r3lyt5Group
 0009:8070C7A0       aRvlSdkOsReleas
 0009:8070C7E8       aRevolutionOs
 0009:8070C7F8       aKernelBuiltSS
 0009:8070C810       aDec112009_0
 0009:8070C81C       a155832
 0009:8070C828       aConsoleType
 0009:8070C838       aPreProductionB
 0009:8070C850       aPreProductionB_0
 0009:8070C86C       aPreProductionB_1
 0009:8070C888       aRetailD
 0009:8070C894       aNdev21
 0009:8070C8A0       aNdev20
 0009:8070C8AC       aNdev12
 0009:8070C8B8       aNdev11
 0009:8070C8C4       aNdev10
 0009:8070C8D0       aRevolutionEmul
 0009:8070C8E8       aEmulationPlatf
 0009:8070C904       aTdevBasedEmula
 0009:8070C920       aFirmwareDDD
 0009:8070C93C       aDDD
 0009:8070C948       aMemoryDMb
 0009:8070C958       aMem1Arena0xX0x
 0009:8070C974       aMem2Arena0xX0x
 0009:8070C990       aOsErrorBootPro
 0009:8070C9E0       aFailedToRunApp
 0009:8070C9F8       aOsErrorAppload
 0009:8070CA50       aOsErrorThisFir
 0009:8070CAB0       aError002AnErro
 0009:8070CC40       aMachineCheckRe
 0009:8070CC58       aHid20xXSrr10xX
 0009:8070CC78       aMachineCheckWa
 0009:8070CCA8       aDmaerrorhandle
 0009:8070CCE4       aTheFollowingEr
 0009:8070CD1D       aRequestedALock
 0009:8070CD5D       aDmaAttemptedTo
 0009:8070CD89       aDmaMissedInDat
 0009:8070CDA8       aDmaQueueOverfl
 0009:8070CDC8       aContext0x08x
 0009:8070CE10       aR2d0x08x14dR2d
 0009:8070CE40       aLr0x08xCr0x08x
 0009:8070CE70       aSrr00x08xSrr10
 0009:8070CEA0       aGqrs
 0009:8070CEB4       aGqrD0x08xGqrD0
 0009:8070CED8       aFprs
 0009:8070CEEC       aFrDDFrDD
 0009:8070CF08       aPsfs
 0009:8070CF1C       aPsD0xXPsD0xX
 0009:8070CF3C       aAddressBackCha
 0009:8070CF64       a0x08x0x08x0x08
 0009:8070CF80       aInSOnLineD
 0009:8070CF98       aAddressBackCha_0
 0009:8070CFC0       a0x08x0x08x0x08_0
 0009:8070CFDC       aNonRecoverable
 0009:8070CFFC       aUnhandledExcep
 0009:8070D014       aDsisr0x08xDar0
 0009:8070D048       aTb0x016llx
 0009:8070D058       aInstructionAt0
 0009:8070D0B8       aAttemptedToFet
 0009:8070D104       aInstructionAt0_0
 0009:8070D168       aProgramExcepti
 0009:8070D1C8       aAiDmaAddress0x
 0009:8070D1E8       aAramDmaAddress
 0009:8070D208       aDiDmaAddress0x
 0009:8070D224       aLastInterruptD
 0009:8070D260       aDiscErrorOccur
 0009:8070D279       aTimeoutErrorOc
 0009:8070D295       aUnexpectedErro
 0009:8070D2B5       aTheSpecifiedGa
 0009:8070D2E5       aOsexecFailedTo
 0009:8070D308       aOslaunchdiskYo
 0009:8070D34C       aOsexecC
 0009:8070D358       aOslaunchdiskYo_0
 0009:8070D3A0       aOslaunchdiskSp
 0009:8070D3F4       a00000000000000
 0009:8070D408       a20040201
 0009:8070D414       aWarningOsexecT
 0009:8070D44C       aOslaunchpartit
 0009:8070D494       aOslaunchpartit_0
 0009:8070D4D8       aTitle08x08x
 0009:8070D4EC       aOslaunchpartit_1
 0009:8070D528       aOslaunchpartit_2
 0009:8070D578       aOslaunchpartit_3
 0009:8070E100       aOsresetC
 0009:8070E10C       aOshotresetFali
 0009:8070E138       aOsreturntomenu
 0009:8070E16C       aOsreturntomenu_0
 0009:8070E19C       aOsreturntodata
 0009:8070E1D4       aCalendarCalend
 0009:8070E1F4       aDisplayDisplay
 0009:8070E210       aSoundSoundInde
 0009:8070E228       aParentalContro
 0009:8070E258       aInternetIntern
 0009:8070E278       aWiiconnect24Wi
 0009:8070E2A0       aUpdateUpdateIn
 0009:8070E2BC       aOsreturntosett
 0009:8070E2EC       aOsresetsystemI
 0009:8070E328       aOssetbootdolIs
 0009:8071A208       aDevStmImmediat
 0009:8071A21C       aDevStmEventhoo
 0009:8071A230       aOsstatetmC
 0009:8071A23C       aErrorTheFirmwa
 0009:8071A274       aErrorTheFirmwa_0
 0009:8071A2AC       aErrorOnStmStat
 0009:8071A2D0       aTitle000000010_0
 0009:8071A2FC       jpt_805BEBBC
 0009:8071A318       aTitle000000010
 0009:8071A340       aFailedToRegist
 0009:8071A374       aFailedToSuspen
 0009:8071A3A8       aFailedToSynchr
 0009:8071A3E8       aNwc24iprepares_0
 0009:8071A400       aDevNetKdReques_1
 0009:8071A414       aNwc24suspendsc
 0009:8071A42C       aNwc24resumesch
 0009:8071A444       aNwc24irequests_0
 0009:8071A45C       aNwc24shutdownG
 0009:8071A478       aNwc24isetrtcco_0
 0009:8071A490       aDevNetKdTime_0
 0009:8071A4A8       aShared2SysNand
 0009:8071A4C8       aShared2Expired
 0009:8071A4DC       aOsplaytimeC
 0009:8071A4EC       aPlaytimeDSecon
 0009:8071A508       aRvlSdkExiRelea
 0009:8071A550       aRvlSdkSiReleas
 0009:8071A658       aRvlSdkViReleas
 0009:8071A844       taps
 0009:8071A940       jpt_805C372C
 0009:8071A964       jpt_805C3CAC
 0009:8071A9F0       jpt_805C4440
 0009:8071AA40       aCAUTION
 0009:8071AA6C       aThisTvFormatDe
 0009:8071AA98       aTemporarySolut
 0009:8071AAC4       aIsAvailablePle
 0009:8071AAF0       aModeInRealGame
 0009:8071AB1C       aViconfigureTri
 0009:8071AB68       jpt_805C57C4
 0009:8071AB8C       jpt_805C5BA0
 0009:8071B1C0       aRvlSdkGxReleas
 0009:8071B430       jpt_805CAEFC
 0009:8071B498       jpt_805CB39C
 0009:8071B4DC       jpt_805CB554
 0009:8071B520       jpt_805CB7D8
 0009:8071B6A8       jpt_805CDD1C
 0009:8071B79C       jpt_805CDE4C
 0009:8071B890       jpt_805CE030
 0009:8071B968       jpt_805D0F9C
 0009:8071B9C0       jpt_805D0B78
 0009:8071BA50       aDvdconvertentr
 0009:8071BB18       aWarningDvdopen
 0009:8071BB50       aDvdreadasyncSp
 0009:8071BB84       aDvdreadSpecifi
 0009:8071BBB4       aWarningDvdopen_0
 0009:8071BBF0       aRvlSdkDvdRelea
 0009:8071BC38       aDvdchangediskF
 0009:8071BC6C       jpt_805D3FE4
 0009:8071BD18       jpt_805D4EFC
 0009:8071BDC4       jpt_805D4E54
 0009:8071BE7C       jpt_805D6280
 0009:8071BF28       jpt_805D618C
 0009:8071BF60       jpt_805D6538
 0009:8071BFFC       jpt_805D6788
 0009:8071C038       aShared2Test2Dv
 0009:8071C054       aShared2Test2
 0009:8071C0F8       aAnErrorHasOccu
 0009:8071C45C       aErIsEenFoutOpg
 0009:8071C4F0       aAnErrorHasOccu_0
 0009:8071C788       aError104AnErro
 0009:8071C86C       aError001Unauth
 0009:8071C920       aError001SeHaDe
 0009:8071C95C       aErrore001Rilev
 0009:8071C998       aFout001Ongeoor
 0009:8071C9C8       aDotransactionc
 0009:8071C9FC       aDocovercallbac
 0009:8071CA28       aDvdlowfinishEr
 0009:8071CA50       aIpccltinitRetu
 0009:8071CA70       aDdrallocaligne
 0009:8071CAAC       aAllocationOfDi
 0009:8071CAD4       aAllocationOfPa
 0009:8071CAF4       aDvdlowinitErro
 0009:8071CB40       aDvdlowinitErro_0
 0009:8071CB88       aDvdlowinitErro_1
 0009:8071CBD4       aDvdlowinitIosO
 0009:8071CC08       aNewcontextErro
 0009:8071CC40       aNewcontextNowS
 0009:8071CC70       aNewcontextSome
 0009:8071CCB0       aWarningCalling
 0009:8071CCEC       aDvdlowreaddisk
 0009:8071CD28       aDvdlowopenpart
 0009:8071CD60       aDvdlowopenpart_0
 0009:8071CD98       aDvdlowopenpart_1
 0009:8071CDD8       aDvdlowopenpart_2
 0009:8071CDFC       aSEticketMemory
 0009:8071CE20       aSTmdParameterC
 0009:8071CE44       aSTmdMemoryIsUn
 0009:8071CE64       aSEticketParame
 0009:8071CE90       aDvdlowopenpart_3
 0009:8071CEB8       aSEticketviewPa
 0009:8071CEE4       aSEticketviewMe
 0009:8071CF0C       aDvdlowgetnodis
 0009:8071CF28       aSErrorNullPoin
 0009:8071CF4C       aSNumtmdbytesMe
 0009:8071CF74       aSCertificatesM
 0009:8071CF9C       aSIosIoctlvasyn
 0009:8071CFCC       aDvdlowgetnodis_0
 0009:8071CFF0       aSPointerArgume
 0009:8071D014       aDvdlownodiscop
 0009:8071D030       aDvdlowclosepar
 0009:8071D070       aDvdlowunencryp
 0009:8071D0B0       aDvdlowstopmoto
 0009:8071D0EC       aDvdlowwaitforc
 0009:8071D130       aDvdlowinquiryI
 0009:8071D168       aDvdlowrequeste
 0009:8071D1A4       aDvdlowsetspinu
 0009:8071D1EC       aDvdlownotifyre
 0009:8071D228       aDvdlowresetIos
 0009:8071D260       aDvdlowaudiobuf
 0009:8071D2A4       aDvdlowgetcover
 0009:8071D2EC       aDvdlowgetcover_0
 0009:8071D328       aDvdlowreaddvdI
 0009:8071D360       aDvdlowreaddvdc
 0009:8071D3A0       aDvdlowreaddvdc_0
 0009:8071D3E0       aDvdlowreaddvdp
 0009:8071D420       aDvdlowreaddvdd
 0009:8071D460       aDvdlowreportke
 0009:8071D49C       aDvdlowoffsetIo
 0009:8071D4D4       aDvdlowstoplase
 0009:8071D510       aDvdlowreaddisk_0
 0009:8071D54C       aDvdlowsermeasc
 0009:8071D58C       aDvdlowrequestd
 0009:8071D5D0       aDvdlowrequestr
 0009:8071D614       aDvdlowsetmaxro
 0009:8071D654       aDvdlowreadErro
 0009:8071D694       aDvdlowreadIosI
 0009:8071D6C8       aDvdlowseekIosI
 0009:8071D6FC       aDvdlowgetcover_1
 0009:8071D740       aDvdlowgetcover_2
 0009:8071D778       aDvdlowpreparec
 0009:8071D7BC       aDvdlowprepares
 0009:8071D804       aDvdlowpreparec_0
 0009:8071D84C       aDvdlowclearcov
 0009:8071D890       aDvdlowenabledv
 0009:8071D8D0       aRvlSdkAiReleas
 0009:8071DAB8       aRvlSdkDspRelea
 0009:8071DB00       aDspinitBuildDa
 0009:8071DB20       aDec112009
 0009:8071DB2C       a155555
 0009:8071DB38       aDspIsBootingTa
 0009:8071DB58       aDspBootTaskIra
 0009:8071DB88       aDspBootTaskIra_0
 0009:8071DBB8       aDspBootTaskIra_1
 0009:8071DBE8       aDspBootTaskDra
 0009:8071DC18       aDspBootTaskSta
 0009:8071DC48       aDspAddTaskAdde
 0009:8071DC78       aTmpSys
 0009:8071DC84       aS08xS
 0009:8071DC90       jpt_805DEC4C
 0009:8071DCC0       aRvlSdkNandRele
 0009:8071DD70       aShared2
 0009:8071DD7C       aShared2_0
 0009:8071DD88       aIsfsErrorCodeD
 0009:8071DD9C       aCautionUnexpec
 0009:8071DDD0       aIsfsUnexpected
 0009:8071DDF0       aFailedToSetHom
 0009:8071DE10       aTitle00010000
 0009:8071DE20       aTitle00010001
 0009:8071DE30       aTitle00010003
 0009:8071DE40       aTitle00010004
 0009:8071DE50       aTitle00010005
 0009:8071DE60       aTitle00010006
 0009:8071DE70       aTitle00010007
 0009:8071DE80       aShared2Title
 0009:8071DEC0       aShared2Test2Na
 0009:8071DEDC       aD04d02d02d02d0
 0009:8071E47C       aError405ThereI
 0009:8071E804       aError406ThereI
 0009:8071EDDC       aError408TheWii
 0009:8071F3B0       aError411CouldN
 0009:8071FAC4       aError412AnErro
 0009:8071FB38       aRvlSdkScReleas
 0009:8071FB80       aIplEula
 0009:8071FB8C       aIplSadr
 0009:8071FB98       aNetCtpc
 0009:8071FBA4       aNetProf
 0009:8071FBB0       aNetWcpc
 0009:8071FBBC       aNetWcfg
 0009:8071FBC8       aMplsMovie
 0009:8071FD08       jpt_805E247C
 0009:8071FE28       aRvlSdkWpadRele
 0009:8071FE80       jpt_805E80F0
 0009:8071FEC4       jpt_805E84C0
 0009:8071FF04       aNintendoRvlWbc
 0009:8071FF18       aNintendoRvlCnt
 0009:8071FF2C       aWarningOverwri
 0009:8071FF60       aPleaseCallKpad
 0009:8071FFB8       aPleaseCallKpad_0
 0009:80720008       jpt_805EF0C0
 0009:8072002C       jpt_805F0694
 0009:8072007C       jpt_805F1858
 0009:80720130       jpt_805F3EFC
 0009:80720160       jpt_805F3E18
 0009:80722598       jpt_80608128
 0009:807225C0       jpt_806080B8
 0009:807225E8       aCtrlDataReceiv
 0009:8072260C       aInvalidTransac
 0009:80722644       jpt_80608410
 0009:8072266C       jpt_8060832C
 0009:80722698       aInvalidCommand
 0009:807226A8       aHidHostwritede
 0009:807226C4       aBtaHhWriteDevA
 0009:807226EC       aHidHdevEvtOpen
 0009:80722700       aHidHdevEvtClos
 0009:80722714       aHidHdevEvtRetr
 0009:8072272C       aHidHdevEvtIntr
 0009:80722744       aHidHdevEvtIntr_0
 0009:8072275C       aHidHdevEvtCtrl
 0009:80722774       aHidHdevEvtCtrl_0
 0009:8072278C       aHidHdevEvtHand
 0009:807227A4       aHidHdevEvtVcUn
 0009:807227BC       aUnknownHidEven
 0009:807227D0       aBtaHhCbackHidE
 0009:807227F0       jpt_80608C00
 0009:80722814       jpt_80608B88
 0009:80722838       aNoResourceToSe
 0009:80722868       aWrongDeviceHan
 0009:80722884       aBtaHhNullSt
 0009:80722894       aBtaHhIdleSt
 0009:807228A4       aBtaHhW4ConnSt
 0009:807228B8       aBtaHhConnSt
 0009:807228C8       aUnknownHidHost
 0009:807228E0       aBtaHhSmExecute
 0009:80722914       aHhStateChangeS
 0009:80722944       aBtaHhHdlEventH
 0009:80722970       aBtaHhApiDisabl
 0009:80722988       aBtaHhApiEnable
 0009:807229A0       aBtaHhApiOpenEv
 0009:807229B4       aBtaHhApiCloseE
 0009:807229CC       aBtaHhIntOpenEv
 0009:807229E0       aBtaHhIntCloseE
 0009:807229F8       aBtaHhIntHandsk
 0009:80722A10       aBtaHhIntDataEv
 0009:80722A24       aBtaHhIntCtrlDa
 0009:80722A3C       aBtaHhApiWriteD
 0009:80722A58       aBtaHhSdpCmplEv
 0009:80722A6C       aBtaHhDiscCmplE
 0009:80722A84       aBtaHhApiMaintD
 0009:80722AA0       aBtaHhApiGetDsc
 0009:80722AB8       aBtaHhOpenCmplE
 0009:80722AD0       aBtaHhApiGetAcl
 0009:80722AEC       aUnknownHidHost_0
 0009:80722B08       jpt_80609658
 0009:80722B48       aFoundKdevCbDHi
 0009:80722B6C       aInUseDKdevDHid
 0009:80722BA0       aBtaHhFindCbInd
 0009:80722BCC       aSubclass0x2x
 0009:80722BE0       aBtaHhParseKeyb
 0009:80722C20       aAltKeyPressed
 0009:80722C30       aAltKeyNotPress
 0009:80722C44       aThisChar02x
 0009:80722C58       aBtaHhparsekeyb
 0009:80722CA0       aBtaHhParseMice
 0009:80722CFC       aMiceButton0x2x
 0009:80722D10       aMiceMoveXDYD
 0009:80722D2C       aBtaHhTraceDevD
 0009:80722D68       aKdevDInUseDHan
 0009:80722D8C       aAttrMask04xSta
 0009:80722E08       aDuplicateBtmAc
 0009:80722E48       aSetpackettypeM
 0009:80722E68       aRoleChangeRequ
 0009:80722EC4       aBtmSetlinkpoli
 0009:80722F00       aBtmSetlinkpoli_0
 0009:80722F38       aBtmSetlinkpoli_1
 0009:80722F78       aBtmSetlinkpoli_2
 0009:80722FB0       aBtmReadlinkpol
 0009:80722FE8       aBtmReadclockof
 0009:80723024       aRoleSwitchEven
 0009:8072305C       aBtmSetqosBdadd
 0009:8072308C       aBtmPFlowDelayV
 0009:807230B4       aBtmReadrssiRem
 0009:807230E8       aBtmReadlinkqua
 0009:80723124       aBtmRssiComplet
 0009:80723154       aBtmLinkQuality
 0009:80723194       aBtmBeforeScoSe
 0009:807231C4       aBtmLastScoRemo
 0009:807231F4       aBtmLastScoRemo_0
 0009:80723228       aBtmSetafhchann
 0009:80723258       aBtmResetComple
 0009:8072326C       aLocalSupported
 0009:80723298       aLocalSupported_0
 0009:807232C4       aBtmBtmVendorsp
 0009:80723304       aBtmUnableToSen
 0009:80723348       aBtmEventReceiv
 0009:80723388       aBtmBtmWritepag
 0009:807233B0       aBtmBtmWritevoi
 0009:807233E0       aBtmBtmEnablete
 0009:807233F8       aBtmBtmReadstor
 0009:80723424       aBtmBtmWritesto
 0009:80723450       aBtmBtmDeletest
 0009:80723488       aBtmSetdiscover
 0009:807234E4       aBtmSetconnecta
 0009:80723538       aBtmCancelinqui
 0009:80723554       aBtmStartinquir
 0009:8072358C       aBtmReadremoted
 0009:807235CC       aBtmCancelremot
 0009:807235EC       aBtmInqdbreadBd
 0009:80723620       aBtmWarningSetE
 0009:8072365C       aBtmInqComplCal
 0009:80723698       aBtmModeChangeA
 0009:807236D8       aBtmEscoConnRsp
 0009:807236FC       aTcsAcceptScoPa
 0009:80723720       aBtmCreatescoES
 0009:80723764       aTxbw0xXRxbw0xX
 0009:807237B4       aBtmScoChkPendU
 0009:80723804       aBtmScoConnReqN
 0009:80723848       aBtmSetescomode
 0009:80723864       aBtmSetescomode_0
 0009:80723898       aTxbw0x08xRxbw0
 0009:807238F8       aBtmReadescolin
 0009:80723920       aBtmChangeescol
 0009:80723964       aBtmChangeescol_0
 0009:8072399C       aBtmEscoProcCon
 0009:807239D8       aBtmSecApplicat
 0009:807239F8       aBtmSetsecurity
 0009:80723A18       aBtmSetsecurity_0
 0009:80723A44       aBtmSetsecurity_1
 0009:80723A70       aBtmSetpintypeP
 0009:80723AB8       aBtmSecRegDIdDI
 0009:80723B00       aSec0xXServiceN
 0009:80723B48       aBtmSecRegOutOf
 0009:80723B78       aSecurityManage
 0009:80723BD8       aSecurityManage_0
 0009:80723C08       aBtmSecbondBda0
 0009:80723C38       aBtmSecbondIlle
 0009:80723C58       aBtmSecbondNoDe
 0009:80723C78       aBtmSecbondAlre
 0009:80723C98       aBtmSecbondAuth
 0009:80723CBC       aBtmSecbondNoBu
 0009:80723CD4       aBtmRestoreMode
 0009:80723CFC       aSecurityManage_1
 0009:80723D30       aSecurityManage_2
 0009:80723D68       aSecurityManage_3
 0009:80723D98       aSecurityManage_4
 0009:80723DE8       aSecurityManage_5
 0009:80723E20       aSecurityManage_6
 0009:80723E64       aSecurityManage_7
 0009:80723EA8       aSecurityManage_8
 0009:80723F00       aSecurityManage_9
 0009:80723F30       aSecurityManage_10
 0009:80723F70       aSecurityManage_11
 0009:80723FAC       aSecurityManage_12
 0009:80723FE4       aSecurityManage_13
 0009:80724018       aSecurityManage_14
 0009:80724048       aSecurityManage_15
 0009:8072407C       aSecurityManage_16
 0009:807240C0       aBtmSecLinkKeyN
 0009:80724104       aTypeD
 0009:80724130       aBtmSecLinkKeyR
 0009:80724170       aBtmSecPinCodeR
 0009:80724194       aBtmSecPinCodeR_0
 0009:807241D4       aBtmSecPinCodeR_1
 0009:80724204       aBtmSecPinCodeR_2
 0009:80724234       aBtmSecPinCodeR_3
 0009:80724284       aBtmSecExecuteP
 0009:807242C4       aL2capNoLcbForL
 0009:807242E8       aSecurityManage_17
 0009:8072430C       aSecurityManage_18
 0009:80724334       aSecurityManage_19
 0009:80724358       aSecurityManage_20
 0009:80724380       aSecurityManage_21
 0009:807243A8       aSecurityManage_22
 0009:807243CC       aBtmSecCollisio
 0009:807243E8       aCtlrHWErrorEve
 0009:80724400       aEventMismatchO
 0009:80724428       aCmdTimeoutNoCm
 0009:80724448       aBtuHciCommandT
 0009:80724478       aWarningGapConn
 0009:807244BC       aGapConnRcvdL2c
 0009:807244E8       aGapConnRcvdL2c_0
 0009:80724510       aGapConnRcvdL2c_1
 0009:80724548       aGapInquiryComp
 0009:80724584       aGapDiscoveryCo
 0009:807245B8       aGapDiscoverySu
 0009:807245E0       aGapRemoteNameC
 0009:80724614       jpt_80615F58
 0009:80724638       aGapInquiryResu
 0009:8072467C       aCod02x02x02xCl
 0009:807246C0       aGapFindaddrbyn
 0009:80724704       aGapFindaddrbyn_0
 0009:80724740       jpt_806161B0
 0009:80724764       jpt_80616118
 0009:80724788       aGapFindaddrbyn_1
 0009:807247CC       jpt_80616364
 0009:807247F0       jpt_806162F4
 0009:80724814       jpt_80616408
 0009:80724838       aHidOriginateSt
 0009:80724850       aHidOriginateFa
 0009:80724868       aHiddProcRepage
 0009:80724888       aHidErrNotRegis
 0009:807248A0       aHidErrInvalidP
 0009:807248B8       aHidErrNoConnec
 0009:807248DC       aSecurityRegist
 0009:807248FC       aSecurityRegist_0
 0009:8072491C       aSecurityRegist_1
 0009:8072493C       aSecurityRegist_2
 0009:8072495C       aSecurityRegist_3
 0009:8072497C       aSecurityRegist_4
 0009:807249A0       aHidControlRegi
 0009:807249C0       aHidInterruptRe
 0009:807249E4       aHidDisconnect
 0009:807249F8       aHidRcvdL2capCo
 0009:80724A2C       aHidRcvdIntrL2c
 0009:80724A60       aHidRcvdIntrL2c_0
 0009:80724A90       aHidRcvdCtlL2ca
 0009:80724AC0       aHidRcvdL2capCo_0
 0009:80724B04       aHidOriginateFa_0
 0009:80724B20       aHidOriginatorS
 0009:80724B40       aHidIntrOrigina
 0009:80724B5C       aHidRcvdUnexpec
 0009:80724B88       aHidGotCtrlConn
 0009:80724BBC       aHidRcvdL2capCf
 0009:80724BE8       aHidRcvdCfgIndS
 0009:80724C14       aHidRcvdCfgCfmC
 0009:80724C40       aHidRcvdL2capDi
 0009:80724C6C       aHidRcvdL2capDi_0
 0009:80724C90       aHidRcvdL2capDi_1
 0009:80724CC0       aHidRcvdL2capDi_2
 0009:80724CE8       aHidRcvdL2capCo_1
 0009:80724D20       aHidRcvdL2capCo_2
 0009:80724D58       aHidRcvdL2capDa
 0009:80724D88       aL2capL2caRegis
 0009:80724DB8       aL2capNoCbRegis
 0009:80724DE0       aL2capInvalidPs
 0009:80724E08       aL2capNoRcbAvai
 0009:80724E30       aL2capL2caDereg
 0009:80724E64       aL2capPsm0x04xN
 0009:80724E98       aL2caConnectreq
 0009:80724EB8       aL2caConnectreq_0
 0009:80724EF0       aL2capConnectRe
 0009:80724F14       aL2capNoRcbForL
 0009:80724F44       aL2capNoLcbForL_0
 0009:80724F68       aL2capApiL2caCo
 0009:80724FA0       aL2capNoCcbForL
 0009:80724FC4       aL2capL2caConnR
 0009:80724FF4       aL2caConnectrsp
 0009:8072502C       aL2caConnectrsp_0
 0009:80725064       aL2capNoLcbForL_1
 0009:80725088       aL2capNoCcbForL_0
 0009:807250AC       aL2capBadIdInL2
 0009:807250E0       aL2caConfigreqC
 0009:80725100       aL2capNoCcbForL_1
 0009:8072512C       aL2caConfigrspC
 0009:80725158       aL2capNoCcbForL_2
 0009:80725184       aL2caDisconnect
 0009:807251A8       aL2capNoCcbForL_3
 0009:807251D4       aL2caDisconnect_0
 0009:807251F8       aL2capNoCcbForL_4
 0009:80725224       aL2caDatawriteC
 0009:8072524C       aL2capNoCcbForL_5
 0009:80725278       aL2capCannotSen
 0009:807252B0       aL2caPingBda02x
 0009:807252E0       aL2capNoLcbForL_2
 0009:80725300       aL2capRejectedS
 0009:80725328       aL2capL2caPingR
 0009:80725358       aL2capNoCcbForL_6
 0009:80725388       aL2caSetaclprio
 0009:807253C0       aL2capNoLcbForL_3
 0009:807253E8       aL2caSetcompres
 0009:80725448       aL2capNoCcbForL_7
 0009:80725470       aL2caFlushCid0x
 0009:807254A0       aL2caGetnumqueu
 0009:807254E0       aL2caGetnumqueu_0
 0009:80725518       jpt_8061CA80
 0009:8072553C       aL2capStClosedE
 0009:80725558       aL2capCallingDi
 0009:8072559C       aL2capCallingCo
 0009:807255D8       jpt_8061CB24
 0009:80725654       aL2capStOrigW4S
 0009:8072567C       jpt_8061CDBC
 0009:807256E8       aL2capStTermW4S
 0009:80725710       aL2capCallingCo_0
 0009:80725740       jpt_8061CF1C
 0009:807257AC       aL2capStW4L2cap
 0009:807257D4       aL2capCallingCo_1
 0009:8072580C       aL2capCallingCo_2
 0009:80725830       aL2capCallingCo_3
 0009:80725870       aL2capCallingCo_4
 0009:807258A8       jpt_8061D094
 0009:80725918       aL2capStW4L2caC
 0009:8072593C       jpt_8061D2D0
 0009:807259AC       aL2capStConfigE
 0009:807259C8       aL2capCallingCo_5
 0009:807259F8       aL2capCallingCo_6
 0009:80725A28       aL2capCallingCo_7
 0009:80725A64       aL2capCallingDi_0
 0009:80725AA4       aL2capCallingDa
 0009:80725AD0       jpt_8061D4AC
 0009:80725B40       aL2capStOpenEvt
 0009:80725B5C       jpt_8061D874
 0009:80725BC8       aL2capStW4L2cap_0
 0009:80725BF0       aL2capCallingDi_1
 0009:80725C20       jpt_8061DAD4
 0009:80725C90       aL2capStW4L2caD
 0009:80725CB8       jpt_8061DCB0
 0009:80725D28       aL2capCannotSen_0
 0009:80725D50       aL2capFailedToA
 0009:80725D70       aL2capGotConnRe
 0009:80725D98       aL2capGotConnCo
 0009:80725DC0       aL2capGotConnCo_0
 0009:80725DF4       aL2capGotSecCom
 0009:80725E1C       aL2capPingTimeo
 0009:80725E34       aL2capCongested
 0009:80725E60       aL2capCallingCo_8
 0009:80725EA0       aL2capBufferDro
 0009:80725EC0       aL2capCallingCo_9
 0009:80725F00       aLcbDPriorityDX
 0009:80725F48       aL2capDroppingI
 0009:80725F68       aL2capDroppingT
 0009:80725F88       aL2capRcvdSegme
 0009:80725FC0       aL2capExpectedP
 0009:80725FE4       aL2capHoldingAc
 0009:80726038       aL2capUnknownCi
 0009:80726050       aL2capGotIncorr
 0009:80726074       aL2capBadLength
 0009:807260A0       aGotConnectionl
 0009:807260C0       aCommandLenBadP
 0009:807260F4       aL2capMtuRejHan
 0009:80726118       aL2capRejWithCi
 0009:80726148       aL2capRcvdConnR
 0009:80726174       aL2capUnableToA
 0009:80726194       aL2capNoCcbForC
 0009:807261C4       aL2capConRspBad
 0009:807261F0       aL2capCfgRspBad
 0009:8072621C       aL2capRcvdCfgRs
 0009:80726248       aL2capBadCmdCod
 0009:80726264       jpt_8061F5D4
 0009:80726294       aL2capHoldConti
 0009:807262A8       aL2capHoldTimeo
 0009:807262C0       aL2capNoBufferC
 0009:807262DC       aL2capNoBufferF
 0009:807262FC       aL2capNoBufferF_0
 0009:8072631C       aL2capNoBufferF_1
 0009:8072633C       aL2cuCreateConn
 0009:80726380       aL2capNoBufferF_2
 0009:807263A8       aPortOpenContin
 0009:807263BC       aPortOpenContin_0
 0009:807263E0       aPortStartcnfRe
 0009:807263F8       aPortStartcnfFa
 0009:80726418       aPortStartind
 0009:80726428       aPortParnegindD
 0009:80726448       aPortParnegindP
 0009:80726468       aPortParnegcnfD
 0009:80726494       aPortDlcestabli
 0009:807264B8       aPortDlcestabli_0
 0009:807264E8       aPortPortnegind
 0009:807264F8       aPortPortnegcnf
 0009:80726508       aPortPortnegcnf_0
 0009:80726520       aPortPortnegcnf_1
 0009:80726548       aPortControlind
 0009:80726558       aPortControlind_0
 0009:80726598       aPortControlcnf
 0009:807265A8       aPortLinestatus
 0009:807265BC       aPortDlcrelease
 0009:807265D0       aPortCloseind
 0009:807265E0       aPortTimeoutclo
 0009:807265F8       aPortDataindWit
 0009:8072661C       aPortDataindBuf
 0009:80726650       aPortFlowindFcD
 0009:80726664       aSendingRfcommD
 0009:8072667C       aPortRfcClosedI
 0009:807266A8       aPortRfcClosedS
 0009:807266D8       aPortSelectMtuB
 0009:807266F8       aPortSelectMtuS
 0009:80726730       aPortSelectMtuS_0
 0009:80726768       aPortSelectMtuA
 0009:80726790       aPortSelectMtuC
 0009:807267D8       aRfcPortClosedD
 0009:807267F0       aPortDataindDat
 0009:80726820       aRfcFindLcidMcb
 0009:8072683C       aRfcFindLcidMcb_0
 0009:80726874       aRfcommConnectc
 0009:80726890       aRfcommConfigin
 0009:807268AC       aRfcommConfigcn
 0009:807268C8       aRfcommDisconne
 0009:807268E8       aRfcommBufdatai
 0009:80726904       aRfcommCongesti
 0009:80726934       aRfcommCongesti_0
 0009:80726960       jpt_80624334
 0009:8072697C       aRfcMxSmStateId
 0009:8072699C       aMxErrorStateDE
 0009:807269B8       aRfcMxSendConfi
 0009:807269D0       aRfcommMxIgnore
 0009:807269F8       jpt_806243CC
 0009:80726A2C       aRfcMxSmStateWa
 0009:80726A54       aRfcMxSmStateCo
 0009:80726A78       jpt_806247A0
 0009:80726A9C       aRfcMxSmSabmeWa
 0009:80726AC0       jpt_806248C4
 0009:80726AFC       aRfcMxSmStateWa_0
 0009:80726B20       aRfcMxSmStateCo_0
 0009:80726B44       jpt_80624B4C
 0009:80726B74       aRfcMxSmStateDi
 0009:80726B9C       jpt_80624C68
 0009:80726BD8       aRfcMxConfCnfPC
 0009:80726BFC       aRfcMxConfIndPC
 0009:80726C18       aNullPortEventD
 0009:80726C2C       aPortErrorState
 0009:80726C4C       aPortStateClose
 0009:80726C70       jpt_80625020
 0009:80726CAC       aPortStateSabme
 0009:80726CD8       jpt_80625194
 0009:80726D14       aPortErrorState_0
 0009:80726D40       aPortStateTermW
 0009:80726D70       jpt_80625338
 0009:80726DB0       aPortErrorState_1
 0009:80726DE0       aPortStateOrigW
 0009:80726E10       jpt_806254F4
 0009:80726E50       aPortStateOpene
 0009:80726E74       jpt_8062563C
 0009:80726EB0       aPortStateDiscW
 0009:80726EDC       jpt_80625824
 0009:80726F18       aMxPnWhileDisco
 0009:80726F40       aBadLength1D
 0009:80726F50       aBadLength2DD
 0009:80726F64       aBadSabme
 0009:80726F70       aBadDisc
 0009:80726F7C       aBadUihInvalidD
 0009:80726F94       aBadUihFcs
 0009:80726FA4       aBadUihResponse
 0009:80726FB8       aIllegalMxFrame
 0009:80726FD8       aBadMxFrame
 0009:80726FE8       aBadPnFrame
 0009:80726FF8       aBadMscFrame
 0009:80727008       aBadRpnFrame
 0009:80727018       aRfcTimerStop
 0009:80727028       aRfcTimerStartT
 0009:80727048       aRfcPortTimerSt
 0009:8072706C       aRfcPortTimerSt_0
 0009:80727080       aRfcPortClosed
 0009:80727090       aRfcIncCreditD
 0009:807270A8       aSdpInitdiscove
 0009:807270F8       aSdpAddattribut
 0009:80727134       aSdpAdduuidsequ
 0009:80727168       aDeletingAttrId
 0009:80727190       aSdpUnexpPduDIn
 0009:807271B8       aSdpRcvdService
 0009:807271E0       aSdpWrongType0x
 0009:80727208       aSdpBadLenInAtt
 0009:80727228       aSdpDbFull
 0009:80727238       aSdpBadType0x02
 0009:80727268       aSdpAttrNesting
 0009:80727284       aSdpBadLenInUui
 0009:807272A4       aSdpBadLenInBoo
 0009:807272C8       jpt_8062AD28
 0009:807272F0       aServiceDiscove
 0009:80727304       aSecurityRegist_5
 0009:80727328       aSecurityRegist_6
 0009:80727350       aSdpRegistratio
 0009:80727368       aSdpRcvdL2capCo
 0009:807273A0       aSdpRcvdConnCnf
 0009:807273CC       aSdpGotConnCnfS
 0009:807273F8       aSdpRcvdConnCnf_0
 0009:80727428       aSdpRcvdL2capCf
 0009:80727454       aSdpRcvdCfgIndS
 0009:80727480       aSdpRcvdCfgCfmC
 0009:807274AC       aSdpDisconnectC
 0009:807274C8       aSdpRcvdL2capDi
 0009:807274F4       aSdpRcvdL2capDi_0
 0009:80727518       aSdpIgnoredL2ca
 0009:80727550       aSdpRcvdL2capDa
 0009:8072757C       aSdpNoSpareCcbF
 0009:80727598       aSdpOriginateSt
 0009:807275B0       aSdpOriginateFa
 0009:807275C8       aSdpRcvdL2capDi_1
 0009:807275F8       aSdpRcvdL2capDi_2
 0009:80727620       aSdpCcbTimeoutI
 0009:80727650       aSdpServerGotUn
 0009:80727674       aSdpNoBufForSea
 0009:80727690       jpt_8062CE28
 0009:807276D4       aSdpSdpuBuildNS
 0009:8072770C       aSdpNoBufForErr
 0009:80727728       jpt_8062D128
 0009:80727748       jpt_8062D054
 0009:80727768       jpt_8062D5D4
 0009:807278C8       jpt_8062F548
 0009:80727C28       jpt_80631C60
 0009:80727D08       jpt_80633108
 0009:80727E58       jpt_80634064
 0009:80727F38       jpt_8063498C
 0009:80727F58       jpt_806347F4
 0009:80727F78       jpt_806346A8
 0009:807280C8       jpt_80637C60
 0009:807281A8       jpt_806391BC
 0009:80728368       jpt_8063EAA8
 0009:80728418       aDevkitSetToLd
 0009:8072842D       aMetrotrkSizeof
 0009:80728452       aMetrotrkSetToN
 0009:80728473       aMetrotrkSetToU
 0009:8072849E       aMetrotrkInvali
 0009:807284CD       aMetrotrkDefaul
 0009:807284F5       aS_10
 0009:80728500       aMetrotrkEventQ
 0009:80728520       aMetrotrkForRev
 0009:80728540       aMetrotrkBadRep
 0009:8072855F       aMetrotrkFailed
 0009:80728588       aMetrotrkTrkWri
 0009:807285B0       aMetrotrkErrorN
 0009:807285D8       jpt_80640C78
 0009:807285F4       jpt_80640E88
 0009:80728610       aMetrotrkOption
 0009:8072862F       aEnable
 0009:80728637       aDisable
 0009:80728640       gTRKExceptionStatus
 0003:807286B0       sMutex__Q22MR14MutexHolder<1>
 0003:807286C8       sMutex__Q22MR14MutexHolder<0>
 0003:807286F0       cInitializeStartIdInfo__23@unnamed@SceneUtil_cpp@
 0003:80728860       sSoundHandle__28@unnamed@AudSpeakerWrap_cpp@
 0003:80728B80       sParam__24@unnamed@DinoPackun_cpp@
 0003:80728E90       sStaticAnimParam__33@unnamed@AnimScaleController_cpp@
 0003:8072B870       sMutex__Q22MR14MutexHolder<2>
 0003:8072B894       sList__22MainLoopFrameworkAlarm
 0003:8072B8E0       memPool___58JASPoolAllocObject_MultiThreaded<Q28JASTrack11TChannelMgr>
 0003:8072BBBC       sThreadList__9JKRThread
 0003:8072BD1C       sDvdList__10JKRDvdFile
 0003:8072BDA8       sMessageQueue__9JKRDecomp
 0003:8072BE08       sMapFileList__12JUTException
 0003:8072C240       j3dSys
 0003:8072C360       mCurrentMtx__6J3DSys
 0003:8077B804       audioAramHeap__9JASKernel
 0003:8077B8AC       sCommandListOnce__10JASPortCmd
 0003:8077B8C4       sCommandListStay__10JASPortCmd
 0003:8077B8DC       sDefaultBankTable__8JASTrack
 0003:8077BCF8       sTrackList__8JASTrack
 0003:8077E4C0       __OSRebootParams
 0003:8077E530       __OSErrorTable
 0003:80780104       CPUFifo
 0003:807C4678       btm_cb
 0003:807CCE30       jpt_806352FC
 0003:807CD370       gDBCommTable
 0003:807CEE38       gTRKState
 0001:807CF320       aNpc_0
 0001:807CF324       aEye_0
 0001:807CF328       aUse
 0001:807CF340       sLauncherCameraName__24@unnamed@CameraUtil_cpp@
 0001:807CF344       sLauncherFlightCameraName__24@unnamed@CameraUtil_cpp@
 0001:807CF360       aS_5
 0001:807CF364       a4x3
 0001:807CF378       aFur_0
 0001:807CF381       aUr
 0001:807CF388       aSx
 0001:807CF38C       aSy
 0001:807CF390       aSz
 0001:807CF3A0       aIce_0
 0001:807CF3A4       aLow
 0001:807CF3AC       aS_8
 0001:807CF3B4       aFur_1
 0001:807CF3E0       aSx_0
 0001:807CF3E4       aSy_0
 0001:807CF3E8       aSz_0
 0001:807CF3EC       aSr
 0001:807CF3F0       aSg
 0001:807CF3F4       aSb
 0001:807CF3F8       aSa
 0001:807CF408       aRun
 0001:807CF418       aS_7
 0001:807CF41C       nullStr
 0001:807CF420       aD_0
 0001:807CF43C       aBtp_0
 0001:807CF440       aBtk_0
 0001:807CF478       aSy_1
 0001:807CF47C       aPv
 0001:807CF480       aPm
 0001:807CF484       aBv
 0001:807CF488       aBm
 0001:807CF48C       aOj
 0001:807CF490       aAt
 0001:807CF494       aDm
 0001:807CF498       aEv
 0001:807CF49C       aEm
 0001:807CF4A0       aSv
 0001:807CF4A4       aSm
 0001:807CF4A8       aRs
 0001:807CF4AC       aHo
 0001:807CF4B0       aBg_0
 0001:807CF4B4       aMb
 0001:807CF4B8       aSt
 0001:807CF4C0       soundIdToInstanceList_BCSV
 0001:807CF4D4       stageBgmInfo_BCSV
 0001:807CF4D8       scenarioBgmInfo_BCSV
 0001:807CF4E0       aRun_0
 0001:807CF4E8       aGnd
 0001:807CF4F0       aFly_0
 0001:807CF4F8       aFly_1
 0001:807CF500       aEye_1
 0001:807CF508       aFly_2
 0001:807CF510       aFly_3
 0001:807CF514       aHit_0
 0001:807CF518       aFly_4
 0001:807CF51C       aHit_1
 0001:807CF520       aHit_2
 0001:807CF52C       aEgg
 0001:807CF530       aVs1
 0001:807CF534       aVs2
 0001:807CF538       aHit_9
 0001:807CF53C       aEgg_0
 0001:807CF688       sStartAnimCameraName__28@unnamed@CameraDirector_cpp@
 0001:807CF6BC       aUp
 0001:807CF6C0       aId_1
 0001:807CF78C       a3d
 0001:807CF790       a2d
 0001:807CF794       aOn
 0001:807CF798       aIce_1
 0001:807CF79C       aMud_0
 0001:807CF7C1       aAt_0
 0001:807CF7C8       aFly_5
 0001:807CF7D0       aRun_2
 0001:807CF7D8       aFly_6
 0001:807CF7E0       aHit_3
 0001:807CF7E8       aHit_4
 0001:807CF7F4       aHit_5
 0001:807CF7F8       aHit_6
 0001:807CF800       aRun_3
 0001:807CF804       aHit_7
 0001:807CF808       aDie
 0001:807CF810       aHit_8
 0001:807CF814       aFly_7
 0001:807CF818       aEye_2
 0001:807CF9C4       actionSound_BCSV
 0001:807CF9F4       aBck
 0001:807CF9F8       aBtk
 0001:807CF9FC       aBrk
 0001:807CFA00       aBpk
 0001:807CFA04       aBtp
 0001:807CFA08       aBva
 0001:807CFA1C       aMin
 0001:807CFA20       aMax
 0001:807CFA90       sActorNumMax__33@unnamed@ClippingActorHolder_cpp@
 0001:807CFA98       sTextOutFileName__30@unnamed@DynamicJointCtrl_cpp@
 0001:807CFAA0       cAttributeEffectTag__26@unnamed@EffectKeeper_cpp@
 0001:807CFAB8       sTextOutFileName__27@unnamed@FaceJointCtrl_cpp@
 0001:807CFAC0       sTextOutFileName__25@unnamed@IKJointCtrl_cpp@
 0001:807CFAD8       aId_0
 0001:807CFAE0       aEye
 0001:807CFAF8       aIce
 0001:807CFAFC       aWet
 0001:807CFB00       aOil
 0001:807CFB04       aFur
 0001:807CFB08       aMud
 0001:807CFB20       sDefaultAreaLightName__29@unnamed@LightDataHolder_cpp@
 0001:807CFB28       aFix
 0001:807CFB6C       aLow_0
 0001:807CFB70       aSky
 0001:807CFB74       aAir
 0001:807CFCA8       aEnd_5
 0001:807CFD50       aS_9
 0001:807CFD58       aHit
 0001:807CFE20       aGet
 0001:807CFE80       aMoc
 0001:807CFEB8       aNpc
 0001:807CFEC4       aFly
 0001:807CFEC8       aJoy
 0001:807CFEE8       aMoc_0
 0001:807CFF80       aEnd_4
 0001:807CFF8C       cBinderRadius__27@unnamed@FireMarioBall_cpp@
 0001:807CFF90       cForceKillDistance__27@unnamed@FireMarioBall_cpp@
 0001:807CFF94       cBoundReduction__27@unnamed@FireMarioBall_cpp@
 0001:807CFF98       cGravityAcc__27@unnamed@FireMarioBall_cpp@
 0001:807CFF9C       cThrowSpeed__27@unnamed@FireMarioBall_cpp@
 0001:807CFFA0       aRun_1
 0001:807D0240       a4x3_0
 0001:807D0248       aEnd
 0001:807D0254       aEnd_0
 0001:807D0258       aBg
 0001:807D025C       aEnd_1
 0001:807D0260       aEnd_2
 0001:807D0268       aBee
 0001:807D026C       aTo_0
 0001:807D0274       aEnd_3
 0001:807D0278       aNew
 0001:807D0408       aJp
 0001:807D040C       aUs
 0001:807D0410       aEu
 0001:807D0414       aCn
 0001:807D0418       aKr
 0001:807D05BC       ARALT_AramStartAdr
 0001:807D05C0       aS_3
 0001:807D05E0       aDsi
 0001:807D05E4       aIsi
 0001:807D05F8       aS_4
 0001:807D06F0       aTplC
 0001:807D06F8       __RFLVersion
 0001:807D06FC       sRFLLastErrCode
 0001:807D0710       NETRexPPCVersionPrintableString
 0001:807D0740       aSS_3
 0001:807D0748       a24
 0001:807D0770       aEucJp
 0001:807D0778       aEucKr
 0001:807D0780       aGb2312
 0001:807D0788       aUtf8
 0001:807D0790       a7bit
 0001:807D0798       a8bit
 0001:807D07A0       aBase64
 0001:807D07B0       aData
 0001:807D07C4       aS
 0001:807D07D8       aCSS
 0001:807D07E0       aS_0
 0001:807D07E4       aFrom
 0001:807D07EC       aTo
 0001:807D07F4       aJan
 0001:807D07F8       aFeb
 0001:807D07FC       aMar
 0001:807D0800       aApr
 0001:807D0804       aMay
 0001:807D0808       aJun
 0001:807D080C       aJul
 0001:807D0810       aAug
 0001:807D0814       aSep
 0001:807D0818       aOct
 0001:807D081C       aNov
 0001:807D0820       aDec
 0001:807D092C       aRva1
 0001:807D0934       a08x
 0001:807D093C       aS_1
 0001:807D0940       aOsC
 0001:807D0948       aHaea
 0001:807D0958       __OSCurrHeap
 0001:807D0960       __OSArenaLo
 0001:807D0964       s_mem2ArenaLo
 0001:807D0968       __OSFpscrEnableBits
 0001:807D0970       a016llx
 0001:807D0978       aD
 0001:807D0980       aS_2
 0001:807D0990       SwitchThreadCallback
 0001:807D0998       IpcBufferLo
 0001:807D09A0       PlayRecordState
 0001:807D09A8       aExpired
 0001:807D09C0       __VIVersion
 0001:807D09D8       aViC
 0001:807D0A00       __GXVersion
 0001:807D0A60       __DVDLongFileNameFlag
 0001:807D0A68       aDvdfsC
 0001:807D0A7C       aDvdC
 0001:807D0AA0       aDevDi
 0001:807D0AC8       aS08x
 0001:807D0AD0       aSS_4
 0001:807D0AEC       aS_6
 0001:807D0AF0       aSS_5
 0001:807D0B00       aMeta
 0001:807D0B08       aTicket
 0001:807D0B1C       aIplCb
 0001:807D0B24       aIplAr
 0001:807D0B30       aIplArn
 0001:807D0B38       aIplCd
 0001:807D0B40       aIplCd2
 0001:807D0B48       aIplDh
 0001:807D0B50       aIplE60
 0001:807D0B58       aIplFrc
 0001:807D0B60       aIplIdl
 0001:807D0B68       aIplInc
 0001:807D0B70       aIplLng
 0001:807D0B78       aIplNik
 0001:807D0B80       aIplPc
 0001:807D0B88       aIplPgs
 0001:807D0B90       aIplSsv
 0001:807D0B98       aIplSnd
 0001:807D0BA0       aIplUpt
 0001:807D0BA8       aNetCnf
 0001:807D0BB0       aDevBtm
 0001:807D0BB8       aDevVim
 0001:807D0BC0       aDevCtc
 0001:807D0BC8       aDevDsm
 0001:807D0BD0       aBtDinf
 0001:807D0BD8       aBtCdif
 0001:807D0BE0       aBtSens
 0001:807D0BE8       aBtSpkv
 0001:807D0BF0       aBtMot
 0001:807D0BF8       aBtBar
 0001:807D0C00       aDvdCnf
 0001:807D0C08       aWwwRst
 0001:807D0C10       aIplTid
 0001:807D0C18       aScv0
 0001:807D0C20       aSced
 0001:807D0C28       aArea
 0001:807D0C30       aGame_2
 0001:807D0C38       aArcC
 0001:807D0C40       __esFd
 0001:807D0C48       aDevEs
 0001:807D0C60       aDevFs
 0001:807D0C80       aRfnj
 0001:807D0C88       aWudC
 0001:807D0C98       aUsb
 0001:807D0D04       aTrue
 0001:807D0D0C       aFalse
 0001:807D0D20       aTrue_0
 0001:807D0D28       aFalse_0
 0001:807D0D30       aBadUa
 0001:807D0D38       aBadDm
 0001:807D0D40       fragmentID
 0001:807D0D50       __float_nan
 0001:807D0D54       __float_huge
 0003:807D0D80       sInstance__43AudSingletonHolder<21AudSoundNameConverter>
 0003:807D0D98       sInstance__40SingletonHolder<21ResourceHolderManager>
 0003:807D0D9C       sInstance__29SingletonHolder<10FileLoader>
 0003:807D0DA0       gAcosTable__22@unnamed@MathUtil_cpp@
 0003:807D0DA4       sInstance__29SingletonHolder<10GameSystem>
 0003:807D0DA8       sHeap__Q22MR19JKRHeapAllocator<0>
 0003:807D0DAC       sInstance__36SingletonHolder<17HeapMemoryWatcher>
 0003:807D0E10       msBasic__9AudSystem
 0003:807D0E30       sInstance__34JASGlobalInstance<13JAUSoundTable>
 0003:807D0E50       sInstance__29JASGlobalInstance<9SpkSystem>
 0003:807D12A0       sInstance__Q217NrvDinoPackunDemo36DinoPackunDemoPositionNrvOpeningDemo
 0003:807D12E8       sInstance__Q221NrvDinoPackunTailPart25DinoPackunTailPartNrvWait
 0003:807D12EC       sInstance__Q221NrvDinoPackunTailPart33DinoPackunTailPartNrvLockPosition
 0003:807D1F28       sInstance__Q229NrvWalkerStateBindStarPointer33WalkerStateBindStarPointerNrvBind
 0003:807D1F30       sInstance__Q222NrvAnimScaleController26AnimScaleControllerNrvAnim
 0003:807D1F34       sInstance__Q222NrvAnimScaleController26AnimScaleControllerNrvStop
 0003:807D1F3C       sInstance__Q222NrvAnimScaleController33AnimScaleControllerNrvHitReaction
 0003:807D1F40       sInstance__Q222NrvAnimScaleController27AnimScaleControllerNrvCrush
 0003:807D1FD0       sInstance__Q211NrvBasaBasa15BasaBasaNrvWait
 0003:807D1FD4       sInstance__Q211NrvBasaBasa18BasaBasaNrvAirWait
 0003:807D1FD8       sInstance__Q211NrvBasaBasa21BasaBasaNrvChaseStart
 0003:807D1FE4       sInstance__Q211NrvBasaBasa20BasaBasaNrvQuickTurn
 0003:807D1FE8       sInstance__Q211NrvBasaBasa20BasaBasaNrvPunchDown
 0003:807D1FEC       sInstance__Q211NrvBasaBasa22BasaBasaNrvTrampleDown
 0003:807D1FF4       sInstance__Q211NrvBasaBasa17BasaBasaNrvAttack
 0003:807D2000       sInstance__Q211NrvBasaBasa18BasaBasaNrvHitBack
 0003:807D2008       sInstance__Q211NrvBasaBasa19BasaBasaNrvComeHome
 0003:807D200C       sInstance__Q211NrvBasaBasa24BasaBasaNrvAttachCelling
 0003:807D2010       sInstance__Q211NrvBasaBasa19BasaBasaNrvDPDSwoon
 0003:807D2014       sInstance__Q211NrvBasaBasa15BasaBasaNrvStun
 0003:807D2070       sInstance__Q214NrvBegomanBaby21HostTypeNrvNoCalcWait
 0003:807D2074       sInstance__Q214NrvBegomanBaby15HostTypeNrvWait
 0003:807D20B4       sInstance__Q214NrvBegomanBaby18HostTypeNrvInWater
 0003:807D2208       sInstance__Q210NrvBombHei17HostTypeNrvLaunch
 0003:807D223C       sInstance__Q210NrvBombHei18HostTypeNrvExplode
 0003:807D2240       sInstance__Q210NrvBombHei26HostTypeNrvBindStarPointer
 0003:807D27C0       sInstance__Q215NrvKabokuriFire19KabokuriFireNrvWait
 0003:807D28FC       sInstance__Q28NrvKaron15HostTypeNrvWait
 0003:807D2B60       sInstance__Q211NrvMeramera18MerameraNrvRunaway
 0003:807D3518       sInstance__Q228@unnamed@FileSelectItem_cpp@24FileSelectItemNrvNewWait
 0003:807D351C       sInstance__Q228@unnamed@FileSelectItem_cpp@26FileSelectItemNrvExistWait
 0003:807D36B0       sInstance__Q26NrvSky12HostTypeWait
 0003:807D36B8       sInstance__Q213NrvSpaceInner14HostTypeAppear
 0003:807D36BC       sInstance__Q213NrvSpaceInner17HostTypeDisappear
 0003:807D39FC       sInstance__Q214NrvCrystalCage18CrystalCageNrvWait
 0003:807D3A00       sInstance__Q214NrvCrystalCage19CrystalCageNrvBreak
 0003:807D3A04       sInstance__Q214NrvCrystalCage24CrystalCageNrvBreakAfter
 0003:807D3CC0       sInstance__Q210NrvIceStep14IceStepNrvWait
 0003:807D3DE8       sInstance__Q213NrvLavaGeyser21HostTypeNrvWaitSwitch
 0003:807D3DEC       sInstance__Q213NrvLavaGeyser15HostTypeNrvWait
 0003:807D40E0       sInstance__Q212NrvPowerStar27PowerStarNrvWaitStartAppear
 0003:807D40E4       sInstance__Q212NrvPowerStar27PowerStarNrvAppearDemoKoopa
 0003:807D40EC       sInstance__Q212NrvPowerStar16PowerStarNrvWeak
 0003:807D40F4       sInstance__Q212NrvPowerStar16PowerStarNrvWait
 0003:807D40F8       sInstance__Q212NrvPowerStar26PowerStarNrvStageClearDemo
 0003:807D4104       sInstance__Q215NrvPressureBase25PressureBaseNrvRelaxStart
 0003:807D4108       sInstance__Q215NrvPressureBase24PressureBaseNrvWaitStart
 0003:807D410C       sInstance__Q215NrvPressureBase20PressureBaseNrvRelax
 0003:807D4268       sInstance__Q27NrvRock13RockNrvAppear
 0003:807D426C       sInstance__Q27NrvRock28RockNrvAppearMoveInvalidBind
 0003:807D4270       sInstance__Q27NrvRock11RockNrvMove
 0003:807D4274       sInstance__Q27NrvRock22RockNrvMoveInvalidBind
 0003:807D4278       sInstance__Q27NrvRock12RockNrvBreak
 0003:807D44A8       sInstance__Q212NrvStarPiece19HostTypeNrvFloating
 0003:807D44B0       sInstance__Q212NrvStarPiece15HostTypeNrvFall
 0003:807D44B4       sInstance__Q212NrvStarPiece27HostTypeNrvFallAfterReflect
 0003:807D44B8       sInstance__Q212NrvStarPiece19HostTypeNrvToTarget
 0003:807D44D0       sInstance__Q212NrvStarPiece23HostTypeNrvFollowPlayer
 0003:807D44E8       sInstance__Q219NrvStarPieceShooter15HostTypeNrvWait
 0003:807D44EC       sInstance__Q219NrvStarPieceShooter17HostTypeNrvLockOn
 0003:807D4638       sInstance__Q215NrvTreasureSpot19TreasureSpotNrvWait
 0003:807D463C       sInstance__Q215NrvTreasureSpot18TreasureSpotNrvEnd
 0003:807D4640       sInstance__Q215NrvTreasureSpot20TreasureSpotNrvSpout
 0003:807D4648       sInstance__Q216NrvTsukidashikun21TsukidashikunNrvRelax
 0003:807D464C       sInstance__Q216NrvTsukidashikun24TsukidashikunNrvWaitBack
 0003:807D4678       sInstance__Q212NrvUFOKinoko12HostTypeWait
 0003:807D4690       mDrawTimer__2MR
 0003:807D47C0       sInstance__Q218NrvMapPartsRotator17HostTypeNeverMove
 0003:807D47C4       sInstance__Q218NrvMapPartsRotator12HostTypeWait
 0003:807D4810       sInstance__34SingletonHolder<15NameObjRegister>
 0003:807D48B4       sInstance__Q214NrvCollectTico26CollectTicoNrvTryStartDemo
 0003:807D48B8       sInstance__Q214NrvCollectTico26CollectTicoNrvCompleteDemo
 0003:807D4AF0       sInstance__Q212NrvSignBoard16SignBoardNrvWait
 0003:807D4B04       sInstance__Q212NrvStrayTico16StrayTicoNrvGlad
 0003:807D4B08       sInstance__Q212NrvStrayTico16StrayTicoNrvWait
 0003:807D4B10       sInstance__Q212NrvStrayTico24StrayTicoNrvCompleteDemo
 0003:807D4D48       sInstance__Q230NrvCometEventExecutorTimeLimit37CometEventExecutorTimeLimitStartEvent
 0003:807D4DB8       sInstance__Q216NrvFireMarioBall21FireMarioBallNrvThrow
 0003:807D4E34       sInstance__Q213NrvMarioActor17MarioActorNrvWait
 0003:807D4E5C       sInstance__Q213NrvMarioActor19MarioActorNrvNoRush
 0003:807D5308       sInstance__Q212NrvGameScene30GameSceneScenarioOpeningCamera
 0003:807D536C       sInstance__Q222NrvScenarioSelectScene43ScenarioSelectSceneNrvInvalidScenarioSelect
 0003:807D5378       sInstance__Q222NrvScenarioSelectScene40ScenarioSelectSceneNrvWaitScenarioSelect
 0003:807D537C       sInstance__Q222NrvScenarioSelectScene48ScenarioSelectSceneNrvWaitResumeInitializeThread
 0003:807D54E4       sInstance__Q232@unnamed@ErrorMessageWindow_cpp@24ErrorMessageWindowAppear
 0003:807D54EC       sInstance__Q232@unnamed@ErrorMessageWindow_cpp@27ErrorMessageWindowDisappear
 0003:807D54F0       sInstance__Q232@unnamed@ErrorMessageWindow_cpp@39ErrorMessageWindowDisappearBeforeAppear
 0003:807D5508       sInstance__Q228@unnamed@FileSelectInfo_cpp@23FileSelectInfoNrvAppear
 0003:807D5510       sInstance__Q228@unnamed@FileSelectInfo_cpp@26FileSelectInfoNrvDisappear
 0003:807D55D4       sInstance__Q219NrvHomeButtonLayout22HomeButtonLayoutActive
 0003:807D57B0       sInstance__Q223NrvScenarioSelectLayout33ScenarioSelectLayoutNrvAppearStar
 0003:807D57C0       sInstance__Q223NrvScenarioSelectLayout44ScenarioSelectLayoutNrvAfterScenarioSelected
 0003:807D57C4       sInstance__Q223NrvScenarioSelectLayout29ScenarioSelectLayoutNrvCancel
 0003:807D57C8       sInstance__Q223NrvScenarioSelectLayout36ScenarioSelectLayoutNrvCancelFadeOut
 0003:807D57CC       sInstance__Q223NrvScenarioSelectLayout41ScenarioSelectLayoutNrvAppearCometWarning
 0003:807D57D0       sInstance__Q223NrvScenarioSelectLayout39ScenarioSelectLayoutNrvWaitCometWarning
 0003:807D57D4       sInstance__Q223NrvScenarioSelectLayout44ScenarioSelectLayoutNrvDisappearCometWarning
 0003:807D5A20       sInstance__Q218NrvTimeLimitLayout21TimeLimitLayoutAppear
 0003:807D5B70       sInstance__15DrawSyncManager
 0003:807D5C50       sInstance__Q213NrvGameSystem25GameSystemInitializeAudio
 0003:807D5C54       sInstance__Q213NrvGameSystem29GameSystemInitializeLogoScene
 0003:807D5C58       sInstance__Q213NrvGameSystem30GameSystemLoadStationedArchive
 0003:807D5C5C       isPreparedReset__10GameSystemCFv
 0003:807D5C60       sInstance__Q213NrvGameSystem16GameSystemNormal
 0003:807D5C64       sInstance__49SingletonHolder<30GameSystemResetAndPowerProcess>
 0003:807D5CA0       sInstance__Q228NrvGameSystemSceneController39GameSystemSceneControllerNotInitialized
 0003:807D5D08       HBMCreateRSO
 0003:807D5D28       sManager__17MainLoopFramework
 0003:807D5D60       sInstance__Q231@unnamed@NANDErrorSequence_cpp@40NANDErrorSequenceLessBlockOrInodeConfirm
 0003:807D5D98       sInstanceForCallback__10WPadRumble
 0003:807D5DB8       sInstance__Q236@unnamed@SaveDataHandleSequence_cpp@33SaveDataHandleSequenceNoOperation
 0003:807D60F0       sInstance__Q317NWC24MessengerSub28@unnamed@NWC24Messenger_cpp@32SendStateNrvWaitCloseSysInfoMini
 0003:807D6110       sSystemHeap__7JKRHeap
 0003:807D6114       sCurrentHeap__7JKRHeap
 0003:807D6118       sRootHeap__7JKRHeap
 0003:807D611C       mErrorHandler__7JKRHeap
 0003:807D6158       sAramObject__7JKRAram
 0003:807D6250       sErrorManager__12JUTException
 0003:807D6268       sConsole__12JUTException
 0003:807D6270       fpscr__12JUTException
 0003:807D6278       sDirectPrint__14JUTDirectPrint
 0003:807D6288       sManager__8JUTVideo
 0003:807D628C       sVideoLastTick__8JUTVideo
 0003:807D6290       sVideoInterval__8JUTVideo
 0003:807D62A0       sManager__6JUTXfb
 0003:807D62A8       sManager__17JUTConsoleManager
 0003:807D62F0       sOldVcdVatCmd__8J3DShape
 0003:807D6320       __GDCurrentDL
 0003:807D6388       sRFLManager
 0003:807D638C       sRFLLastReason
 0003:807D63A4       WrBufferMutex
 0003:807D63A8       InstanceIdGen
 0003:807D6458       JASDram
 0003:807D645C       sAramBase__9JASKernel
 0003:807D6460       sSystemHeap__9JASKernel
 0003:807D6464       sCommandHeap__9JASKernel
 0003:807D65DC       sAssertionConsole__Q24nw4r2db
 0003:807D65E8       typeInfo__Q34nw4r3lyt4Pane
 0003:807D65F0       mspAllocator__Q34nw4r3lyt6Layout
 0003:807D6600       typeInfo__Q34nw4r3lyt7TextBox
 0003:807D6624       __OSInNandBoot
 0003:807D6640       AreWeInitialized
 0003:807D6650       BI2DebugFlagHolder
 0003:807D6654       BI2DebugFlag
 0003:807D6658       BootInfo
 0003:807D6680       __OSArenaHi
 0003:807D6684       s_mem2ArenaHi
 0003:807D6688       __OSNextPartitionType
 0003:807D6690       DVDLowIntType
 0003:807D66B0       __OSLastInterruptSrr0
 0003:807D66E8       Reschedule
 0003:807D66EC       RunQueueHint
 0003:807D66F0       RunQueueBits
 0003:807D66F8       IpcBufferHi
 0003:807D6700       ResetDown
 0003:807D6704       StmReady
 0003:807D6708       StmImDesc
 0003:807D6710       StmEhRegistered
 0003:807D6714       StmVdInUse
 0003:807D6718       PowerCallback
 0003:807D671C       ResetCallback
 0003:807D6728       PlayRecordGet
 0003:807D6730       PlayRecordTerminate
 0003:807D6734       PlayRecordTerminated
 0003:807D6738       PlayRecordRetry
 0003:807D673C       PlayRecordLastError
 0003:807D6790       IsInitialized
 0003:807D679C       __VIDimming_All_Clear
 0003:807D67A0       THD_TIME_TO_DIMMING
 0003:807D67A4       NEW_TIME_TO_DIMMING
 0003:807D67A8       THD_TIME_TO_DVD_STOP
 0003:807D67AC       _gIdleCount_dimming
 0003:807D67B0       _gIdleCount_dvd
 0003:807D67B4       __VIDimmingState
 0003:807D67C0       changeMode
 0003:807D67D0       shdwChangeMode
 0003:807D6800       CurrTvMode
 0003:807D6828       g_current_time_to_dim
 0003:807D682C       __VIDVDStopFlag_Enable
 0003:807D6830       __VIDimmingFlag_Enable
 0003:807D6834       flushFlag3in1
 0003:807D6838       flushFlag
 0003:807D6860       __piReg
 0003:807D6864       __cpReg
 0003:807D6868       __peReg
 0003:807D686C       __memReg
 0003:807D6884       shutdownFuncRegistered
 0003:807D6894       BreakPointCB
 0003:807D68C0       currentDirectory
 0003:807D68D0       MaxEntryNum
 0003:807D68D4       FstStringStart
 0003:807D68D8       FstStart
 0003:807D68DC       BootInfo_1
 0003:807D68FC       FirstTimeInBootrom
 0003:807D6918       __DVDLayoutFormat
 0003:807D6950       MotorState
 0003:807D6968       bootInfo
 0003:807D6988       FatalFunc
 0003:807D6A40       s_libState
 0003:807D6A64       ItemIDMaxPlus1
 0003:807D6A68       ItemIDOffsetTblOffset
 0003:807D6A74       IPCCurrentBufferLo
 0003:807D6A78       IPCCurrentBufferHi
 0003:807D6A7C       IPCBufferLo
 0003:807D6A80       IPCBufferHi
 0003:807D6AB4       hId_1
 0003:807D6AB8       __PADSpec
 0003:807D6BE0       __global_destructor_chain
 0003:807D6BF0       errno
 0003:807D6C20       gIsInitialized
 0003:807D6C28       TRK_mainError
 0003:807D6C48       gTRKInputPendingPtr
 0003:807D6C70       __DBMtrCallback
 0003:807D6C74       __DBDbgCallback
 0003:807D6C7C       __DBRecvMail
 0003:807D6C80       __DBRecvDataSize
 0001:807D6E98       aId
 0001:807D6FF8       aB6Ac4
 0001:807D73FC       aFff_2
 0001:807D89B8       aFffbh
 0001:807D8B5C       aB6Aa
 0001:807D8B64       aA_0
 0001:807D94FC       aFffa
 0001:807D9504       aC4
 0001:807D9540       a333
 0001:807D95F8       aS33c4
 0001:807D9928       aC6A
 0001:807D9A64       aFffa_0
 0001:807D9A6C       aB4
 0001:807D9B40       aFff
 0001:807DA0EC       a333bp
 0001:807DA4D0       a333_0
 0001:807DA6C8       aFff_0
 0001:807DA944       aS33dz
 0001:807DA94C       aIt
 0001:807DA950       aCh
 0001:807DAD14       a333bh
 0001:807DAD70       aFff_1
 0001:807DAE50       a333_1
 0001:807DB0B8       aFffa_1
 0001:807DB26C       a333a
 0001:807DB758       aB6A
 0001:807DB7D4       aFff_3
 0001:807DB7E0       aA
 0001:807DB818       aS33333
 0001:807DB8CC       aFffa_2
 0001:807DB8D4       aB
 0001:807DBAF4       aB6A_0
 0001:807DC0A8       aB6AFff
 0001:807DC150       aFffdz
 0001:807DC1DC       aFff_4
 0001:807DC544       aFff_5
 0001:807DC684       a333_2
 0001:807DC940       sArcName__16PlanetMapCreator
 0001:807DC944       sFileName__16PlanetMapCreator
 0001:807DC9D8       aB6Aap
 0001:807DCBDC       aB6Abh
 0001:807DD154       a333_3
 0001:807DD590       a333_4
 0001:807DD634       a333bh_0
 0001:807DD7FC       a333ch
 0001:807DD894       aB6Aa_0
 0001:807DD9F0       a333_5
 0001:807DE084       cAppearDemoName__9PowerStar
 0001:807DE088       cStageClearAnimNameKoopaVs3__23@unnamed@PowerStar_cpp@
 0001:807E27A0       __GXData

Program entry point at 0001:00000050
